(dp1
S'a'
F0.003838771593090211
sS'A'
F0.007677543186180422
sS'9'
F0.003838771593090211
sS'Z'
F0.15547024952015356
sS'i'
F0.032629558541266791
sS'0'
F0.038387715930902108
sS'I'
F0.053742802303262956
sS'H'
F0.0019193857965451055
sS'+'
F0.038387715930902108
sS'*'
F0.015355086372360844
sS','
F0.011516314779270634
sS'.'
F0.41266794625719772
sS'y'
F0.024952015355086371
sS's'
F0.032629558541266791
sS'r'
F0.015355086372360844
sS'h'
F0.007677543186180422
sS'Y'
F0.011516314779270634
sS'R'
F0.0057581573896353169
sS'z'
F0.12476007677543186
sS'S'
F0.0019193857965451055
s.ccopy_reg
_reconstructor
p1
(cstf.common.markov_chains
Matrix
p2
c__builtin__
dict
p3
(dp4
(S'.'
S'z'
tp5
F0.2930232558139535
s(S'+'
S'I'
tp6
F0.10000000000000001
s(S's'
S'.'
tp7
F1
s(S'z'
S'.'
tp8
F0.96923076923076923
s(S'.'
S'A'
tp9
F0.018604651162790697
s(S'I'
S'+'
tp10
F0.071428571428571425
s(S'9'
S'.'
tp11
F0.5
s(S'9'
S'9'
tp12
F0.5
s(S'+'
S'Z'
tp13
F0.75
s(S'*'
S'Z'
tp14
F0.875
s(S'.'
S'S'
tp15
F0.0046511627906976744
s(S'.'
S'r'
tp16
F0.037209302325581395
s(S'R'
S'+'
tp17
F0.66666666666666663
s(S'I'
S'.'
tp18
F0.9285714285714286
s(S'a'
S'.'
tp19
F1
s(S'S'
S'.'
tp20
F1
s(S'Z'
S'.'
tp21
F0.67901234567901236
s(S'H'
S'.'
tp22
F1
s(S'+'
S'R'
tp23
F0.050000000000000003
s(S','
S'z'
tp24
F0.16666666666666666
s(S'z'
S'+'
tp25
F0.030769230769230771
s(S'Z'
S'0'
tp26
F0.012345679012345678
s(S'Y'
S','
tp27
F0.16666666666666666
s(S'Z'
S'*'
tp28
F0.098765432098765427
s(S'.'
S's'
tp29
F0.079069767441860464
s(S'+'
S'z'
tp30
F0.050000000000000003
s(S'0'
S'Z'
tp31
F0.050000000000000003
s(S'0'
S'0'
tp32
F0.94999999999999996
s(S'.'
S'i'
tp33
F0.079069767441860464
s(S'.'
S'Y'
tp34
F0.018604651162790697
s(S'A'
S'.'
tp35
F1
s(S'.'
S'a'
tp36
F0.0093023255813953487
s(S'y'
S'.'
tp37
F1
s(S','
S'Z'
tp38
F0.66666666666666663
s(S'r'
S'.'
tp39
F1
s(S'Z'
S'+'
tp40
F0.14814814814814814
s(S'.'
S'H'
tp41
F0.0046511627906976744
s(S'Y'
S'+'
tp42
F0.16666666666666666
s(S'.'
S'Z'
tp43
F0.25116279069767444
s(S'.'
S'y'
tp44
F0.060465116279069767
s(S','
S'Y'
tp45
F0.16666666666666666
s(S'h'
S'.'
tp46
F1
s(S'i'
S'+'
tp47
F0.058823529411764705
s(S'Y'
S'.'
tp48
F0.66666666666666663
s(S'Z'
S','
tp49
F0.061728395061728392
s(S'R'
S'.'
tp50
F0.33333333333333331
s(S'.'
S'I'
tp51
F0.12093023255813953
s(S'+'
S'h'
tp52
F0.050000000000000003
s(S'.'
S'h'
tp53
F0.013953488372093023
s(S'*'
S'Y'
tp54
F0.125
s(S'.'
S'R'
tp55
F0.0093023255813953487
s(S'i'
S'.'
tp56
F0.94117647058823528
stRp57
(dp58
S'itemlist'
p59
(lp60
sS'init_vector'
p61
(dp62
S'a'
F0.003838771593090211
sS'A'
F0.007677543186180422
sS'9'
F0.003838771593090211
sS'Z'
F0.15547024952015356
sS'i'
F0.032629558541266791
sS'0'
F0.038387715930902108
sS'I'
F0.053742802303262956
sS'H'
F0.0019193857965451055
sS'+'
F0.038387715930902108
sS'*'
F0.015355086372360844
sS','
F0.011516314779270634
sS'.'
F0.41266794625719772
sS'y'
F0.024952015355086371
sS's'
F0.032629558541266791
sS'r'
F0.015355086372360844
sS'h'
F0.007677543186180422
sS'Y'
F0.011516314779270634
sS'R'
F0.0057581573896353169
sS'z'
F0.12476007677543186
sS'S'
F0.0019193857965451055
ssb.S'99.Z+Z.Z,Z.z.z.I.I.z.Z.Z.I.I.z.z.I.Z.z.Z.Z.R+R.r.a.A.A.A.A.a.H.h.I.h.h.Z.Z,Z.z.z.Z+Z.Z+I+Z.i.Z+Z.I.I.I.z.z.I.Z.Z.R+h.i+Z.z.z.z.z.I.I.Z.Y.Z+I+Z.z.z.I.z.Z.i.Z.Z.Z00000000000000000000Z.z.z.z.y.y.z.Z+Z.I.I.z.i.i.i.Z+Z.z.I.i.z.i.i.i.i.Z*Z.I.z.I.z.z.i.i.Z.Z*Y.Y.y.s.s.s.s.Z.Z*Z.Z.z.z.z.z.z.Z.Z*Z.Z.z.z.z.z.z.Z.Z*Z,z+z+Z.Z.z.z.z.z.z.Z.Z+Z.I.Z*Z.Z.z.z.z.z.s.Z.Y,Z*Z.z.y.z.s.s.s.Z.Y+Z.I.I.z.y.y.s.s.z.z.S.Z+Z.I.i.i.i.Z,Y.Z.z.y.y.z.z.Z.Z,Z.i.Z*Z.z.z.s.s.s.s.Z.Z+Z.I.I.z.Z.z.z.z.z.z.Z.Z+Z.I.I.r.r.r.r.r.r.r.Z.Z+Z.y.y.y.y.s.s.s.z.y.Z.'
p1
.F-575.23236864096009
.S'From-Malicious-TCP-HTTPS-Facebook.Chat-1'
p1
.F1.1000000000000001
.