ccopy_reg
_reconstructor
p1
(cpykov
Vector
p2
c__builtin__
dict
p3
(dp4
S'B'
F0.0021551724137931034
sS'e'
F0.0021551724137931034
sS'I'
F0.060344827586206899
sS'+'
F0.41379310344827586
sS'v'
F0.0021551724137931034
sS','
F0.021551724137931036
sS'.'
F0.0625
sS'i'
F0.21551724137931033
sS'z'
F0.088362068965517238
sS'V'
F0.0043103448275862068
sS'9'
F0.0043103448275862068
sS'Z'
F0.12284482758620691
stRp5
.ccopy_reg
_reconstructor
p1
(cpykov
Chain
p2
c__builtin__
dict
p3
(dp4
(S'+'
S'I'
tp5
F0.140625
s(S'i'
S','
tp6
F0.01
s(S'.'
S'V'
tp7
F0.068965517241379309
s(S','
S'B'
tp8
F0.099999999999999992
s(S'B'
S'+'
tp9
F1
s(S'I'
S'+'
tp10
F0.92857142857142849
s(S'9'
S'.'
tp11
F0.5
s(S','
S'Z'
tp12
F0.19999999999999998
s(S'Z'
S'+'
tp13
F0.49122807017543857
s(S'9'
S'9'
tp14
F0.5
s(S'+'
S'Z'
tp15
F0.14583333333333334
s(S','
S'i'
tp16
F0.099999999999999992
s(S'+'
S'v'
tp17
F0.005208333333333333
s(S'z'
S','
tp18
F0.12195121951219513
s(S'+'
S'e'
tp19
F0.005208333333333333
s(S'.'
S'Z'
tp20
F0.93103448275862066
s(S'I'
S','
tp21
F0.071428571428571425
s(S'V'
S'+'
tp22
F1
s(S'Z'
S'.'
tp23
F0.49122807017543857
s(S'i'
S'+'
tp24
F0.98999999999999999
s(S'e'
S'+'
tp25
F1
s(S'Z'
S','
tp26
F0.017543859649122806
s(S'+'
S'i'
tp27
F0.515625
s(S'z'
S'+'
tp28
F0.87804878048780499
s(S'+'
S'z'
tp29
F0.1875
s(S','
S'z'
tp30
F0.5
s(S','
S'I'
tp31
F0.099999999999999992
s(S'v'
S','
tp32
F1
stRp33
(dp34
S'_guess'
p35
g1
(cpykov
Vector
p36
g3
(dp37
S'B'
F0.0021551724137931034
sS'e'
F0.0021551724137931034
sS'I'
F0.060344827586206899
sS'+'
F0.41379310344827586
sS'v'
F0.0021551724137931034
sS','
F0.021551724137931036
sS'.'
F0.0625
sS'i'
F0.21551724137931033
sS'z'
F0.088362068965517238
sS'V'
F0.0043103448275862068
sS'9'
F0.0043103448275862068
sS'Z'
F0.12284482758620691
stRp38
sb.S'99.Z+z+z+I+i+i+Z.Z+i+I+I+i+Z.Z+i+i+i+z+z+I+i+z+z+i+i+i+Z.Z+i+i+z+z+I+i+i+Z.Z+z+i+i+i+Z.Z+z+i+i+i+Z.V+z,z+I+z+z+i+i+I+I+z+z+i+i+i+Z.Z+e+z,z+z+i+i+i+Z.Z+i+i+i+i+Z.Z+i+i+z+I+z+I+I+i+Z,Z+i+i+i+i+Z.Z+i+i+i+i+Z.Z+i+i+z+z+i+i+I+Z.Z+I+i+I+I+Z.Z+z+z+I+i+i+Z.Z+i+i+z+z+i+i+i+Z.Z+I+i+i+i+Z.Z+i+i+i+i+Z.Z+z+z+i+i+i+Z.Z+i+i+i+i+Z.Z+i+i+i+i+Z.Z+i+i+I+z+Z.Z+i+i+i+i+Z.Z+i+i+i+i+Z.Z+i+i+i+z+z+i+i+i+Z.V+v,i,z+i+i+z+z+I+I+i+Z.Z+z+i+z,z+z,I,Z.Z+z,z+I+i+I+I+Z.Z+i+i+I+i+Z.Z+i+I+I+I,B+'
p1
.F-337.34072196446311
.S'From-Botnet-TCP-HTTP-CC.BitcoinMiner-1'
p1
.F1.1000000000000001
.