(dp1
S'a'
F0.37041234707823595
sS'A'
F0.0033667788926297544
sS'b'
F0.0010000333344444814
sS'e'
F0.00016667222240741359
sS'd'
F0.12145404846828228
sS's'
F1.6667222240741358e-05
sS'+'
F1.6667222240741358e-05
sS'*'
F0.0004833494449814994
sS','
F0.00010000333344444814
sS'.'
F0.49938331277709258
sS'S'
F3.3334444481482717e-05
sS'R'
F0.0014833827794259809
sS'u'
F0.00016667222240741359
sS'4'
F3.3334444481482717e-05
sS'U'
F6.6668888962965434e-05
sS'B'
F3.3334444481482717e-05
sS'r'
F0.0008333611120370679
sS'D'
F0.00095003166772225742
s.ccopy_reg
_reconstructor
p1
(cstf.common.markov_chains
Matrix
p2
c__builtin__
dict
p3
(dp4
(S'u'
S','
tp5
F0.10000000000000001
s(S'b'
S'.'
tp6
F1
s(S'4'
S'4'
tp7
F0.5
s(S'.'
S'u'
tp8
F0.00033375609104866166
s(S'.'
S'a'
tp9
F0.74173953674654558
s(S','
S'r'
tp10
F0.66666666666666663
s(S'.'
S'A'
tp11
F0.0067418730391829648
s(S'.'
S'S'
tp12
F6.6751218209732332e-05
s(S'r'
S','
tp13
F0.040000000000000001
s(S'.'
S'r'
tp14
F0.0015352780188238435
s(S'R'
S'+'
tp15
F0.011235955056179775
s(S'.'
S'd'
tp16
F0.24320806354715974
s(S'B'
S'.'
tp17
F1
s(S'a'
S'.'
tp18
F1
s(S'S'
S'.'
tp19
F0.5
s(S'.'
S'B'
tp20
F6.6751218209732332e-05
s(S'+'
S'R'
tp21
F1
s(S's'
S'.'
tp22
F1
s(S'.'
S's'
tp23
F3.3375609104866166e-05
s(S','
S'R'
tp24
F0.33333333333333331
s(S'.'
S'e'
tp25
F0.00033375609104866166
s(S'u'
S'.'
tp26
F0.90000000000000002
s(S'A'
S'.'
tp27
F1
s(S'.'
S'b'
tp28
F0.0020025365462919696
s(S'R'
S','
tp29
F0.02247191011235955
s(S'r'
S'.'
tp30
F0.95999999999999996
s(S'd'
S'.'
tp31
F1
s(S'U'
S'.'
tp32
F1
s(S'S'
S','
tp33
F0.5
s(S'4'
S'.'
tp34
F0.5
s(S'.'
S'U'
tp35
F0.00013350243641946466
s(S'e'
S'.'
tp36
F1
s(S'*'
S'R'
tp37
F1
s(S'R'
S'.'
tp38
F0.6404494382022472
s(S'D'
S'.'
tp39
F1
s(S'.'
S'R'
tp40
F0.0019024097189773714
s(S'.'
S'D'
tp41
F0.0019024097189773714
s(S'R'
S'*'
tp42
F0.3258426966292135
stRp43
(dp44
S'itemlist'
p45
(lp46
sS'init_vector'
p47
(dp48
S'a'
F0.37041234707823595
sS'A'
F0.0033667788926297544
sS'b'
F0.0010000333344444814
sS'e'
F0.00016667222240741359
sS'd'
F0.12145404846828228
sS's'
F1.6667222240741358e-05
sS'+'
F1.6667222240741358e-05
sS'*'
F0.0004833494449814994
sS','
F0.00010000333344444814
sS'.'
F0.49938331277709258
sS'S'
F3.3334444481482717e-05
sS'R'
F0.0014833827794259809
sS'u'
F0.00016667222240741359
sS'4'
F3.3334444481482717e-05
sS'U'
F6.6668888962965434e-05
sS'B'
F3.3334444481482717e-05
sS'r'
F0.0008333611120370679
sS'D'
F0.00095003166772225742
ssb.S'44.R+R.R.r.a.a.d.a.a.a.a.a.a.a.a.a.a.a.a.d.a.a.a.d.a.a.a.a.a.a.d.d.b.D.D.a.a.a.a.d.a.a.a.a.a.d.d.a.a.d.a.d.a.a.d.d.a.a.d.a.a.d.a.d.a.a.a.a.a.a.a.a.a.a.a.d.a.a.d.a.a.d.a.a.a.d.a.a.a.a.a.d.a.a.a.a.a.a.a.d.a.a.a.a.a.d.d.a.a.d.a.d.a.a.a.d.a.a.d.r.r.d.a.d.a.a.d.a.a.a.a.d.a.a.a.d.a.a.a.a.a.a.a.a.a.a.a.a.a.a.a.d.a.a.d.a.a.a.a.d.a.a.a.a.a.d.a.a.a.d.a.d.a.a.d.a.a.a.d.a.a.d.a.a.a.a.a.a.a.d.d.a.a.a.a.a.a.a.a.d.a.a.a.a.a.d.a.a.a.a.d.d.a.e.D.A.a.a.a.d.a.a.a.a.a.d.a.a.a.d.a.a.a.a.d.a.a.a.d.a.a.d.a.a.a.a.a.a.a.d.d.a.a.a.a.a.a.a.d.a.a.d.a.a.a.a.a.a.a.a.d.d.a.a.d.a.a.a.a.d.a.a.b.r.r.d.a.a.a.a.a.a.a.a.d.d.a.a.a.a.a.d.a.a.a.a.a.a.a.a.a.a.a.d.a.a.a.a.d.a.a.d.a.a.a.d.b.s.A.r.d.a.b.A.A.a.a.a.a.e.A.A.a.d.a.a.d.a.a.e.B.D.r.a.e.u,r.a.a.a.a.d.a.d.a.a.d.a.a.d.a.a.b.A.A.d.d.a.a.a.a.d.a.a.a.d.a.a.a.a.a.e.A.D.d.a.a.a.a.d.a.a.a.a.a.d.a.a.a.a.a.a.a.a.d.d.a.a.d.a.a.a.a.a.a.a.d.a.a.d.a.a.a.a.a.d.a.a.d.a.a.a.a.a.a.a.a.a.r.r.a.d.a.a.d.a.a.a.a.d.a.a.a.a.a.a.d.a.a.d.a.a.a.a.d.d.a.a.d.a.a.a.b.D.A.a.a.a.a.a.d.a.a.a.a.d.a.a.d.d.a.d.a.a.a.d.a.a.a.a.d.d.a.d.d.a.a.a.a.d.a.d.a.a.a.b.u.r.a.d.a.d.a.a.d.d.a.a.a.a.a.a.a.d.a.a.d.a.b.u.u.a.a.d.a.d.a.a.a.a.a.a.a.a.a.a.a.a.a.a.a.d.a.d.a.a.a.a.a.d.a.a.a.d.a.d.d.a.a.a.a.a.b.A.D.a.a.a.a.a.a.a.a.a.a.a.d.a.a.d.a.a.a.d.a.a.A.A.a.d.a.d.a.a.a.d.a.a.a.a.d.a.a.d.d.a.a.a.a.d.a.a.a.d.a.d.a.a.a.d.a.d.a.a.d.d.a.a.a.a.a.a.a.d.a.a.d.a.a.d.d.a.a.a.a.a.a.a.d.d.a.d.a.a.a.a.a.a.a.a.a.d.a.a.d.a.a.a.a.a.a.a.a.d.a.d.d.a.a.a.a.a.a.a.a.a.a.a.d.a.a.d.a.d.a.a.d.a.a.d.d.a.a.d.a.d.a.a.d.d.a.a.a.a.a.d.a.a.a.a.d.a.a.a.d.a.a.a.a.d.a.a.a.d.a.a.d.a.a.a.a.d.a.a.d.d.a.a.a.a.a.d.a.d.a.a.a.a.a.a.a.a.a.a.a.a.a.a.a.a.a.d.a.a.a.a.a.a.a.a.d.d.a.d.a.a.a.a.a.a.a.a.a.a.a.d.a.a.a.a.a.a.a.a.d.d.a.a.a.a.a.d.a.d.a.a.a.a.a.d.d.a.d.d.a.a.a.a.a.a.a.a.a.a.a.a.a.a.a.a.d.d.a.d.d.a.a.a.a.a.a.a.a.d.a.d.d.a.a.a.a.d.a.d.d.d.a.a.a.a.a.a.b.D.A.a.d.a.a.d.d.a.a.d.d.a.a.A.A.d.a.a.a.a.a.d.d.a.a.d.a.d.a.a.d.d.a.a.a.a.d.a.a.a.a.a.d.a.a.d.d.a.a.d.a.d.a.a.a.d.a.d.a.d.a.A.A.a.a.d.a.d.a.a.d.d.a.a.a.a.a.a.a.a.a.d.d.a.a.d.a.d.a.a.d.d.a.a.d.a.a.a.R*R.R.A.d.a.a.d.d.a.a.d.a.d.a.a.a.d.a.d.a.d.r.r.a.a.d.a.d.a.a.d.d.a.a.a.a.a.a.a.a.a.d.d.a.a.d.a.d.a.a.d.d.a.a.d.a.a.a.a.a.a.a.d.a.a.a.a.a.a.a.a.a.a.a.a.d.a.a.a.d.a.a.a.a.a.a.d.d.a.d.d.a.a.a.a.d.a.a.a.a.a.d.d.a.a.d.a.d.a.a.d.d.a.a.d.a.a.d.a.d.a.a.a.a.a.a.a.a.a.a.a.d.a.a.d.a.a.d.a.a.a.d.a.a.a.a.a.d.a.a.a.a.e.r,r.d.a.a.a.a.a.d.d.a.a.d.a.d.a.a.a.d.a.a.d.a.a.d.a.d.a.a.d.a.a.a.a.d.a.a.a.d.a.a.a.a.a.a.a.a.a.a.a.a.a.a.a.d.a.a.d.a.a.a.a.d.a.a.a.a.a.d.a.a.a.d.a.d.a.a.d.a.a.a.d.a.a.d.a.a.a.a.a.a.a.d.d.a.a.a.a.a.a.a.a.d.a.a.a.a.a.d.a.a.a.a.d.d.a.d.d.a.a.a.a.d.a.a.a.a.a.d.a.a.a.d.a.a.a.a.d.a.a.a.d.a.a.d.a.a.a.a.a.a.a.d.d.a.a.a.a.a.a.a.d.a.a.d.a.a.a.a.a.a.a.a.d.d.a.a.d.a.a.a.a.d.a.a.a.a.a.d.a.a.a.a.a.a.a.a.d.d.a.a.a.a.a.d.a.a.a.a.a.a.a.a.a.a.a.d.a.a.a.a.d.a.a.d.a.a.a.d.a.a.a.a.d.a.a.a.a.a.a.a.a.d.a.a.a.d.a.a.d.a.a.d.a.d.a.a.d.d.a.a.a.a.a.d.a.d.a.a.d.a.a.d.a.a.a.a.a.d.d.a.a.a.a.d.a.a.a.d.a.a.a.a.a.d.a.d.d.a.a.a.a.d.a.a.a.a.a.d.a.a.a.a.a.a.a.a.d.d.a.a.d.a.a.a.a.a.a.a.d.a.a.d.a.a.a.a.a.d.a.a.d.a.a.a.a.a.a.a.a.a.a.a.a.d.a.a.d.a.a.a.a.d.a.a.a.a.a.a.d.a.a.d.a.a.a.a.d.d.a.a.d.a.a.a.a.d.a.a.a.a.a.a.d.a.a.a.a.d.a.a.d.d.a.d.a.a.a.d.a.a.a.a.d.d.a.d.d.a.a.a.a.d.a.d.a.a.a.a.d.a.a.d.a.d.a.a.d.d.a.a.a.a.a.a.a.d.a.a.d.a.a.d.d.a.a.d.a.d.a.a.a.a.a.a.a.a.a.a.a.a.a.a.a.d.a.d.a.a.a.a.b.D.A.a.a.d.a.d.d.a.a.a.a.a.a.a.d.a.a.a.a.a.a.a.a.a.a.a.d.a.a.d.a.a.a.d.a.a.a.a.a.d.a.d.a.a.a.d.a.a.a.a.d.a.a.d.d.a.a.a.a.d.a.a.a.d.a.d.a.a.a.d.a.d.a.a.d.d.a.a.a.a.a.a.a.d.a.a.d.a.a.d.d.a.a.a.a.a.a.a.d.d.a.d.a.a.a.a.a.a.a.a.a.d.a.a.d.a.a.a.a.a.a.a.a.d.a.d.d.a.a.a.a.a.a.a.a.a.a.a.d.a.a.d.a.d.a.a.d.a.a.d.d.a.a.d.a.d.a.a.d.d.a.a.a.a.a.d.a.a.a.a.d.a.a.a.d.a.a.a.a.d.a.a.a.d.a.a.d.a.a.a.a.d.a.a.d.d.a.a.a.a.a.d.a.d.a.a.a.a.a.a.a.a.a.a.a.a.a.a.a.a.a.d.a.a.a.a.a.a.a.a.d.d.a.d.a.a.a.a.a.a.a.a.a.a.a.d.a.a.a.a.a.a.a.a.d.d.a.a.a.a.a.d.a.d.a.a.a.a.a.d.d.a.d.d.a.a.a.a.a.a.a.a.a.a.a.a.a.a.a.a.d.d.a.d.d.a.a.a.a.a.a.a.a.d.a.d.d.a.a.a.a.d.a.d.d.d.a.a.a.a.a.a.a.d.a.a.d.a.a.d.d.a.a.d.d.a.a.A.A.d.a.a.a.a.a.d.d.a.a.d.a.d.a.a.d.d.a.a.a.a.d.a.a.a.R*R.R.A.d.a.a.d.a.a.a.a.a.d.d.a.a.a.a.d.a.a.a.d.a.a.a.a.a.d.a.d.d.a.a.a.a.d.a.a.a.a.a.d.a.a.a.a.a.a.a.a.d.d.a.a.d.a.a.a.a.a.a.a.d.a.a.d.a.a.a.a.a.d.a.a.d.a.a.a.a.a.a.a.a.a.a.a.a.d.a.a.d.a.a.a.a.d.a.a.a.a.a.a.d.a.a.d.a.a.a.a.d.d.a.a.d.a.a.a.a.d.a.a.a.a.a.a.d.a.a.a.a.d.a.a.d.d.a.d.a.a.a.d.a.a.a.a.d.d.a.d.d.a.a.a.a.d.a.d.a.a.a.a.d.a.a.d.a.d.a.a.d.d.a.a.a.a.a.a.a.d.a.a.d.a.a.d.d.a.a.d.a.d.a.a.a.a.a.a.a.a.a.a.a.a.a.a.a.d.a.d.a.a.a.a.a.d.a.a.a.d.a.d.d.a.a.a.a.a.a.a.d.a.a.a.a.a.a.a.a.a.a.a.d.a.a.d.a.a.a.d.a.a.a.a.a.d.a.d.a.a.a.d.a.a.a.a.d.a.a.d.d.a.a.a.a.d.a.a.a.d.a.d.a.a.a.d.a.d.a.a.d.d.a.a.a.a.a.a.a.d.a.a.d.a.a.d.d.a.a.a.a.a.a.a.d.d.a.d.a.a.a.a.a.a.a.a.a.d.a.a.d.a.a.a.a.a.a.a.a.d.a.d.d.a.a.a.a.a.a.a.a.a.a.a.d.a.a.d.a.d.a.a.d.a.a.d.d.a.a.d.a.d.a.a.d.d.a.a.a.a.a.d.a.a.a.a.d.a.a.a.d.a.a.a.a.d.a.a.a.d.a.a.d.a.a.a.a.d.a.a.d.d.a.a.a.a.a.d.a.d.a.a.a.a.a.a.a.a.a.a.a.a.a.a.a.a.a.d.a.a.a.a.a.a.a.a.d.d.a.d.a.a.a.a.a.a.a.a.a.a.a.d.a.a.a.a.a.a.a.a.d.d.a.a.a.a.a.d.a.d.a.a.a.a.a.d.d.a.d.d.a.a.a.a.a.a.a.a.a.a.a.a.a.a.a.a.d.d.a.d.d.a.a.a.a.a.a.a.a.d.a.d.d.a.a.a.a.d.a.d.d.d.a.a.a.a.a.a.a.d.a.a.d.a.a.d.d.a.a.d.d.a.r.r.d.a.a.a.a.a.d.d.a.a.d.a.d.a.a.d.d.a.a.a.a.d.a.a.a.a.a.d.a.a.d.d.a.a.d.a.d.a.a.a.d.a.d.a.d.a.A.A.a.a.d.a.d.a.a.d.d.a.a.a.a.a.a.a.a.a.d.d.a.a.d.a.d.a.a.d.d.a.a.d.a.a.a.a.a.a.a.d.a.a.a.a.a.a.a.a.a.a.a.a.d.a.a.a.d.a.a.a.a.a.a.d.d.a.d.d.a.a.a.a.d.a.a.a.a.a.d.d.a.a.d.a.d.a.a.d.d.a.a.d.a.a.d.a.d.a.a.a.a.a.a.a.a.a.a.a.d.a.a.d.a.a.d.a.a.a.d.a.a.a.a.a.d.a.a.a.a.a.a.a.d.a.a.a.a.a.d.d.a.a.d.a.d.a.a.a.d.a.a.d.a.a.d.a.d.a.a.d.a.a.a.a.d.a.a.a.d.a.a.a.a.a.a.a.a.a.a.a.a.a.a.a.d.a.a.d.a.a.a.a.d.a.a.a.a.a.d.a.a.a.d.a.d.a.a.d.a.a.a.d.a.a.d.a.a.a.a.a.a.a.d.d.a.a.a.a.a.a.a.a.d.a.a.a.a.a.d.a.a.a.a.d.d.a.d.d.a.a.a.a.d.a.a.a.a.a.d.a.a.a.d.a.a.a.a.d.a.a.a.d.a.a.d.a.a.a.a.a.a.a.d.d.a.a.a.a.a.a.a.d.a.a.d.a.a.a.a.a.a.a.a.d.d.a.a.d.a.a.a.a.d.a.a.a.a.a.d.a.a.a.a.a.a.a.a.d.d.a.a.a.a.a.d.a.a.a.a.a.a.a.a.a.a.a.d.a.a.a.a.d.a.a.d.a.a.a.d.a.a.a.a.d.a.a.a.a.a.a.a.a.d.a.a.a.d.a.a.d.a.a.d.a.d.a.a.d.d.a.a.a.a.a.d.a.d.R*R.R.A.d.a.d.a.a.d.d.a.a.a.a.a.a.a.a.a.d.d.a.a.d.a.d.a.a.d.d.a.a.d.a.a.a.a.a.a.a.d.a.a.a.a.a.a.a.a.a.a.a.a.d.a.a.a.d.a.a.a.a.a.a.d.d.a.d.d.a.a.a.a.d.a.a.a.a.a.d.d.a.a.d.a.d.a.a.d.d.a.a.d.a.a.d.a.d.a.a.a.a.a.a.a.a.a.a.a.d.a.a.d.a.a.d.a.a.a.d.a.a.a.a.a.d.a.a.a.a.a.a.a.d.a.a.a.a.a.d.d.a.a.d.a.d.a.a.a.d.a.a.d.a.a.d.a.d.a.a.d.a.a.a.a.d.a.a.a.d.a.a.a.a.a.a.a.a.a.a.a.a.a.a.a.d.a.a.d.a.a.a.a.d.a.a.a.a.a.d.a.a.a.d.a.d.a.a.d.a.a.a.d.a.a.d.a.a.a.a.a.a.a.d.d.a.a.a.a.a.a.a.a.d.a.a.a.a.a.d.a.a.a.a.d.d.a.d.d.a.a.a.a.d.a.a.a.a.a.d.a.a.a.d.a.a.a.a.d.a.a.a.d.a.a.d.a.a.a.a.a.a.a.d.d.a.a.a.a.a.a.a.d.a.a.d.a.a.a.a.a.a.a.a.d.d.a.a.d.a.a.a.a.d.a.a.a.a.a.d.a.a.a.a.a.a.a.a.d.d.a.a.a.a.a.d.a.a.a.a.a.a.a.a.a.a.a.d.a.a.a.a.d.a.a.d.a.a.a.d.a.a.a.a.d.a.a.a.a.a.a.a.a.d.a.a.a.d.a.a.d.a.a.d.a.d.a.a.d.d.a.a.a.a.a.d.a.d.a.a.d.a.a.d.a.a.a.a.a.d.d.a.a.a.a.d.a.a.a.d.a.a.a.a.a.d.a.d.d.a.a.a.a.d.a.a.a.a.a.d.a.a.a.a.a.a.a.a.d.d.a.a.d.a.a.a.a.a.a.a.d.a.a.d.a.a.a.a.a.d.a.a.d.a.a.a.a.a.a.a.a.a.a.a.a.d.a.a.d.a.a.a.a.d.a.a.a.a.a.a.d.a.a.d.a.a.a.a.d.d.a.a.d.a.a.a.a.d.a.a.a.a.a.a.d.a.a.a.a.d.a.a.d.d.a.d.a.a.a.d.a.a.a.a.d.d.a.d.d.a.a.a.a.d.a.d.a.a.a.a.d.a.a.d.a.d.a.a.d.d.a.a.a.a.a.a.a.d.a.a.d.a.a.d.d.a.a.d.a.d.a.a.a.a.a.a.a.a.a.a.a.a.a.a.a.d.a.d.a.a.a.a.a.d.a.a.a.d.a.d.d.a.a.a.a.a.a.a.d.a.a.a.a.a.a.a.a.a.a.a.d.a.a.d.a.a.a.d.a.a.a.a.a.d.a.d.a.a.a.d.a.a.a.a.d.a.a.d.d.a.a.a.a.d.a.a.a.d.a.d.a.a.a.d.a.d.a.a.d.d.a.a.a.a.a.a.a.d.a.a.d.a.a.d.d.a.a.a.a.a.a.a.d.d.a.d.a.a.a.a.a.a.a.a.a.d.a.a.d.a.a.a.a.a.a.a.a.d.a.d.d.a.a.a.a.a.a.a.a.a.a.a.d.a.a.d.a.d.a.a.d.a.a.d.d.a.a.d.a.d.a.a.d.d.a.a.a.a.a.d.a.a.a.a.d.a.a.a.d.a.a.a.a.d.a.a.a.d.a.a.d.a.a.a.a.d.a.a.d.d.a.a.a.a.a.d.a.d.a.a.a.a.a.a.a.a.a.a.a.a.a.a.a.a.a.d.a.a.a.a.a.a.a.a.d.d.a.d.a.a.a.a.a.a.a.a.a.a.a.d.a.a.a.a.a.a.a.a.d.d.a.a.a.a.a.d.a.d.a.a.a.a.a.d.d.a.d.d.a.a.a.a.a.a.a.a.a.a.a.a.a.a.a.a.d.d.a.d.d.a.a.a.a.a.a.a.a.d.a.d.d.a.a.a.a.d.a.d.d.d.a.a.a.a.a.a.a.d.a.a.d.a.a.d.d.a.a.d.d.a.a.A.A.d.a.a.a.a.a.d.d.a.a.d.a.d.a.a.d.d.a.a.a.a.d.a.a.a.a.a.d.a.a.d.d.a.a.d.a.d.a.a.a.d.a.d.a.d.a.A.A.R*R.U.D.a.a.a.a.a.a.a.a.a.d.d.a.a.d.a.d.a.a.d.d.a.a.d.a.a.a.a.a.a.a.d.a.a.a.a.a.a.a.a.a.a.a.a.d.a.a.a.d.a.a.a.a.a.a.d.d.a.d.d.a.a.a.a.d.a.a.a.a.a.d.d.a.a.d.a.d.a.a.d.d.a.a.d.a.a.d.a.d.a.a.a.a.a.a.a.a.a.a.a.d.a.a.d.a.a.d.a.a.a.d.a.a.a.a.a.d.a.a.a.a.a.a.a.d.a.a.a.a.a.d.d.a.a.d.a.d.a.a.a.d.a.a.d.a.a.d.a.d.a.a.d.a.a.a.a.d.a.a.a.d.a.a.a.a.a.a.a.a.a.a.a.a.a.a.a.d.a.a.d.a.a.a.a.d.a.a.a.a.a.d.a.a.a.d.a.d.a.a.d.a.a.a.d.a.a.d.a.a.a.a.a.a.a.d.d.a.a.a.a.a.a.a.a.d.a.a.a.a.a.d.a.a.a.a.d.d.a.d.d.a.a.a.a.d.a.a.a.a.a.d.a.a.a.d.a.a.a.a.d.a.a.a.d.a.a.d.a.a.a.a.a.a.a.d.d.a.a.a.a.a.a.a.d.a.a.d.a.a.a.a.a.a.a.a.d.d.a.a.d.a.a.a.a.d.a.a.a.a.a.d.a.a.a.a.a.a.a.a.d.d.a.a.a.a.a.d.a.a.a.a.a.a.a.a.a.a.a.d.a.a.a.a.d.a.a.d.a.a.a.d.a.a.a.a.d.a.a.a.a.a.a.a.a.d.a.a.a.d.a.a.d.a.a.d.a.d.a.a.d.d.a.a.a.a.a.d.a.d.a.a.d.a.a.d.a.a.a.a.a.d.d.a.a.a.a.d.a.a.a.d.a.a.a.a.a.d.a.d.d.a.a.a.a.d.a.a.a.a.a.d.a.a.a.a.a.a.a.a.d.d.a.a.d.a.a.a.a.a.a.a.d.a.a.d.a.a.a.a.a.d.a.a.d.a.a.a.a.a.a.a.a.a.a.a.a.d.a.a.d.a.a.a.a.d.a.a.a.a.a.a.d.a.a.d.a.a.a.a.d.d.a.a.d.a.a.a.a.d.a.a.a.a.a.a.d.a.a.a.a.d.a.a.d.d.a.d.a.a.a.d.a.a.a.a.d.d.a.d.d.a.a.a.a.d.a.d.a.a.a.a.d.a.a.d.a.d.a.a.d.d.a.a.a.a.a.a.a.d.a.a.d.a.a.d.d.a.a.d.a.d.a.a.a.a.a.a.a.a.a.a.a.a.a.a.a.d.a.d.a.a.a.a.a.d.a.a.a.d.a.d.d.a.a.a.a.a.a.a.d.a.a.a.a.a.a.a.a.a.a.a.d.a.a.d.a.a.a.d.a.a.a.a.a.d.a.d.a.a.a.d.a.a.a.a.d.a.a.d.d.a.a.a.a.d.a.a.a.d.a.d.a.a.a.d.a.d.a.a.d.d.a.a.a.a.a.a.a.d.a.a.d.a.a.d.d.a.a.a.a.a.a.a.d.d.a.d.a.a.a.a.a.a.a.a.a.d.a.a.d.a.a.a.a.a.a.a.a.d.a.d.d.a.a.a.a.a.a.a.a.a.a.a.d.a.a.d.a.d.a.a.d.a.a.d.d.a.a.d.a.d.a.a.d.d.a.a.a.a.a.d.a.a.a.a.d.a.a.a.d.a.a.a.a.d.a.a.a.d.a.a.d.a.a.a.a.d.a.a.d.d.a.a.a.a.a.d.a.d.a.a.a.a.a.a.a.a.a.a.a.a.a.a.a.a.a.d.a.a.a.a.a.a.a.a.d.d.a.d.a.a.a.a.a.a.a.a.a.a.a.d.a.a.a.a.a.a.a.a.d.d.b.A.A.a.a.d.a.d.a.a.a.a.a.d.d.a.d.d.a.a.a.a.a.a.a.a.a.a.a.a.a.a.a.a.d.d.a.d.d.a.a.a.a.a.a.a.a.d.a.d.d.a.a.a.a.d.a.d.d.d.a.a.a.a.a.a.a.d.a.a.d.a.a.d.d.a.a.d.d.a.a.A.A.d.a.a.a.a.a.d.d.a.a.d.a.d.a.a.d.d.a.a.a.a.d.a.a.a.a.a.d.a.a.d.d.a.a.d.a.d.a.a.a.d.a.d.a.d.a.A.A.a.a.d.a.d.a.a.R*R.R.r.d.a.a.a.d.a.d.a.a.d.a.a.a.d.a.a.d.a.a.a.a.a.a.a.d.d.a.a.a.a.a.a.a.a.d.a.a.a.a.a.d.a.a.a.a.d.d.a.d.d.a.a.a.a.d.a.a.a.a.a.d.a.a.a.d.a.a.a.a.d.a.a.a.d.a.a.d.a.a.a.a.a.a.a.d.d.a.a.a.a.a.a.a.d.a.a.d.a.a.a.a.a.a.a.a.d.d.a.a.d.a.a.a.a.d.a.a.a.a.a.d.a.a.a.a.a.a.a.a.d.d.a.a.a.a.a.d.a.a.a.a.a.a.a.a.a.a.a.d.a.a.a.a.d.a.a.d.a.a.a.d.a.a.a.a.d.a.a.a.a.a.a.a.a.d.a.a.a.d.a.a.d.a.a.d.a.d.a.a.d.d.a.a.a.a.a.d.a.d.a.a.d.a.a.d.a.a.a.a.a.d.d.a.a.a.a.d.a.a.a.d.a.a.a.a.a.d.a.d.d.a.a.a.a.d.a.a.a.a.a.d.a.a.a.a.a.a.a.a.d.d.a.a.d.a.a.a.a.a.a.a.d.a.a.d.a.a.a.a.a.d.a.a.d.a.a.a.a.a.a.a.a.a.a.a.a.d.a.a.d.a.a.a.a.d.a.a.a.a.a.a.d.a.a.d.a.a.a.a.d.d.a.a.d.a.a.a.a.d.a.a.a.a.a.a.d.a.a.a.a.d.a.a.d.d.a.d.a.a.a.d.a.a.a.a.d.d.a.d.d.a.a.a.a.d.a.d.a.a.a.a.d.a.a.d.a.d.a.a.d.d.a.a.a.a.a.a.a.d.a.a.d.a.a.d.d.a.a.d.a.d.a.a.a.a.a.a.a.a.a.a.a.a.a.a.a.d.a.d.a.a.a.a.a.d.a.a.a.d.a.d.d.a.a.a.a.a.a.a.d.a.a.a.a.a.a.a.a.a.a.a.d.a.a.d.a.a.a.d.a.a.a.a.a.d.a.d.a.a.a.d.a.a.a.a.d.a.a.d.d.a.a.a.a.d.a.a.a.d.a.d.a.a.a.d.a.d.a.a.d.d.a.a.a.a.a.a.a.d.a.a.d.a.a.d.d.a.a.a.a.a.a.a.d.d.a.d.a.a.a.a.a.a.a.a.a.d.a.a.d.a.a.a.a.a.a.a.a.d.a.d.d.a.a.a.a.a.a.a.a.a.a.a.d.a.a.d.a.d.a.a.d.a.a.d.d.a.a.d.a.d.a.a.d.d.a.a.a.a.a.d.a.a.a.a.d.a.a.a.d.a.a.a.a.d.a.a.a.d.a.a.d.a.a.a.a.d.a.a.d.d.a.a.a.a.a.d.a.d.a.a.a.a.a.a.a.a.a.a.a.a.a.a.a.a.a.d.a.a.a.a.a.a.a.a.d.d.a.d.a.a.a.a.a.a.a.a.a.a.a.d.a.a.a.a.a.a.a.a.d.d.a.a.a.a.a.d.a.d.a.a.a.a.a.d.d.a.d.d.a.a.a.a.a.a.a.a.a.a.a.a.a.a.a.a.d.d.a.d.d.a.a.a.a.a.a.a.a.d.a.d.d.a.a.a.a.d.a.d.d.d.a.a.a.a.a.a.a.d.a.a.d.a.a.d.d.a.a.d.d.a.a.A.A.d.a.a.a.a.a.d.d.a.a.d.a.d.a.a.d.d.a.a.a.a.d.a.a.a.a.a.d.a.a.d.d.a.a.d.a.d.a.a.a.d.a.d.a.d.a.A.A.a.a.d.a.d.a.a.d.d.a.a.a.a.a.a.a.a.a.d.d.a.a.d.a.d.a.a.d.d.a.a.d.a.a.a.a.a.a.a.d.a.a.a.a.a.a.a.a.a.a.a.a.d.a.a.a.d.a.a.a.a.a.a.d.d.a.d.d.a.a.a.a.d.a.a.a.a.a.d.d.a.a.d.a.d.a.a.d.d.a.a.d.a.a.d.a.d.a.a.a.a.a.a.a.a.a.a.a.d.a.a.d.a.a.d.a.a.a.d.a.a.a.a.a.d.a.a.a.a.a.a.a.d.a.a.a.a.a.d.d.a.a.d.a.d.a.a.a.d.a.a.d.a.a.d.a.d.a.a.d.a.a.a.a.d.a.a.a.d.a.a.a.a.a.a.a.a.a.a.a.a.a.a.a.d.a.a.d.a.a.a.a.d.a.a.a.R*R.R.D.d.a.a.a.a.a.a.a.a.d.a.a.a.a.a.d.a.a.a.a.d.d.a.d.d.a.a.a.a.d.a.a.a.a.a.d.a.a.a.d.a.a.a.a.d.a.a.a.d.a.a.d.a.a.a.a.a.a.a.d.d.a.a.a.a.a.a.a.d.a.a.d.a.a.a.a.a.a.a.a.d.d.a.a.d.a.a.a.a.d.a.a.a.a.a.d.a.a.a.a.a.a.a.a.d.d.a.a.a.a.a.d.a.a.a.a.a.a.a.a.a.a.a.d.a.a.a.a.d.a.a.d.a.a.a.d.a.a.a.a.d.a.a.a.a.a.a.a.a.d.a.a.a.d.a.a.d.a.a.d.a.d.a.a.d.d.a.a.a.a.a.d.a.d.a.a.d.a.a.d.a.a.a.a.a.d.d.a.a.a.a.d.a.a.a.d.a.a.a.a.a.d.a.d.d.a.a.a.a.d.a.a.a.a.a.d.a.a.a.a.a.a.a.a.d.d.a.a.d.a.a.a.a.a.a.a.d.a.a.d.a.a.a.a.a.d.a.a.d.a.a.a.a.a.a.a.a.a.a.a.a.d.a.a.d.a.a.a.a.d.a.a.a.a.a.a.d.a.a.d.a.a.a.a.d.d.a.a.d.a.a.a.a.d.a.a.a.a.a.a.d.a.a.a.a.d.a.a.d.d.a.d.a.a.a.d.a.a.a.a.d.d.a.d.d.a.a.a.a.d.a.d.a.a.a.a.d.a.a.d.a.d.a.a.d.d.a.a.a.a.a.a.a.d.a.a.d.a.a.d.d.a.a.d.a.d.a.a.a.a.a.a.a.a.a.a.a.a.a.a.a.d.a.d.a.a.a.a.a.d.a.a.a.d.a.d.d.a.a.a.a.a.a.a.d.a.a.a.a.a.a.a.a.a.a.a.d.a.a.d.a.a.a.d.a.a.a.a.a.d.a.d.a.a.a.d.a.a.a.a.d.a.a.d.d.a.a.a.a.d.a.a.a.d.a.d.a.a.a.d.a.d.a.a.d.d.a.a.a.a.a.a.a.d.a.a.d.a.a.d.d.a.a.a.a.a.a.a.d.d.a.d.a.a.a.a.a.a.a.a.a.d.a.a.d.a.a.a.a.a.a.a.a.d.a.d.d.a.a.a.a.a.a.a.a.a.a.a.d.a.a.d.a.d.a.a.d.a.a.d.d.a.a.d.a.d.a.a.d.d.a.a.a.a.a.d.a.a.a.a.d.a.a.a.d.a.a.a.a.d.a.a.a.d.a.a.d.a.a.a.a.d.a.a.d.d.a.a.a.a.a.d.a.d.a.a.a.a.a.a.a.a.a.a.a.a.a.a.a.a.a.d.a.a.a.a.a.a.a.a.d.d.a.d.a.a.a.a.a.a.a.a.a.a.a.d.a.a.a.a.a.a.a.a.d.d.a.a.a.a.a.d.a.d.a.a.a.a.a.d.d.a.d.d.a.a.a.a.a.a.a.a.a.a.a.a.a.a.a.a.d.d.a.d.d.a.a.a.a.a.a.a.a.d.a.d.d.a.a.a.a.d.a.d.d.d.a.a.a.a.a.a.a.d.a.a.d.a.a.d.d.a.a.d.d.a.a.A.A.d.a.a.a.a.a.d.d.a.a.d.a.d.a.a.d.d.a.a.a.a.d.a.a.a.a.a.d.a.a.d.d.a.a.d.a.d.a.a.a.d.a.d.a.d.a.A.A.a.a.d.a.d.a.a.d.d.a.a.a.a.a.a.a.a.a.d.d.a.a.d.a.d.a.a.d.d.a.a.d.a.a.a.a.a.a.a.d.a.a.a.a.a.a.a.a.a.a.a.a.d.a.a.a.d.a.a.a.a.a.a.d.d.a.d.d.a.a.a.a.d.a.a.a.a.a.d.d.a.a.d.a.d.a.a.d.d.a.a.d.a.a.d.a.d.a.a.a.a.a.a.a.a.a.a.a.d.a.a.d.a.a.d.a.a.a.d.a.a.a.a.a.d.a.a.a.a.a.a.a.d.a.a.a.a.a.d.d.a.a.d.a.d.a.a.a.d.a.a.d.a.a.d.a.d.a.a.d.a.a.a.a.d.a.a.a.d.a.a.a.a.a.a.a.a.a.a.a.a.a.a.a.d.a.a.d.a.a.a.a.d.a.a.a.a.a.d.a.a.a.d.a.d.a.a.d.a.a.a.d.a.a.d.a.a.a.a.a.a.R*R.U.A.a.d.d.a.a.d.a.a.a.a.a.a.a.d.a.a.a.a.a.a.a.a.a.a.a.a.d.a.a.a.d.a.a.a.a.a.a.d.d.a.d.d.a.a.a.a.d.a.a.a.a.a.d.d.a.a.d.a.d.a.a.d.d.a.a.d.a.a.d.a.d.a.a.a.a.a.a.a.a.a.a.a.d.a.a.d.a.a.d.a.a.a.d.a.a.a.a.a.d.a.a.a.a.a.a.a.d.a.a.a.a.a.d.d.a.a.d.a.d.a.a.a.d.a.a.d.a.a.d.a.d.a.a.d.a.a.a.a.d.a.a.a.d.a.a.a.a.a.a.a.a.a.a.a.a.a.a.a.d.a.a.d.a.a.a.a.d.a.a.a.a.a.d.a.a.a.d.a.d.a.a.d.a.a.a.d.a.a.d.a.a.a.a.a.a.a.d.d.a.a.a.a.a.a.a.a.d.a.a.a.a.a.d.a.a.a.a.d.d.a.d.d.a.a.a.a.d.a.a.a.a.a.d.a.a.a.d.a.a.a.a.d.a.a.a.d.a.a.d.a.a.a.a.a.a.a.d.d.a.a.a.a.a.a.a.d.a.a.d.a.a.a.a.a.a.a.a.d.d.a.a.d.a.a.a.a.d.a.a.a.a.a.d.a.a.a.a.a.a.a.a.d.d.a.a.a.a.a.d.a.a.a.a.a.a.a.a.a.a.a.d.a.a.a.a.d.a.a.d.a.a.a.d.a.a.a.a.d.a.a.a.a.a.a.a.a.d.a.a.a.d.a.a.d.a.a.d.a.d.a.a.d.d.a.a.a.a.a.d.a.d.a.a.d.a.a.d.a.a.a.a.a.d.d.a.a.a.a.d.a.a.a.d.a.a.a.a.a.d.a.d.d.a.a.a.a.d.a.a.a.a.a.d.a.a.a.a.a.a.a.a.d.d.a.a.d.a.a.a.a.a.a.a.d.a.a.d.a.a.a.a.a.d.a.a.d.a.a.a.a.a.a.a.a.a.a.a.a.d.a.a.d.a.a.a.a.d.a.a.a.a.a.a.d.a.a.d.a.a.a.a.d.d.a.a.d.a.a.a.a.d.a.a.a.a.a.a.d.a.a.a.a.d.a.a.d.d.a.d.a.a.a.d.a.a.a.a.d.d.a.d.d.a.a.a.a.d.a.d.a.a.a.a.d.a.a.d.a.d.a.a.d.d.a.a.a.a.a.a.a.d.a.a.d.a.a.d.d.a.a.d.a.d.a.a.a.a.a.a.a.a.a.a.a.a.a.a.a.d.a.d.a.a.a.a.a.d.a.a.a.d.a.d.d.a.a.a.a.a.a.a.d.a.a.a.a.a.a.a.a.a.a.a.d.a.a.d.a.a.a.d.a.a.a.a.a.d.a.d.a.a.a.d.a.a.a.a.d.a.a.d.d.a.a.a.a.d.a.a.a.d.a.d.a.a.a.d.a.d.a.a.d.d.a.a.a.a.a.a.a.d.a.a.d.a.a.d.d.a.a.a.a.a.a.a.d.d.a.d.a.a.a.a.a.a.a.a.a.d.a.a.d.a.a.a.a.a.a.a.a.d.a.d.d.a.a.a.a.a.a.a.a.a.a.a.d.a.a.d.a.d.a.a.d.a.a.d.d.a.a.d.a.d.a.a.d.d.a.a.a.a.a.d.a.a.a.a.d.a.a.a.d.a.a.a.a.d.a.a.a.d.a.a.d.a.a.a.a.d.a.a.d.d.a.a.a.a.a.d.a.d.a.a.a.a.a.a.a.a.a.a.a.a.a.a.a.a.a.d.a.a.a.a.a.a.a.a.d.d.a.d.a.a.a.a.a.a.a.a.a.a.a.d.a.a.a.a.a.a.a.a.d.d.a.a.a.a.a.d.a.d.a.a.a.a.a.d.d.a.d.d.a.a.a.a.a.a.a.a.a.a.a.a.a.a.a.a.d.d.b.D.D.a.a.a.a.a.a.a.a.d.a.d.d.a.a.a.a.d.a.d.d.d.a.a.a.a.a.a.a.d.a.a.d.a.a.d.d.a.a.d.d.a.a.A.A.d.a.a.a.a.a.d.d.a.a.d.a.d.a.a.d.d.a.a.a.a.d.a.a.a.a.a.d.a.a.d.d.a.a.d.a.d.a.a.a.d.a.d.a.d.a.A.A.a.a.d.a.d.a.a.d.d.a.a.a.a.a.a.a.a.a.d.d.a.a.d.a.R*R.R.A.a.a.a.a.d.a.d.d.a.a.a.a.a.a.a.a.a.a.a.d.a.a.d.a.d.a.a.d.a.a.d.d.a.a.d.a.d.a.a.d.d.a.a.a.a.a.d.a.a.a.a.d.a.a.a.d.a.a.a.a.d.a.a.a.d.a.a.d.a.a.a.a.d.a.a.d.d.a.a.a.a.a.d.a.d.a.a.a.a.a.a.a.a.a.a.a.a.a.a.a.a.a.d.a.a.a.a.a.a.a.a.d.d.a.d.a.a.a.a.a.a.a.a.a.a.a.d.a.a.a.a.a.a.a.a.d.d.a.a.a.a.a.d.a.d.a.a.a.a.a.d.d.a.d.d.a.A.A.a.a.a.a.a.a.a.a.a.a.a.a.a.d.d.a.d.d.a.a.a.a.a.a.a.a.d.a.d.d.a.a.a.a.d.a.d.d.d.a.a.a.a.a.a.a.d.a.a.d.a.a.d.d.a.a.d.d.a.r.r.d.a.a.a.a.a.d.d.a.a.d.a.d.a.a.d.d.a.a.a.a.d.a.a.a.a.A.D.a.a.d.d.a.a.d.a.d.a.a.a.d.a.d.a.d.r.r.a.a.d.a.d.a.a.d.d.a.a.a.a.a.a.a.a.a.d.d.a.a.d.a.d.a.a.d.d.a.a.d.a.a.a.a.a.a.a.d.a.a.a.a.a.a.a.a.a.a.a.a.d.a.a.a.d.a.a.a.a.a.a.d.d.a.d.d.a.a.a.a.d.a.a.a.a.a.d.d.a.a.d.a.d.a.a.d.d.a.a.d.a.a.d.a.d.a.a.a.a.a.a.a.a.a.a.a.d.a.a.d.a.a.d.a.a.a.d.a.a.a.a.a.d.a.a.a.a.a.a.a.d.a.a.a.a.a.d.d.a.a.d.a.d.a.a.a.d.a.a.d.a.a.d.a.d.a.a.d.a.a.a.a.d.a.a.a.d.a.a.a.a.a.a.a.a.a.a.a.a.a.a.a.d.a.a.d.a.a.a.a.d.a.a.a.a.a.d.a.a.a.d.a.d.a.a.d.a.a.a.d.a.a.d.a.a.a.a.a.a.a.d.d.a.a.a.a.a.a.a.a.d.a.a.a.a.a.d.a.a.a.a.d.d.a.d.d.a.a.a.a.d.a.a.a.a.a.d.a.a.a.d.a.a.a.a.d.a.a.a.d.a.a.d.a.a.a.a.a.a.a.d.d.a.a.a.a.a.a.a.d.a.a.d.a.a.a.a.a.a.a.a.d.d.a.a.d.a.a.a.a.d.a.a.a.a.a.d.a.a.a.a.a.a.a.a.d.d.a.a.a.a.a.d.a.a.a.a.a.a.a.a.a.a.a.d.a.a.a.a.d.a.a.d.a.a.a.d.a.a.a.a.d.a.a.a.a.a.a.a.a.d.a.a.a.d.a.a.d.a.a.d.a.d.a.a.d.d.a.a.a.a.a.d.a.d.a.a.d.a.a.d.a.a.a.a.a.d.d.a.a.a.a.d.a.a.a.d.a.a.a.a.a.d.a.d.d.a.a.a.a.d.a.a.a.a.a.d.a.a.a.a.a.a.a.a.d.d.a.a.d.a.a.a.a.a.a.a.d.a.a.d.a.a.a.a.a.d.a.a.d.a.a.a.a.a.a.a.a.a.a.a.a.d.a.a.d.a.a.a.a.d.a.a.a.a.a.a.d.a.a.d.a.a.a.a.d.d.a.a.d.a.a.a.a.d.a.a.a.a.a.a.d.a.a.a.a.d.a.a.d.d.a.d.a.a.a.d.a.a.a.a.d.d.a.d.d.a.a.a.a.d.a.d.a.a.a.a.d.a.a.d.a.d.a.a.d.d.a.a.a.a.a.a.a.d.a.a.d.a.a.d.d.a.a.d.a.d.a.a.a.a.a.a.a.a.a.a.a.a.a.a.a.d.a.d.a.a.a.a.a.d.a.a.a.d.a.d.d.a.a.a.a.a.a.a.d.a.a.a.a.a.a.a.a.a.a.a.d.a.a.d.a.a.a.d.a.a.a.a.a.d.a.d.a.a.a.d.a.a.a.a.d.a.a.d.d.a.a.a.a.d.a.a.a.d.a.d.a.a.a.d.a.d.a.a.d.d.a.a.a.a.a.a.a.d.a.a.d.a.a.d.d.A.A.a.a.a.a.a.d.d.a.d.a.a.a.a.a.a.a.a.a.d.a.a.d.a.a.R*R.R.A.a.d.d.a.a.d.a.d.a.a.d.d.a.a.d.a.a.d.a.d.a.a.a.a.a.a.a.a.a.a.a.d.a.a.d.a.a.d.a.a.a.d.a.a.a.a.a.d.a.a.a.a.a.a.a.d.a.a.a.a.a.d.d.a.a.d.a.d.a.a.a.d.a.a.d.a.a.d.a.d.a.a.d.a.a.a.a.d.a.a.a.d.a.a.a.a.a.a.a.a.a.a.a.a.a.a.a.d.a.a.d.a.a.a.a.d.a.a.a.a.a.d.a.a.a.d.a.d.a.a.d.a.a.a.d.a.a.d.a.a.a.a.a.a.a.d.d.a.a.a.a.a.a.a.a.d.a.a.a.a.a.d.a.a.a.a.d.d.a.d.d.a.a.a.a.d.a.a.a.a.a.d.a.a.a.d.a.a.a.a.d.a.a.a.d.a.a.d.a.a.a.a.a.a.a.d.d.a.a.a.a.a.a.a.d.a.a.d.a.a.a.a.a.a.a.a.d.d.a.a.d.a.a.a.a.d.a.a.a.a.a.d.a.a.a.a.a.a.a.a.d.d.b.A.A.a.a.d.a.a.a.a.a.a.a.a.a.a.a.d.a.a.a.a.d.a.a.d.a.a.a.d.a.a.a.a.d.a.a.a.a.a.a.a.a.d.a.a.a.d.a.a.d.a.a.d.a.d.a.a.d.d.a.a.a.a.a.d.a.d.a.a.d.a.a.d.a.a.a.a.a.d.d.a.a.a.a.d.a.a.a.d.a.a.a.a.a.d.a.d.d.a.a.a.a.d.a.a.a.a.a.d.a.a.a.a.a.a.a.a.d.d.a.a.d.a.a.a.a.a.a.a.d.a.a.d.a.a.a.a.a.d.a.a.d.a.a.a.a.a.a.a.a.a.a.a.a.d.a.a.d.a.a.a.a.d.a.a.a.a.a.a.d.a.a.d.a.a.a.a.d.d.a.a.d.a.a.a.a.d.a.a.a.a.a.a.d.a.a.a.a.d.a.a.d.d.a.d.a.a.a.d.a.a.a.a.d.d.a.d.d.a.a.a.a.d.a.d.a.a.a.a.d.a.a.d.a.d.a.a.d.d.a.a.a.a.a.a.a.d.a.a.d.a.a.d.d.a.a.d.a.d.a.a.a.a.a.a.a.a.a.a.a.a.a.a.a.d.a.d.a.a.a.a.a.d.a.a.a.d.a.d.d.a.a.a.a.a.a.a.d.a.a.a.a.a.a.a.a.a.a.a.d.a.a.d.a.a.a.d.a.a.a.a.a.d.a.d.a.a.a.d.a.a.a.a.d.a.a.d.d.a.a.a.a.d.a.a.a.d.a.d.a.a.a.d.a.d.a.a.d.d.a.a.a.a.a.a.a.d.a.a.d.a.a.d.d.a.a.a.a.a.a.a.d.d.a.d.a.a.a.a.a.a.a.a.a.d.a.a.d.a.a.a.a.a.a.a.a.d.a.d.d.a.a.a.a.a.a.a.a.a.a.a.d.a.a.d.a.d.a.a.d.a.a.d.d.a.a.d.a.d.a.a.d.d.a.a.a.a.a.d.a.a.a.a.d.a.a.a.d.a.a.a.a.d.a.a.a.d.a.a.d.a.a.a.a.d.a.a.d.d.a.a.a.a.a.d.a.d.a.a.a.a.a.a.a.a.a.a.a.a.a.a.a.a.a.d.a.a.a.a.a.a.a.a.d.d.a.d.a.a.a.a.a.a.a.a.a.a.a.d.a.a.a.a.a.a.a.b.u.u.a.a.a.a.a.d.a.d.a.a.a.a.a.d.d.a.d.d.a.a.a.a.a.a.a.a.a.a.a.a.a.a.a.a.d.d.a.d.d.a.a.a.a.a.a.a.a.d.a.d.d.a.a.a.a.d.a.d.d.d.a.a.a.a.a.a.a.d.a.a.d.a.a.d.d.a.a.d.d.a.a.A.A.d.a.a.a.a.a.d.d.a.a.d.a.d.a.a.d.d.a.a.a.a.d.a.a.a.a.a.d.a.a.d.d.a.a.d.a.d.a.a.a.d.a.d.a.d.a.A.A.a.a.d.a.d.a.a.d.d.a.a.a.a.a.a.a.a.a.d.d.a.a.d.a.d.a.a.d.d.a.a.d.a.a.a.a.a.a.a.d.a.a.a.a.a.a.a.a.a.a.a.a.d.a.a.a.d.a.a.a.a.a.a.d.d.a.d.d.a.a.a.a.d.a.a.R*R.R.A.a.a.a.a.a.d.a.a.a.d.a.a.d.a.a.d.a.d.a.a.d.d.a.a.a.a.a.d.a.d.a.a.d.a.a.d.a.a.a.a.a.d.d.a.a.a.a.d.a.a.a.d.a.a.a.a.a.d.a.d.d.a.a.a.a.d.a.a.a.a.a.d.a.a.a.a.a.a.a.a.d.d.a.a.d.a.a.a.a.a.a.a.d.a.a.d.a.a.a.a.a.d.a.a.d.a.a.a.a.a.a.a.a.a.a.a.a.d.a.a.d.a.a.a.a.d.a.a.a.a.a.a.d.a.a.d.a.a.a.a.d.d.a.a.d.a.a.a.a.d.a.a.a.a.a.a.d.a.a.a.a.d.a.a.d.d.a.d.a.a.a.d.a.a.a.a.d.d.a.d.d.a.a.a.a.d.a.d.a.a.a.a.d.a.a.d.a.d.a.a.d.d.a.a.a.a.a.a.a.d.a.a.d.a.a.d.d.a.a.d.a.d.a.a.a.a.a.a.a.a.a.a.a.a.a.a.a.d.a.d.a.a.a.a.a.d.a.a.a.d.a.d.d.a.a.a.a.a.a.a.d.a.a.a.a.a.a.a.a.a.a.a.d.a.a.d.a.a.a.d.a.a.a.a.a.d.a.d.a.a.a.d.a.a.a.a.d.a.a.d.d.a.a.a.a.d.a.a.a.d.a.d.a.a.a.d.a.d.a.a.d.d.a.a.a.a.a.a.a.d.a.a.d.a.a.d.d.a.a.a.a.a.a.a.d.d.a.d.a.a.a.a.a.a.a.a.a.d.a.a.d.a.a.a.a.a.a.a.a.d.a.d.d.a.a.a.a.a.a.a.a.a.a.a.d.a.a.d.a.d.a.a.d.a.a.d.d.a.a.d.a.d.a.a.d.d.a.a.a.a.a.d.a.a.a.a.d.a.a.a.d.a.a.a.a.d.a.a.a.d.a.a.d.a.a.a.a.d.a.a.d.d.a.a.a.a.a.d.a.d.a.a.a.a.a.a.a.a.a.a.a.a.a.a.a.a.a.d.a.a.a.a.a.a.a.a.d.d.a.d.a.a.a.a.a.a.a.a.a.a.a.d.a.a.a.a.a.a.a.a.d.d.a.a.a.a.a.d.a.d.a.a.a.a.a.d.d.a.d.d.a.a.a.a.a.a.a.a.a.a.a.a.a.a.a.a.d.d.a.d.d.a.a.a.a.a.a.a.a.d.a.d.d.a.a.a.a.d.a.d.d.d.a.a.a.a.a.a.a.d.a.a.d.a.a.d.d.a.a.d.d.a.a.A.A.d.a.a.a.a.a.d.d.a.a.d.a.d.a.a.d.d.a.a.a.a.d.a.a.a.a.a.d.a.a.d.d.a.a.d.a.d.a.a.a.d.a.d.a.d.a.A.A.a.a.d.a.d.a.a.d.d.a.a.a.a.a.a.a.a.a.d.d.a.a.d.a.d.a.a.d.d.a.a.d.a.a.a.a.a.a.a.d.a.a.a.a.a.a.a.a.a.a.a.a.d.a.a.a.d.a.a.a.a.a.a.d.d.a.d.d.a.a.a.a.d.a.a.a.a.a.d.d.a.a.d.a.d.a.a.d.d.a.a.d.a.a.d.a.d.a.a.a.a.a.a.a.a.a.a.a.d.a.a.d.a.a.d.a.a.a.d.a.a.a.a.a.d.a.a.a.a.a.a.a.d.a.a.a.a.a.d.d.a.a.d.a.d.a.a.a.d.a.a.d.a.a.d.a.d.a.a.d.a.a.a.a.d.a.a.a.d.a.a.a.a.a.a.a.a.a.a.a.a.a.a.a.d.a.a.d.a.a.a.a.d.a.a.a.a.a.d.a.a.a.d.a.d.a.a.d.a.a.a.d.a.a.d.a.a.a.a.a.a.a.d.d.a.a.a.a.a.a.a.a.d.a.a.a.a.a.d.a.a.a.a.d.d.a.d.d.a.a.a.a.d.a.a.a.a.a.d.a.a.a.d.a.a.a.a.d.a.a.a.d.a.a.d.a.a.a.a.a.a.a.d.d.a.a.a.a.a.a.a.d.a.a.d.a.a.a.a.a.a.a.a.d.d.a.a.d.a.a.a.a.d.a.a.a.a.a.d.a.a.a.a.a.a.a.a.d.d.a.a.a.a.a.d.a.a.a.a.a.a.a.a.a.a.a.d.a.a.a.a.d.a.a.d.a.a.a.d.a.a.a.a.d.a.R*R.R.D.a.d.d.a.a.a.a.a.a.a.a.a.a.a.d.a.a.d.a.d.a.a.d.a.a.d.d.a.a.d.a.d.a.a.d.d.a.a.a.a.a.d.a.a.a.a.d.a.a.a.d.a.a.a.a.d.a.a.a.d.a.a.d.a.a.a.a.d.a.a.d.d.a.a.a.a.a.d.a.d.a.a.a.a.a.a.a.a.a.a.a.a.a.a.a.a.a.d.a.a.a.a.a.a.a.a.d.d.a.d.a.a.a.a.a.a.a.a.a.a.a.d.a.a.a.a.a.a.a.a.d.d.a.a.a.a.a.d.a.d.a.a.a.a.a.d.d.a.d.d.a.a.a.a.a.a.a.a.a.a.a.a.a.a.a.a.d.d.a.d.d.a.a.a.a.a.a.a.a.d.a.d.d.a.a.a.a.d.a.d.d.d.a.a.a.a.a.a.a.d.a.a.d.a.a.d.d.a.a.d.d.a.r.r.d.a.a.a.a.a.d.d.a.a.d.a.d.a.a.d.d.a.a.a.a.d.a.a.a.a.a.d.a.a.d.d.a.a.d.a.d.a.a.a.d.a.d.a.d.r.r.a.a.d.a.d.a.a.d.d.a.a.a.a.a.a.a.a.a.d.d.a.a.d.a.d.a.a.d.d.a.a.d.a.a.a.a.a.a.a.d.a.a.a.a.a.a.a.a.a.a.a.a.d.a.a.a.d.a.a.a.a.a.a.d.d.a.d.d.a.a.a.a.d.a.a.a.a.a.d.d.a.a.d.a.d.a.a.d.d.a.a.d.a.a.d.a.d.a.a.a.a.a.a.a.a.a.a.a.d.a.a.d.a.a.d.a.a.a.d.a.a.a.a.a.d.a.a.a.a.a.a.a.d.a.a.a.a.a.d.d.a.a.d.a.d.a.a.a.d.a.a.d.a.a.d.a.d.a.a.d.a.a.a.a.d.a.a.a.d.a.a.a.a.a.a.a.a.a.a.a.a.a.a.a.d.a.a.d.a.a.a.a.d.a.a.a.a.a.d.a.a.a.d.a.d.a.a.d.a.a.a.d.a.a.d.a.a.a.a.a.a.a.d.d.a.a.a.a.a.a.a.a.d.a.a.a.a.a.d.a.a.a.a.d.d.a.d.d.a.a.a.a.d.a.a.a.a.a.d.a.a.a.d.a.a.a.a.d.a.a.a.d.a.a.d.a.a.a.a.a.a.a.d.d.a.a.a.a.a.a.a.d.a.a.d.a.a.a.a.a.a.a.a.d.d.a.a.d.a.a.a.a.d.a.a.a.a.a.d.a.a.a.a.a.a.a.a.d.d.a.a.a.a.a.d.a.a.a.a.a.a.a.a.a.a.a.d.a.a.a.a.d.a.a.d.a.a.a.d.a.a.a.a.d.a.a.a.a.a.a.a.a.d.a.a.a.d.a.a.d.a.a.d.a.d.a.a.d.d.a.a.a.a.a.d.a.d.a.a.d.a.a.d.a.a.a.a.a.d.d.a.a.a.a.d.a.a.a.d.a.a.a.a.a.d.a.d.d.a.a.a.a.d.a.a.a.a.a.d.a.a.a.a.a.a.a.a.d.d.a.a.d.a.a.a.a.a.a.a.d.a.a.d.a.a.a.a.a.d.a.a.d.a.a.a.a.a.a.a.a.a.a.a.a.d.a.a.d.a.a.a.a.d.a.a.a.a.a.a.d.a.a.d.a.a.a.a.d.d.a.a.d.a.a.a.a.d.a.a.a.a.a.a.d.a.a.a.a.d.a.a.d.d.a.d.a.a.a.d.a.a.a.a.d.d.a.d.d.a.a.a.a.d.a.d.a.a.a.a.d.a.a.d.a.d.a.a.d.d.a.a.a.a.a.a.a.d.a.a.d.a.a.d.d.a.a.d.a.d.a.a.a.a.a.a.a.a.a.a.a.a.a.a.a.d.a.d.a.a.a.a.a.d.a.a.a.d.a.d.d.a.a.a.a.a.a.a.d.a.a.a.a.a.a.a.a.a.a.a.d.a.a.d.a.a.a.d.a.a.a.a.a.d.a.d.a.a.a.d.a.a.a.a.d.a.a.d.d.a.a.a.a.d.a.a.a.d.a.d.a.a.a.d.a.d.a.a.d.d.a.a.a.a.a.a.a.d.a.a.d.a.a.d.d.a.a.a.a.a.a.a.d.d.a.d.a.a.a.a.a.a.a.a.a.d.a.a.d.a.a.a.a.a.a.a.R*R.R.A.a.d.a.a.a.a.d.d.a.d.d.a.a.a.a.d.a.d.a.a.a.a.d.a.a.d.a.d.a.a.d.d.a.a.a.a.a.a.a.d.a.a.d.a.a.d.d.a.a.d.a.d.a.a.a.a.a.a.a.a.a.a.a.a.a.a.a.d.a.d.a.a.a.a.a.d.a.a.a.d.a.d.d.a.a.a.a.a.a.a.d.a.a.a.a.a.a.a.a.a.a.a.d.e.S,r.R,R.d.a.a.d.d.a.a.a.a.d.a.a.a.d.a.d.a.a.a.d.a.d.a.a.d.d.a.a.a.a.a.a.a.d.a.a.d.a.a.d.d.a.a.a.a.a.a.a.d.d.a.d.a.a.a.a.a.a.a.a.a.d.a.a.d.a.a.a.a.a.a.a.a.d.a.d.d.a.a.a.a.a.a.a.a.a.a.a.d.a.a.d.a.d.a.a.d.a.a.d.d.a.a.d.a.d.a.a.d.d.a.a.a.a.a.d.a.a.a.a.d.a.a.a.d.a.a.a.a.d.a.a.a.d.a.a.d.a.a.a.a.d.a.a.d.d.a.a.a.a.a.d.a.d.a.a.a.a.a.a.a.a.a.a.a.a.a.a.a.a.a.d.a.a.a.a.a.a.a.a.d.d.a.d.a.a.a.a.a.a.a.a.a.a.a.d.a.a.a.a.a.a.a.a.d.d.a.a.a.a.a.d.a.d.a.a.a.a.a.d.d.a.d.d.a.a.a.a.a.a.a.a.a.a.a.a.a.a.a.a.d.d.a.d.d.a.a.a.a.a.a.a.a.d.a.d.d.a.a.a.a.d.a.d.d.d.a.a.a.a.a.a.a.d.a.a.d.a.a.d.d.a.a.d.d.a.a.A.A.d.a.a.a.a.a.d.d.a.a.d.a.d.a.a.d.d.a.a.a.a.d.a.a.a.a.a.d.a.a.d.d.a.a.d.a.d.a.a.a.d.a.d.a.d.a.A.A.a.a.d.a.d.a.a.d.d.a.a.a.a.a.a.a.a.a.d.d.a.a.d.a.d.a.a.d.d.a.a.d.a.a.a.a.a.a.a.d.a.a.a.a.a.a.a.a.a.a.a.a.d.a.a.a.d.a.a.a.a.a.a.d.d.a.d.d.a.a.a.a.d.a.a.a.a.a.d.d.a.a.d.a.d.a.a.d.d.a.a.d.a.a.d.a.d.a.a.a.a.a.a.a.a.a.a.a.d.a.a.d.a.a.d.a.a.a.d.a.a.a.a.a.d.a.a.a.a.a.a.a.d.a.a.a.a.a.d.d.a.a.d.a.d.a.a.a.d.a.a.d.a.a.d.a.d.a.a.d.a.a.a.a.d.a.a.a.d.a.a.a.a.a.a.a.a.a.a.a.a.a.a.a.d.a.a.d.a.a.a.a.d.a.a.a.a.a.d.a.a.a.d.a.d.a.a.d.a.a.a.d.a.a.d.a.a.a.a.a.a.a.d.d.a.a.a.a.a.a.a.a.d.a.a.a.a.a.d.a.a.a.a.d.d.a.d.d.a.a.a.a.d.a.a.a.a.a.d.a.a.a.d.a.a.a.a.d.a.a.a.d.a.a.d.a.a.a.a.a.a.a.d.d.a.a.a.a.a.a.a.d.a.a.d.a.a.a.a.a.a.a.a.d.d.a.a.d.a.a.a.a.d.a.a.a.a.a.d.a.a.a.a.a.a.a.a.d.d.a.a.a.a.a.d.a.a.a.a.a.a.a.a.a.a.a.d.a.a.a.a.d.a.a.d.a.a.a.d.a.a.a.a.d.a.a.a.a.a.a.a.a.d.a.a.a.d.a.a.d.a.a.d.a.d.a.a.d.d.a.a.a.a.a.d.a.d.a.a.d.a.a.d.a.a.a.a.a.d.d.a.a.a.a.d.a.a.a.d.a.a.a.a.a.d.a.d.d.a.a.a.a.d.a.a.a.a.a.d.a.a.a.a.a.a.a.a.d.d.a.a.d.a.a.a.a.a.a.a.d.a.a.d.a.a.a.a.a.d.a.a.d.a.a.a.a.a.a.a.a.a.a.a.a.d.a.a.d.a.a.a.a.d.a.a.a.a.a.a.d.a.a.d.a.a.a.a.d.d.a.a.d.a.a.a.a.d.a.a.a.a.a.a.d.a.a.a.a.d.a.a.d.d.a.d.R*R.R.A.d.a.a.a.a.a.a.a.a.d.d.a.a.a.a.a.d.a.a.a.a.a.a.a.a.a.a.a.d.a.a.a.a.d.a.a.d.a.a.a.d.a.a.a.a.d.a.a.a.a.a.a.a.a.d.a.a.a.d.a.a.d.a.a.d.a.d.a.a.d.d.a.a.a.a.a.d.a.d.a.a.d.a.a.d.a.a.a.a.a.d.d.a.a.a.a.d.a.a.a.d.a.a.a.a.a.d.a.d.d.a.a.a.a.d.a.a.a.a.a.d.a.a.a.a.a.a.a.a.d.d.a.a.d.a.a.a.a.a.a.a.d.a.a.d.a.a.a.a.a.d.a.a.d.a.a.a.a.a.a.a.a.a.a.a.a.d.a.a.d.a.a.a.a.d.a.a.a.a.a.a.d.a.a.d.a.a.a.a.d.d.a.a.d.a.a.a.a.d.a.a.a.a.a.a.d.a.a.a.a.d.a.a.d.d.a.d.a.a.a.d.a.a.a.a.d.d.a.d.d.a.a.a.a.d.a.d.a.a.a.a.d.a.a.d.a.d.a.a.d.d.a.a.a.a.a.a.a.d.a.a.d.a.a.d.d.a.a.d.a.d.a.a.a.a.a.a.a.a.a.a.a.a.a.a.a.d.a.d.a.a.a.a.a.d.a.a.a.d.a.d.d.a.a.a.a.a.a.a.d.a.a.a.a.a.a.a.a.a.a.a.d.a.a.d.a.a.a.d.a.a.a.a.a.d.a.d.a.a.a.d.a.a.a.a.d.a.a.d.d.a.a.a.a.d.a.a.a.d.a.d.a.a.a.e.A.D.a.a.d.d.a.a.a.a.a.a.a.d.a.a.d.a.a.d.d.a.a.a.a.a.a.a.d.d.a.d.a.a.a.a.a.a.a.a.a.d.a.a.d.a.a.a.a.a.a.a.a.d.a.d.d.a.a.a.a.a.a.a.a.a.a.a.d.a.a.d.a.d.a.a.d.a.a.d.d.a.a.d.a.d.a.a.d.d.a.a.a.a.a.d.a.a.a.a.d.a.a.a.d.a.b.R,R.d.a.a.a.d.a.a.d.a.a.a.a.d.a.a.d.d.a.a.a.a.a.d.a.d.a.a.a.a.a.a.a.a.a.a.a.a.a.a.a.a.a.d.a.a.a.a.a.a.a.a.d.d.a.d.a.a.a.a.a.a.a.a.a.a.a.d.a.a.a.a.a.a.a.a.d.d.a.a.a.a.a.d.a.d.a.a.a.a.a.d.d.a.d.d.a.a.a.a.a.a.a.a.a.a.a.a.a.a.a.a.d.d.a.d.d.a.a.a.a.a.a.a.a.d.a.d.d.a.a.a.a.d.a.d.d.d.a.a.a.a.a.a.a.d.a.a.d.a.a.d.d.a.a.d.d.a.a.A.A.d.a.a.a.a.a.d.d.a.a.d.a.d.a.a.d.d.a.a.a.a.d.a.a.a.a.a.d.a.a.d.d.a.a.d.a.d.a.a.a.d.a.d.a.d.a.A.A.a.a.d.a.d.a.a.d.d.a.a.a.a.a.a.a.a.a.d.d.a.a.d.a.d.a.a.d.d.a.a.d.a.a.a.a.a.a.a.d.a.a.a.a.a.a.a.a.a.a.a.a.d.a.a.a.d.a.a.a.a.a.a.d.d.a.d.d.a.a.a.a.d.a.a.a.a.a.d.d.a.a.d.a.d.a.a.d.d.a.a.d.a.a.d.a.d.a.a.a.a.a.a.a.a.a.a.a.d.a.a.d.a.a.d.a.a.a.d.a.a.a.a.a.d.a.a.a.a.a.a.a.d.a.a.a.a.a.d.d.a.a.d.a.d.a.a.a.d.a.a.d.a.a.d.a.d.a.a.d.a.b.A.A.d.a.a.b.D.A.a.a.a.a.a.a.a.a.a.a.a.a.a.a.d.a.a.d.a.a.a.a.d.a.a.a.a.a.d.a.a.a.d.a.d.a.a.d.a.a.a.d.a.a.d.a.a.a.a.a.a.a.d.d.a.a.a.a.a.a.a.a.d.a.a.a.a.a.d.a.a.a.b.u.u.a.d.d.a.a.a.a.d.a.a.a.a.a.d.a.a.a.d.a.a.a.a.d.a.b.A.D.a.a.d.a.a.a.a.a.a.a.d.d.a.a.a.a.a.a.a.d.a.a.d.a.a.a.a.a.a.a.a.d.d.a.a.d.a.a.a.a.d.a.a.a.R*R.R.r.d.a.d.a.a.a.a.a.d.a.b.A.D.a.d.d.a.a.a.a.a.a.a.d.a.a.a.a.a.a.a.a.a.a.a.d.a.a.d.a.a.a.d.a.a.a.a.a.d.a.d.a.a.a.d.a.a.a.a.d.a.a.d.d.a.a.a.a.d.a.a.a.d.a.d.a.a.a.d.a.d.a.a.d.d.a.a.a.a.a.a.a.d.a.a.d.a.a.d.d.a.a.a.a.a.a.a.d.d.a.d.a.a.a.a.a.a.a.a.a.d.a.a.d.a.a.a.a.a.a.a.a.d.a.d.d.a.a.a.a.a.a.a.a.a.a.a.d.a.a.d.a.d.a.a.d.a.a.d.d.a.a.d.a.d.a.a.d.d.a.a.a.a.a.d.a.a.a.a.d.a.a.a.d.a.a.a.a.d.a.a.a.d.a.a.d.a.a.a.a.d.a.a.d.d.a.a.a.a.a.d.a.d.a.a.a.a.a.a.a.a.a.a.a.a.a.a.a.a.a.d.a.a.a.a.a.a.a.a.d.d.a.d.a.a.a.a.a.a.a.a.a.a.a.d.a.a.a.a.a.a.a.a.d.d.a.a.a.a.a.d.a.d.a.a.a.a.a.d.d.a.d.d.a.a.a.a.a.a.a.a.a.a.a.a.a.a.a.a.d.d.a.d.d.a.a.a.a.a.a.a.a.d.a.d.d.a.a.a.a.d.a.d.d.d.a.a.a.a.a.a.a.d.a.a.d.a.a.d.d.a.a.d.d.a.a.A.A.d.a.a.a.a.a.d.d.a.a.d.a.d.a.a.d.d.a.a.a.a.d.a.a.a.a.a.d.a.a.d.d.a.a.d.a.d.a.a.a.d.a.d.a.d.a.r.r.a.a.d.a.d.a.a.d.d.a.a.a.a.a.a.a.a.a.d.d.a.a.d.a.d.a.a.d.d.a.a.d.a.a.a.a.a.a.a.d.a.a.a.a.a.a.a.a.a.a.a.a.d.a.a.a.d.a.a.a.a.a.a.d.d.a.d.d.a.a.a.a.d.a.a.a.a.a.d.d.a.a.d.a.d.a.a.d.d.a.a.d.a.a.d.a.d.a.a.a.a.a.a.a.a.a.a.a.d.a.a.d.a.a.d.a.a.a.d.a.a.a.a.a.d.a.a.a.a.a.a.a.d.a.a.a.a.a.d.d.a.a.d.a.d.a.a.a.d.a.a.d.a.a.d.a.d.a.a.d.a.a.a.a.d.a.a.a.d.a.a.a.a.a.a.a.a.a.a.a.a.a.a.a.d.a.a.d.a.a.a.a.d.a.a.a.a.a.d.a.a.a.d.a.d.a.a.d.a.a.a.d.a.a.d.a.a.a.a.a.a.a.d.d.a.a.a.a.a.a.a.a.d.a.a.a.a.a.d.a.a.a.a.d.d.a.d.d.a.a.a.a.d.a.a.a.a.a.d.a.a.a.d.a.a.a.a.d.a.a.a.d.a.a.d.a.a.a.a.a.a.a.d.d.a.a.a.a.a.a.a.d.a.a.d.a.a.a.a.a.a.a.a.d.d.a.a.d.a.a.a.a.d.a.a.a.a.a.d.a.a.a.a.a.a.a.a.d.d.a.a.a.a.a.d.a.a.a.a.a.a.a.a.a.a.a.d.a.a.a.a.d.a.a.d.a.a.a.d.a.a.a.a.d.a.a.a.a.a.a.a.a.d.a.a.a.d.a.a.d.a.a.d.a.d.a.a.d.d.a.a.a.a.a.d.a.d.a.a.d.a.a.d.a.a.a.a.a.d.d.a.a.a.a.d.a.a.a.d.a.a.a.a.a.d.a.d.d.a.a.a.a.d.a.a.a.a.a.d.a.a.a.a.a.a.a.a.d.d.a.a.d.a.a.a.a.a.a.a.d.a.a.d.a.a.a.a.a.d.a.a.d.a.a.a.a.a.a.a.a.a.a.a.a.d.a.a.d.a.a.a.a.d.a.a.a.a.a.a.d.a.a.d.a.a.a.a.d.d.a.a.d.a.a.a.a.d.a.a.a.a.a.a.d.a.a.a.a.d.a.a.d.d.a.d.a.a.a.d.a.a.a.a.d.d.a.d.d.a.a.a.a.d.a.d.a.a.a.a.d.a.a.d.a.d.a.a.d.d.a.a.a.a.a.a.a.d.a.a.d.a.a.d.d.a.a.d.a.d.a.a.a.a.a.a.a.a.a.a.a.a.a.R*R.R.A.d.a.a.a.a.a.a.a.a.a.a.a.d.a.a.a.a.d.a.a.d.a.a.a.d.a.a.a.a.d.a.a.a.a.a.a.a.a.d.a.a.a.d.a.a.d.a.a.d.a.d.a.a.d.d.a.a.a.a.a.d.a.d.a.a.d.a.a.d.a.a.a.a.a.d.d.a.a.a.a.d.a.a.a.d.a.a.a.a.a.d.a.d.d.a.a.a.a.d.a.a.a.a.a.d.a.a.a.a.a.a.a.a.d.d.a.a.d.a.a.a.a.a.a.a.d.a.a.d.a.a.a.a.a.d.a.a.d.a.a.a.a.a.a.a.a.a.a.a.a.d.a.a.d.a.a.a.a.d.a.a.a.a.a.a.d.a.a.d.a.a.a.a.d.d.a.a.d.a.a.a.a.d.a.a.a.a.a.a.d.a.a.a.a.d.a.a.d.d.a.d.a.a.a.d.a.a.a.a.d.d.a.d.d.a.a.a.a.d.a.d.a.a.a.a.d.a.a.d.a.d.a.a.d.d.a.a.a.a.a.a.a.d.a.a.d.a.a.d.d.a.a.d.a.d.a.a.a.a.a.a.a.a.a.a.a.a.a.a.a.d.a.d.a.a.a.a.a.d.a.a.a.d.a.d.d.a.a.a.a.a.a.a.d.a.a.a.a.a.a.a.a.a.a.a.d.a.a.d.a.a.a.d.a.a.a.a.a.d.a.d.a.a.a.d.a.a.a.a.d.a.a.d.d.a.a.a.a.d.a.a.a.d.a.d.a.a.a.d.a.d.a.a.d.d.a.a.a.a.a.a.a.d.a.a.d.a.a.d.d.a.a.a.a.a.a.a.d.d.a.d.a.a.a.a.a.a.a.a.a.d.a.a.d.a.a.a.a.a.a.a.a.d.a.d.d.a.a.a.a.a.a.b.A.A.a.a.d.a.a.d.a.d.a.a.d.a.a.d.d.a.a.d.a.d.a.a.d.d.a.a.a.a.a.d.a.a.a.a.d.a.a.a.d.a.a.a.a.d.a.a.a.d.a.a.d.a.a.a.a.d.a.a.d.d.a.a.a.a.a.d.a.d.a.a.a.a.a.a.a.a.a.a.a.a.a.a.a.a.a.d.a.a.a.a.a.a.a.a.d.d.a.d.a.a.a.a.a.a.a.a.a.a.a.d.a.a.a.a.a.a.a.a.d.d.a.a.a.a.a.d.a.d.a.a.a.a.a.d.d.a.d.d.a.a.a.a.a.a.a.a.a.a.a.a.a.a.a.a.d.d.a.d.d.a.a.a.a.a.a.a.a.d.a.d.d.a.a.a.a.d.a.d.d.d.a.a.a.a.a.a.a.d.a.a.d.a.a.d.d.a.a.d.d.a.a.A.A.d.a.a.a.a.a.d.d.a.a.d.a.d.a.a.d.d.a.a.a.a.d.a.a.a.a.a.d.a.a.d.d.a.a.d.a.d.a.a.a.d.a.d.a.d.a.A.A.a.a.d.a.d.a.a.d.d.a.a.a.a.a.a.a.a.a.d.d.a.a.d.a.d.a.a.d.d.a.a.d.a.a.a.a.a.a.a.d.a.a.a.a.a.a.a.a.a.a.a.a.d.a.a.a.d.a.a.a.a.a.a.d.d.a.d.d.a.a.a.a.d.a.a.a.a.a.d.d.a.a.d.a.d.a.a.d.d.a.a.d.a.a.d.a.d.a.a.a.a.a.a.a.a.a.a.a.d.a.a.d.a.a.d.a.a.a.d.a.a.a.a.a.d.a.a.a.a.a.a.a.d.a.a.a.a.a.d.d.a.a.d.a.d.a.a.a.d.a.a.d.a.a.d.a.d.a.a.d.a.a.a.a.d.a.a.a.d.a.a.a.a.a.a.a.a.a.a.a.a.a.a.a.d.a.a.d.a.a.a.a.d.a.a.a.a.a.d.a.a.a.d.a.d.a.a.d.a.a.a.d.a.a.d.a.a.a.a.a.a.a.d.d.a.a.a.a.a.a.a.a.d.a.a.a.a.a.d.a.a.a.a.d.d.a.d.d.a.a.a.a.d.a.a.a.a.a.d.a.a.a.d.a.a.a.a.d.a.a.a.d.a.a.d.a.a.a.a.a.a.a.d.d.a.a.a.a.a.a.a.d.a.a.d.a.a.a.a.a.a.a.a.d.d.a.a.d.a.a.a.a.d.a.a.a.a.a.d.a.a.a.a.a.a.a.a.d.d.a.a.a.R*R.U.D.a.a.d.a.a.a.a.a.a.a.d.a.a.d.a.a.a.a.a.d.a.a.d.a.a.a.a.a.a.a.a.a.a.a.a.d.a.a.d.a.a.a.a.d.a.a.a.a.a.a.d.a.a.d.a.a.a.a.d.d.a.a.d.a.a.a.a.d.a.a.a.a.a.a.d.a.a.a.a.d.a.a.d.d.a.d.a.a.a.d.a.a.a.a.d.d.a.d.d.a.a.a.a.d.a.d.a.a.a.a.d.a.a.d.a.d.a.a.d.d.a.a.a.a.a.a.a.d.a.a.d.a.a.d.d.a.a.d.a.d.a.a.a.a.a.a.a.a.a.a.a.a.a.a.a.d.a.d.a.a.a.a.a.d.a.a.a.d.a.d.d.a.a.a.a.a.a.a.d.a.a.a.a.a.a.a.a.a.a.a.d.a.a.d.a.a.a.d.a.a.a.a.a.d.a.d.a.a.a.d.a.a.a.a.d.a.a.d.d.a.a.a.a.d.a.a.a.d.a.d.a.a.a.d.a.d.a.a.d.d.a.a.a.a.a.a.a.d.a.a.d.a.a.d.d.a.a.a.a.a.a.a.d.d.a.d.a.a.a.a.a.a.a.a.a.d.a.a.d.a.a.a.a.a.a.a.a.d.a.d.d.a.a.a.a.a.a.a.a.a.a.a.d.a.a.d.a.d.a.a.d.a.a.d.d.a.a.d.a.d.a.a.d.d.a.a.a.a.a.d.a.a.a.a.d.a.a.a.d.a.a.a.a.d.a.a.a.d.a.a.d.a.a.a.a.d.a.a.d.d.a.a.a.a.a.d.a.d.a.a.a.a.a.a.a.a.a.a.a.a.a.a.a.a.a.d.a.a.a.a.a.a.a.a.d.d.a.d.a.a.a.a.a.a.a.a.a.a.a.d.a.a.a.a.a.a.a.a.d.d.a.a.a.a.a.d.a.d.a.a.a.a.a.d.d.a.d.d.a.a.a.a.a.a.a.a.a.a.a.a.a.a.a.a.d.d.a.d.d.a.a.a.a.a.a.a.a.d.a.d.d.a.a.a.a.d.a.d.d.d.a.a.a.a.a.a.a.d.a.a.d.a.a.d.d.a.a.d.d.a.a.A.A.d.a.a.a.a.a.d.d.a.a.d.a.d.a.a.d.d.a.a.a.a.d.a.a.a.a.a.d.a.a.d.d.a.a.d.a.d.a.a.a.d.a.d.a.d.a.A.A.a.a.d.a.d.a.A.D.d.a.a.a.a.a.a.a.a.a.d.d.a.a.d.a.D.A.a.d.d.a.a.d.a.a.a.a.a.a.a.d.a.a.a.a.a.a.a.a.a.a.a.a.d.a.a.a.d.a.a.a.a.a.a.d.d.a.d.d.a.a.a.a.d.a.a.a.a.a.d.d.a.a.d.a.d.a.a.d.d.a.a.d.a.a.d.a.d.a.a.a.a.a.a.a.a.a.a.a.d.a.a.d.a.a.d.a.a.a.d.a.a.a.a.a.d.a.a.a.a.a.a.a.d.a.a.a.a.a.d.d.a.a.d.a.d.a.a.a.d.a.a.d.a.a.d.a.d.a.a.d.a.a.a.a.d.a.a.a.d.a.a.a.a.a.a.a.a.a.a.a.a.a.a.a.d.a.a.d.a.a.a.a.d.a.a.a.a.a.d.a.a.a.d.a.d.a.a.d.a.a.a.d.a.a.d.a.a.a.a.a.a.a.d.d.a.a.a.a.a.a.a.a.d.a.a.a.a.a.d.a.a.a.a.d.d.a.d.d.a.a.a.a.d.a.a.a.a.a.d.a.a.a.d.a.a.a.a.d.a.a.a.d.a.a.d.a.a.a.a.a.a.a.d.d.a.a.a.a.a.a.a.d.a.a.d.a.a.a.a.a.a.a.a.d.d.a.a.d.a.a.a.a.d.a.a.a.a.a.d.a.a.a.a.a.a.a.a.d.d.a.a.a.a.a.d.a.a.a.a.a.a.a.a.a.a.a.d.a.a.a.a.d.a.a.d.a.a.a.d.a.a.a.a.d.a.a.a.a.a.a.a.a.d.a.a.a.d.a.a.d.a.a.d.a.d.a.a.d.d.a.a.a.a.a.d.a.d.a.a.d.a.a.d.a.a.a.a.a.d.d.a.a.a.a.d.a.a.a.d.a.a.a.a.a.d.a.d.d.a.a.a.a.d.a.a.a.a.a.d.a.a.a.a.a.a.a.a.R*R.R.r.a.a.a.a.d.d.a.a.a.a.a.d.a.d.a.a.a.a.a.d.d.a.d.d.a.a.a.a.a.a.a.a.a.a.a.a.a.a.a.a.d.d.a.d.d.a.a.a.a.a.a.a.a.d.a.d.d.a.a.a.a.d.a.d.d.d.a.a.a.a.a.a.a.d.a.a.d.a.a.d.d.a.a.d.d.a.r.r.d.a.a.a.a.a.d.d.a.a.d.a.d.a.a.d.d.a.a.a.a.d.a.a.a.a.a.d.a.a.d.d.a.a.d.a.d.a.a.a.d.a.d.a.d.r.r.a.a.d.a.d.a.a.d.d.a.a.a.a.a.a.a.a.a.d.d.a.a.d.a.d.a.a.d.d.a.a.d.a.a.a.a.a.a.a.d.a.a.a.a.a.a.a.a.a.a.a.a.d.a.a.a.d.a.a.a.a.a.a.d.d.a.d.d.a.a.a.a.d.a.a.a.a.a.d.d.a.a.d.a.d.a.a.d.d.a.a.d.a.a.d.a.d.a.a.a.a.a.a.a.a.a.a.a.d.a.a.d.a.a.d.a.a.a.d.a.a.a.a.a.d.a.a.a.a.a.a.a.d.a.a.a.a.a.d.d.a.a.d.a.d.a.a.a.d.a.a.d.a.a.d.a.d.a.a.d.a.a.a.a.d.a.a.a.d.a.a.a.a.a.a.a.a.a.a.a.a.a.a.a.d.a.a.d.a.a.a.a.d.a.a.a.a.a.d.a.a.a.d.a.d.a.a.d.a.a.a.d.a.a.d.a.a.a.a.a.a.a.d.d.a.a.a.a.a.a.a.a.d.a.a.a.a.a.d.a.a.a.a.d.d.a.d.d.a.a.a.a.d.a.a.a.a.a.d.a.a.a.d.a.a.a.a.d.a.a.a.d.a.a.d.a.a.a.a.a.a.a.d.d.a.a.a.a.a.a.a.d.a.a.d.a.a.a.a.a.a.a.a.d.d.a.a.d.a.a.a.a.d.a.a.a.a.a.d.a.a.a.a.a.a.a.a.d.d.a.a.a.a.a.d.a.a.a.a.a.a.a.a.a.a.a.d.a.a.a.a.d.a.a.d.a.a.a.d.a.a.a.a.d.a.a.a.a.a.a.a.a.d.a.a.a.d.a.a.d.a.a.d.a.d.a.a.d.d.a.a.a.a.a.d.a.d.a.a.d.a.a.d.a.a.a.a.a.d.d.a.a.a.a.d.a.a.a.d.a.a.a.a.a.d.a.d.d.a.a.a.a.d.a.a.a.a.a.d.a.a.a.a.a.a.a.a.d.d.a.a.d.a.a.a.a.a.a.a.d.a.a.d.a.a.a.a.a.d.a.a.d.a.a.a.a.a.a.a.a.A.A.a.a.d.a.a.d.a.a.a.a.d.a.a.a.a.a.a.d.a.a.d.a.a.a.a.d.d.a.a.d.a.a.a.a.d.a.a.a.a.a.a.d.a.a.a.a.d.a.a.d.d.b.D.A.a.a.d.a.a.a.a.d.d.a.d.d.a.a.a.a.d.a.d.a.a.a.a.d.a.a.d.a.d.a.a.d.d.a.a.a.a.a.a.a.d.a.a.d.a.a.d.d.a.a.d.a.d.a.a.a.a.a.a.a.a.a.a.a.a.a.a.a.d.a.d.a.a.a.a.a.d.a.b.A.D.a.d.d.a.a.a.a.a.a.a.d.a.a.a.a.a.a.a.a.a.a.a.d.a.a.d.a.a.a.d.a.a.a.a.a.d.a.d.a.a.a.d.a.a.a.a.d.a.a.d.d.a.a.a.a.d.a.a.a.d.a.d.a.a.a.d.a.d.a.a.d.d.a.a.a.a.a.a.a.d.a.a.d.a.a.d.d.a.a.a.a.a.a.a.d.d.a.D.A.a.a.a.a.a.a.a.a.d.a.a.d.a.a.a.a.a.a.a.a.d.a.d.d.a.a.a.a.a.a.a.a.a.a.a.d.a.a.d.a.d.a.a.d.a.a.d.d.a.a.d.a.d.a.a.d.d.a.a.a.a.a.d.a.a.a.a.d.a.a.a.d.a.a.a.a.d.a.a.a.d.a.a.d.a.a.a.a.d.a.a.d.d.a.a.a.a.a.d.a.d.a.a.a.a.a.a.a.a.a.a.b.A.A.a.a.a.a.d.a.a.a.a.a.a.a.a.d.d.a.d.a.a.a.a.a.a.a.a.a.a.a.d.a.a.R*R.R.r.a.a.d.a.a.a.d.a.a.a.a.d.a.a.a.d.a.a.d.a.a.a.a.a.a.a.d.d.a.a.a.a.a.a.a.d.a.a.d.a.a.a.a.a.a.a.a.d.d.a.a.d.a.a.a.a.d.a.a.a.a.a.d.a.a.a.a.a.a.a.a.d.d.a.a.a.a.a.d.a.a.a.a.a.a.a.a.a.a.a.d.a.a.a.a.d.a.a.d.a.a.a.d.a.a.a.a.d.a.a.a.a.a.a.a.a.d.a.a.a.d.a.a.d.a.a.d.a.d.a.a.d.d.a.a.a.a.a.d.a.d.a.a.d.a.a.d.a.a.a.a.a.d.d.a.a.a.a.d.a.a.a.d.a.a.a.a.a.d.a.d.d.a.a.a.a.d.a.a.a.a.a.d.a.a.a.a.a.a.a.a.d.d.a.a.d.a.a.a.a.a.a.a.d.a.a.d.a.a.a.a.a.d.a.a.d.a.a.a.a.a.a.a.a.a.a.a.a.d.a.a.d.a.a.a.a.d.a.a.a.a.a.a.d.a.a.d.a.a.a.a.d.d.a.a.d.a.a.a.a.d.a.a.a.a.a.a.d.a.a.a.a.d.a.a.d.d.a.d.a.a.a.d.a.a.a.a.d.d.a.d.d.a.a.a.a.d.a.d.a.a.a.a.d.a.a.d.a.d.a.a.d.d.a.a.a.a.a.a.a.d.a.a.d.a.a.d.d.a.a.d.a.d.a.a.a.a.a.a.a.a.a.a.a.a.a.a.a.d.a.d.a.a.a.a.a.d.a.a.a.d.a.d.d.a.a.a.a.a.a.a.d.a.a.a.a.a.a.a.a.a.a.a.d.a.a.d.a.a.a.d.a.a.a.a.a.d.a.d.a.a.a.d.a.a.a.a.d.a.a.d.d.a.a.a.a.d.a.a.a.d.a.d.a.a.a.d.a.d.a.a.d.d.a.a.a.a.a.a.a.d.a.a.d.a.a.d.d.a.a.a.a.a.a.a.d.d.a.d.a.a.a.a.a.a.a.a.a.d.a.a.d.a.a.a.a.a.a.a.a.d.a.d.d.a.a.a.a.a.a.a.a.a.a.a.d.a.a.d.a.d.a.a.d.a.a.d.d.a.a.d.a.d.a.a.d.d.a.a.a.a.a.d.a.a.a.a.d.a.a.a.d.a.a.a.a.d.a.a.a.d.a.a.d.a.a.a.a.d.a.a.d.d.a.a.a.a.a.d.a.d.a.a.a.a.a.a.a.a.a.a.a.a.a.a.a.a.a.d.a.a.a.a.a.a.a.a.d.d.a.d.a.a.a.a.a.a.a.a.a.a.a.d.a.a.a.a.a.a.a.a.d.d.a.a.a.a.a.d.a.d.a.a.a.a.a.d.d.a.d.d.a.a.a.a.a.a.a.a.a.a.a.a.a.a.a.a.d.d.a.d.d.a.a.a.b.A.A.a.a.d.a.d.d.a.a.a.a.d.a.d.d.d.a.a.a.a.a.a.a.d.a.a.d.a.a.d.d.a.a.d.d.a.a.A.A.d.a.a.a.a.a.d.d.a.a.d.a.d.a.a.d.d.a.a.a.b.D.A.a.a.a.a.d.a.a.d.d.a.a.d.b.D.A.a.a.d.a.d.a.d.a.A.A.a.a.d.a.d.a.a.d.d.a.a.a.a.a.a.a.a.a.d.d.a.a.d.a.d.a.a.d.d.a.a.d.a.a.a.a.a.a.a.d.a.a.a.a.a.a.a.a.a.a.a.a.d.a.a.a.d.a.a.b.A.A.a.d.d.a.d.d.a.a.a.a.d.a.a.a.a.a.d.d.a.a.d.a.d.a.a.d.d.a.a.d.a.a.d.a.d.a.a.a.a.a.a.a.a.a.a.a.d.a.a.d.a.a.d.a.a.a.d.a.a.a.a.a.d.a.a.a.a.a.a.a.d.a.a.a.a.a.d.d.a.a.d.a.d.a.a.a.d.a.a.d.a.a.d.a.d.a.a.d.a.a.a.a.d.a.a.a.d.a.a.a.a.a.a.a.a.a.a.a.a.a.a.a.d.a.a.d.a.a.a.a.d.a.a.a.a.a.d.a.a.a.d.a.d.a.a.d.a.a.a.d.a.a.d.a.a.a.a.a.a.a.d.d.a.a.a.a.a.a.a.a.d.a.a.a.a.a.d.a.a.a.a.d.d.a.d.d.a.a.a.a.d.a.R*R.R.D.d.a.a.a.a.a.d.a.a.a.a.d.a.a.a.d.a.a.a.a.d.a.a.a.d.a.a.d.a.a.a.a.d.a.a.d.d.a.a.a.a.a.d.a.d.a.a.a.a.a.a.a.a.a.a.a.a.a.a.a.a.a.d.a.a.a.a.a.a.a.a.d.d.a.d.a.a.a.a.a.a.a.a.a.a.a.d.a.a.a.a.a.a.a.a.d.d.a.a.a.a.a.d.a.d.a.a.a.a.a.d.d.a.d.d.a.a.a.a.a.a.a.a.a.a.a.a.a.a.a.a.d.d.a.d.d.a.a.a.a.a.a.a.a.d.a.d.d.a.a.a.a.d.a.d.d.d.a.a.a.a.a.a.a.d.a.a.d.a.a.d.d.a.a.d.d.a.r.r.d.a.a.a.a.a.d.d.a.a.d.a.d.a.a.d.d.a.a.a.a.d.a.a.a.a.a.d.a.a.d.d.a.a.d.a.d.a.a.a.d.a.d.a.d.r.r.a.a.d.a.d.a.a.d.d.a.a.a.a.a.a.a.a.a.d.d.a.a.d.a.d.a.a.d.d.a.a.d.a.a.a.a.a.a.a.d.a.a.a.a.a.a.a.a.a.a.a.a.d.a.a.a.d.a.a.a.a.a.a.d.d.a.d.d.a.a.a.a.d.a.a.a.a.a.d.d.a.a.d.a.d.a.a.d.d.a.a.d.a.a.d.a.d.a.a.a.a.a.a.a.a.a.a.a.d.a.a.d.a.a.d.a.a.a.d.a.a.a.a.a.d.a.a.a.a.a.a.a.d.a.a.a.a.a.d.d.a.a.d.a.d.a.a.a.d.a.a.d.a.a.d.a.d.a.a.d.a.a.a.a.d.a.a.a.d.a.a.a.a.a.a.a.a.a.a.a.a.a.a.a.d.a.a.d.a.a.a.a.d.a.a.a.a.a.d.a.a.a.d.a.d.a.a.d.a.a.a.d.a.a.d.a.a.a.a.a.a.a.d.d.a.a.a.a.a.a.a.a.d.a.a.a.a.a.d.a.a.a.a.d.d.a.d.d.a.a.a.a.d.a.a.a.a.a.d.a.a.a.d.a.a.a.a.d.a.a.a.d.a.a.d.a.a.a.a.a.a.a.d.d.a.a.a.a.a.a.a.d.a.a.d.a.a.a.a.a.a.a.a.d.d.a.a.d.a.a.a.a.d.a.a.a.a.a.d.a.a.a.a.a.a.a.a.d.d.a.a.a.a.a.d.a.a.a.a.a.a.a.a.a.a.a.d.a.a.a.a.d.a.a.d.a.a.a.d.a.a.a.a.d.a.a.a.a.a.a.a.a.d.a.a.a.d.a.a.d.a.a.d.a.d.a.a.d.d.a.a.a.a.a.d.a.d.a.a.d.a.a.d.a.a.a.a.a.d.d.a.a.a.a.d.a.a.a.d.a.a.a.a.a.d.a.d.d.a.a.a.a.d.a.a.a.a.a.d.a.a.a.a.a.a.a.a.d.d.a.a.d.a.a.a.a.a.a.a.d.a.a.d.a.a.a.a.a.d.a.a.d.a.a.a.a.a.a.a.a.a.a.a.a.d.a.a.d.a.a.a.a.d.a.a.a.a.a.a.d.a.a.d.a.a.a.a.d.d.a.a.d.a.a.a.a.d.a.a.a.a.a.a.d.a.a.a.a.d.a.a.d.d.a.d.a.a.a.d.a.a.a.a.d.d.a.d.d.a.a.a.a.d.a.d.a.a.a.a.d.a.a.d.a.d.a.a.d.d.a.a.a.a.a.a.a.d.a.a.d.a.a.d.d.a.a.d.a.d.a.a.a.a.a.a.a.a.a.a.a.a.a.a.a.d.a.d.a.a.a.a.a.d.a.a.a.d.a.d.d.a.a.a.a.a.a.a.d.a.a.a.a.a.a.a.a.a.a.a.d.a.a.d.a.a.a.d.a.a.a.a.a.d.a.d.a.a.a.d.a.a.a.a.d.a.a.d.d.a.a.a.a.d.a.a.a.d.a.d.a.a.a.d.a.d.a.a.d.d.a.a.a.a.a.a.a.d.a.a.d.a.a.d.d.a.a.a.a.a.a.a.d.d.a.d.a.a.a.a.a.a.a.a.a.d.a.a.d.a.a.a.a.a.a.a.a.d.a.d.d.a.a.a.a.a.a.a.a.a.a.a.d.a.a.d.a.d.a.a.d.a.a.d.d.a.a.d.a.d.a.R*R.R.r.d.a.a.a.a.a.a.a.a.d.d.a.d.a.a.a.a.a.a.a.a.a.a.a.d.a.a.a.a.a.a.a.a.d.d.a.a.a.a.a.d.a.d.a.a.a.a.a.d.d.a.d.d.a.a.a.a.a.a.a.a.a.a.a.a.a.a.a.a.d.d.a.d.d.a.a.a.a.a.a.a.a.d.a.d.d.a.a.a.a.d.a.d.d.d.a.a.a.a.a.a.a.d.a.a.d.a.a.d.d.a.a.d.d.a.a.A.A.d.a.a.a.a.a.d.d.a.a.d.a.d.a.a.d.d.a.a.a.a.d.a.a.a.a.a.d.a.a.d.d.a.a.d.a.d.a.a.a.d.a.d.a.d.a.A.A.a.a.d.a.d.a.a.d.d.a.a.a.a.a.a.a.a.a.d.d.a.a.d.a.d.a.a.d.d.a.a.d.a.a.a.b.A.A.a.d.a.a.a.a.a.a.a.a.a.a.a.a.d.a.a.a.d.a.a.a.a.a.a.d.d.a.d.d.a.a.a.a.d.a.a.a.a.a.d.d.a.a.d.a.d.a.a.d.d.a.a.d.a.a.d.a.d.a.a.a.a.a.a.a.a.a.a.a.d.a.a.d.a.a.d.a.a.a.d.a.a.a.a.a.d.a.a.a.a.a.a.a.d.a.a.a.a.a.d.d.a.a.d.a.d.a.a.a.d.a.a.d.a.a.d.a.d.a.a.d.a.a.a.a.d.a.a.a.d.a.a.a.a.a.a.a.a.a.a.a.a.a.a.a.d.a.a.d.a.a.a.a.d.a.a.a.a.b.D.A.a.a.d.a.d.a.a.d.a.a.a.d.a.a.d.a.a.a.a.a.a.a.d.d.a.a.a.a.a.a.a.a.d.a.a.a.a.a.d.a.a.a.a.d.d.a.d.d.a.a.a.a.d.a.a.a.a.a.d.a.a.a.d.a.a.a.a.d.a.a.a.d.a.a.d.a.a.a.a.a.a.a.d.d.a.a.a.a.a.a.a.d.a.a.d.a.a.a.a.a.a.a.a.d.d.a.a.d.a.a.a.a.d.a.a.a.a.a.d.a.a.a.a.a.a.a.a.d.d.a.a.a.a.a.d.a.a.a.a.a.a.a.a.a.a.a.d.a.a.a.a.d.a.a.d.a.a.a.d.a.a.a.a.d.a.a.a.a.a.a.a.a.d.a.a.a.d.a.a.d.a.a.d.a.d.a.a.d.d.a.a.a.a.a.d.a.d.a.a.d.a.a.d.a.a.a.a.a.d.d.a.a.a.a.d.a.a.a.d.a.a.a.a.a.d.b.D.D.a.a.a.a.d.a.a.a.a.a.d.a.a.a.a.a.a.a.a.d.d.a.a.d.a.a.a.a.a.a.a.d.a.a.d.a.a.a.a.a.d.a.a.d.a.a.a.a.a.a.a.a.a.a.a.a.d.a.a.d.a.a.a.a.d.a.a.a.a.a.a.d.a.a.d.a.a.a.a.d.d.a.a.d.a.a.a.a.d.a.a.a.a.a.a.d.a.a.a.a.d.a.a.d.d.a.d.a.a.a.d.a.a.a.a.d.d.a.d.d.a.a.a.a.d.a.d.a.a.a.a.d.a.a.d.a.d.a.a.d.d.a.a.a.a.a.a.a.d.a.a.d.a.a.d.d.a.a.d.a.d.a.a.a.a.a.a.a.a.a.a.a.a.a.a.a.d.a.d.a.a.a.a.a.d.a.a.a.d.a.d.d.a.a.a.a.a.a.a.d.a.a.a.a.a.a.a.a.a.a.a.d.a.a.d.a.a.a.d.a.a.a.a.a.d.a.d.a.a.a.d.a.a.a.a.d.a.a.d.d.a.a.a.a.d.a.a.a.d.a.d.a.a.a.d.a.d.a.a.d.d.a.a.a.a.a.a.a.d.a.a.d.a.a.d.d.a.a.a.a.a.a.a.d.d.a.d.a.a.a.a.a.a.a.a.a.d.a.a.d.a.a.a.a.a.a.a.a.d.a.d.d.a.a.a.a.a.a.a.a.a.a.a.d.a.a.d.a.d.a.a.d.a.a.d.d.a.a.d.a.d.a.a.d.d.a.a.a.a.a.d.a.a.a.a.d.a.a.a.d.a.a.a.a.d.a.a.a.d.a.a.d.a.a.a.a.d.a.a.d.d.a.a.a.a.a.d.a.d.a.a.a.a.a.a.a.a.a.a.a.a.a.a.a.R*R.R.D.a.a.a.a.d.a.a.d.a.d.a.a.d.d.a.a.a.a.a.a.a.d.a.a.d.a.a.d.d.a.a.d.a.d.a.a.a.a.a.a.a.a.a.a.a.a.a.a.a.d.a.d.a.a.a.a.a.d.a.a.a.d.a.d.d.a.a.a.a.a.a.a.d.a.b.A.A.a.a.a.a.a.a.a.d.a.a.d.a.a.a.d.a.a.a.a.a.d.a.d.a.a.a.d.a.a.a.a.d.a.a.d.d.a.a.a.a.d.a.a.a.d.a.d.a.a.a.d.a.d.a.a.d.d.a.a.a.a.a.a.a.d.a.a.d.a.a.d.d.a.a.a.a.a.a.a.d.d.a.d.a.a.a.a.a.a.a.a.a.d.a.a.d.a.a.a.a.a.a.a.a.d.a.d.d.a.a.a.a.a.a.a.a.a.a.a.d.a.a.d.a.d.a.a.d.a.a.d.d.a.a.d.a.d.a.a.d.d.a.a.a.a.a.d.a.a.a.a.d.a.a.a.d.a.a.a.a.d.a.a.a.d.a.a.d.a.a.a.a.d.a.a.d.d.a.a.a.a.a.d.a.d.a.a.a.a.a.a.a.a.a.a.a.a.a.a.a.a.a.d.a.a.a.a.a.a.a.a.d.d.a.d.a.a.a.a.a.a.a.a.a.a.a.d.a.a.a.a.a.a.a.a.d.d.a.a.a.a.a.d.a.d.a.a.a.a.a.d.d.a.d.d.a.a.a.a.a.a.a.a.a.a.a.a.a.a.a.a.d.d.a.d.d.a.a.a.a.a.a.a.a.d.a.d.d.a.a.a.a.d.a.d.d.d.a.a.a.a.a.a.a.d.a.a.d.a.a.d.d.a.a.d.d.a.a.A.A.d.a.a.a.a.a.d.d.a.a.d.a.d.a.a.d.d.a.a.a.a.d.a.a.a.a.a.d.a.a.d.d.a.a.d.a.d.a.a.a.d.a.d.a.d.a.A.A.a.a.d.a.d.a.a.d.d.a.a.a.a.a.a.a.a.a.d.d.a.a.d.a.d.a.a.d.d.a.a.d.a.a.a.a.a.a.a.d.a.a.a.a.a.a.a.a.a.a.a.a.d.a.a.a.d.a.a.a.a.a.a.d.d.a.d.d.a.a.a.a.d.a.a.a.a.a.d.d.a.a.d.a.d.a.a.d.d.a.a.d.a.a.d.a.d.a.a.a.a.a.a.a.a.a.a.a.d.a.a.d.a.a.d.a.a.a.d.a.a.a.a.a.d.a.a.a.a.a.a.a.d.a.a.a.a.a.d.d.a.a.d.a.d.a.a.a.d.a.a.d.a.a.d.a.d.a.a.d.a.a.a.a.d.a.a.a.d.a.a.a.a.a.a.a.a.a.a.a.a.a.a.a.d.a.a.d.a.a.a.a.d.a.a.a.a.a.d.a.a.a.d.a.d.a.a.d.a.a.a.d.a.a.d.a.a.a.a.a.a.a.D.D.a.a.a.a.a.a.a.a.d.a.a.a.a.a.d.a.a.a.a.d.d.a.d.d.a.b.A.A.d.a.a.a.a.a.d.a.a.a.d.a.a.a.a.d.a.a.a.d.a.a.d.a.a.a.a.a.a.a.d.d.a.a.a.a.a.a.a.d.a.b.D.A.a.a.a.a.a.b.r.u.d.a.a.d.a.a.a.a.d.a.a.a.a.a.d.a.a.a.a.a.a.a.a.d.d.a.a.a.a.a.d.a.a.a.a.a.a.a.a.a.a.a.d.a.a.a.a.d.a.a.d.a.a.a.d.a.a.a.a.d.a.a.a.a.a.a.a.a.d.a.a.a.d.a.a.d.a.a.d.a.d.a.a.d.d.a.a.a.a.a.d.a.d.a.a.d.a.a.d.a.a.a.a.a.d.d.a.a.a.a.d.a.a.a.d.a.a.a.a.a.d.a.d.d.a.a.a.a.d.a.a.a.a.a.d.a.a.a.a.a.a.a.a.d.d.a.a.d.a.a.a.a.a.a.a.d.a.a.d.a.a.a.a.a.d.a.a.d.a.a.a.a.a.a.a.a.a.a.a.a.d.a.a.d.a.a.a.a.d.a.a.a.a.a.a.d.a.a.d.a.a.a.a.d.d.a.a.d.a.a.a.a.d.a.a.a.a.a.a.d.a.a.a.a.d.a.a.d.d.a.d.a.a.a.d.a.a.a.a.d.d.a.d.d.a.a.a.a.d.R*R.R.A.a.a.a.a.a.a.a.a.a.d.a.a.a.a.a.a.a.a.d.d.a.d.a.a.a.a.a.a.a.a.a.a.a.d.a.a.a.a.a.a.a.a.d.d.a.a.a.a.a.d.a.d.a.a.a.a.a.d.d.a.d.d.a.a.a.a.a.a.a.a.a.a.a.a.a.a.a.a.d.d.a.d.d.a.a.a.a.a.a.a.a.d.a.d.d.a.a.a.a.d.a.d.d.d.a.a.a.a.a.a.a.d.a.a.d.a.a.d.d.a.a.d.d.a.a.A.A.d.a.a.a.a.a.d.d.a.a.d.a.d.a.a.d.d.a.a.a.a.d.a.a.a.a.a.d.a.a.d.d.a.a.d.a.d.a.a.a.d.a.d.a.d.a.A.A.a.a.d.a.d.a.a.d.d.a.a.a.a.a.a.a.a.a.d.d.a.a.d.a.d.a.a.d.d.a.a.d.a.a.a.a.a.a.a.d.a.a.a.a.a.a.a.a.a.a.a.a.d.a.a.a.d.a.a.a.a.a.a.d.d.a.d.d.a.a.a.a.d.a.a.a.a.a.d.d.a.a.d.a.d.a.a.d.d.a.a.d.a.a.d.a.d.a.a.a.a.a.a.a.a.a.a.a.d.a.a.d.a.a.d.a.a.a.d.a.a.a.a.a.d.a.a.a.a.a.a.a.d.a.a.a.a.a.d.d.a.a.d.a.d.a.a.a.d.a.a.d.a.a.d.a.d.a.a.d.a.a.a.a.d.a.a.a.d.a.a.a.a.a.a.a.a.a.a.a.a.a.a.a.d.a.a.d.a.a.a.a.d.a.a.a.a.a.d.a.a.a.d.a.d.a.a.d.a.a.a.d.a.a.d.a.a.a.a.a.a.a.d.d.a.a.a.a.a.a.a.a.d.a.a.a.a.a.d.a.a.a.a.d.d.a.d.d.a.a.a.a.d.a.a.a.a.a.d.a.a.a.d.a.a.a.a.d.a.a.a.d.a.a.d.a.a.a.a.a.a.a.d.d.a.a.a.a.a.a.a.d.a.a.d.a.a.a.a.a.a.a.a.d.d.a.a.d.a.a.a.a.d.a.a.a.a.a.d.a.a.a.a.a.a.a.a.d.d.a.a.a.a.a.d.a.a.a.a.a.a.a.a.a.a.a.d.a.a.a.a.d.a.a.d.a.a.a.d.a.a.a.a.d.a.a.a.a.a.a.a.a.d.a.a.a.d.a.a.d.a.a.d.a.d.a.a.d.d.a.a.a.a.a.d.a.d.a.a.d.a.a.d.a.a.a.a.a.d.d.a.a.a.a.d.a.a.a.d.a.a.a.a.a.d.a.d.d.a.a.a.a.d.a.a.a.a.a.d.a.a.a.a.a.a.a.a.d.d.a.a.d.a.a.a.a.a.a.a.d.a.a.d.a.a.a.a.a.d.a.a.d.a.a.a.a.a.a.a.a.a.a.a.a.d.a.a.d.a.a.a.a.d.a.a.a.a.a.a.d.a.a.d.a.a.a.a.d.d.a.a.d.a.a.a.a.d.a.a.a.a.a.a.d.a.a.a.a.d.a.a.d.d.a.d.a.a.a.d.a.a.a.a.d.d.a.d.d.a.a.a.a.d.a.d.a.a.a.a.d.a.a.d.a.d.a.a.d.d.a.a.a.a.a.a.a.d.a.a.d.a.a.d.d.a.a.d.a.d.a.a.a.a.a.a.a.a.a.a.a.a.a.a.a.d.a.d.a.a.a.a.a.d.a.a.a.d.a.d.d.a.a.a.a.a.a.a.d.a.a.a.a.a.a.a.a.a.a.a.d.a.a.d.a.a.a.d.a.a.a.a.a.d.a.d.a.a.a.d.a.a.a.a.d.a.a.d.d.a.a.a.a.d.a.a.a.d.a.d.a.a.a.d.a.d.a.a.d.d.a.a.a.a.a.a.a.d.a.a.d.a.a.d.d.a.a.a.a.a.a.a.d.d.a.d.a.a.a.a.a.a.a.a.a.d.a.a.d.a.a.a.a.a.a.a.a.d.a.d.d.a.a.a.a.a.a.a.a.a.a.a.d.a.a.d.a.d.a.a.d.a.a.d.d.a.a.d.a.d.a.a.d.d.a.a.a.a.a.d.a.a.a.a.d.a.a.a.d.a.a.a.a.d.a.a.a.d.a.a.d.a.a.a.a.d.a.a.d.d.a.a.a.a.a.d.a.d.a.a.a.a.a.a.R*R.U.A.a.d.a.a.a.a.a.d.a.a.d.a.a.a.a.a.a.a.a.a.a.a.a.d.a.a.d.a.a.a.a.d.a.a.a.a.a.a.d.a.a.d.a.a.a.a.d.d.a.a.d.a.a.a.a.d.a.a.a.a.a.a.d.a.a.a.a.d.a.a.d.d.a.d.a.a.a.d.a.a.a.a.d.d.a.d.d.a.a.a.a.d.a.d.a.a.a.a.d.a.a.d.a.d.a.a.d.d.a.a.a.a.a.a.a.d.a.a.d.a.a.d.d.a.a.d.a.d.a.a.a.a.a.a.a.a.a.a.a.a.a.a.a.d.a.d.a.a.a.a.a.d.a.a.a.d.a.d.d.a.a.a.a.a.a.a.d.a.a.a.a.a.a.a.a.a.a.a.d.a.a.d.a.a.a.d.a.a.a.a.a.d.a.d.a.a.a.d.a.a.a.a.d.a.a.d.d.a.a.a.a.d.a.a.a.d.a.d.a.a.a.d.a.d.a.a.d.d.a.a.a.a.a.a.a.d.a.a.d.a.a.d.d.a.a.a.a.a.a.a.d.d.a.d.a.a.a.a.a.a.a.a.a.d.a.a.d.a.a.a.a.a.a.a.a.d.a.d.d.a.a.a.a.a.a.a.a.a.a.a.d.a.a.d.a.d.a.a.d.a.a.d.d.a.a.d.b.D.A.a.d.d.a.a.a.a.a.d.a.a.a.a.d.a.a.a.d.a.a.a.a.d.a.a.a.d.a.a.d.a.a.a.a.d.a.a.d.d.a.a.a.a.a.d.a.d.a.a.a.a.a.a.a.a.a.a.a.a.a.a.a.a.a.d.a.a.a.a.a.a.a.a.d.d.a.d.a.a.a.a.a.a.a.a.a.a.a.d.a.a.a.a.a.a.a.a.d.d.a.a.a.a.a.d.a.d.a.a.a.a.a.d.d.a.d.d.a.a.a.a.a.a.a.a.a.a.a.a.a.a.a.a.d.d.a.d.d.A.A.a.a.a.a.a.a.d.a.d.d.a.a.a.a.d.a.d.d.d.a.a.a.a.a.a.a.d.a.a.d.a.a.d.d.a.a.d.d.a.a.A.B.D.A.a.a.a.a.d.d.a.a.d.a.d.a.a.d.d.a.a.a.a.d.a.a.a.a.a.d.a.a.d.d.a.a.d.a.d.a.a.a.d.a.d.a.d.a.A.A.a.a.d.a.d.a.a.d.d.a.a.a.a.a.a.a.a.a.d.d.a.a.d.a.d.a.a.d.d.a.a.d.a.a.b.r.r.a.a.d.a.a.a.a.a.a.a.a.a.a.a.a.d.a.a.a.d.a.a.a.a.a.a.d.d.a.d.d.a.a.a.a.d.a.a.a.a.a.d.d.a.a.d.a.d.a.a.d.d.a.a.d.a.a.d.a.d.a.a.a.a.a.a.a.a.a.a.a.d.a.a.d.a.a.d.a.a.a.d.a.a.a.a.a.d.a.a.a.a.a.a.a.d.a.a.a.a.a.d.d.a.a.d.a.d.a.a.a.d.a.a.d.a.a.d.a.d.a.a.d.a.a.a.a.d.a.a.a.d.a.a.a.a.a.a.a.a.a.a.a.a.a.a.a.d.a.a.d.a.a.a.a.d.a.a.a.a.a.d.a.a.a.d.a.d.a.a.d.a.b.A.D.a.a.d.a.a.a.a.a.a.a.d.d.a.a.a.a.a.a.a.a.d.a.a.a.a.a.d.a.a.a.a.d.d.a.d.d.a.a.a.a.d.a.a.a.a.a.d.a.a.a.d.a.a.a.a.d.a.a.a.d.a.a.d.a.a.a.a.a.a.a.d.d.a.a.a.a.a.a.a.d.a.a.d.a.a.a.a.a.a.a.a.d.d.a.a.d.a.a.a.a.d.a.a.a.a.a.d.a.a.a.a.a.a.a.a.d.d.a.a.a.a.a.d.a.a.a.a.a.a.a.a.a.a.a.d.a.a.a.a.d.a.a.d.a.a.a.d.a.a.a.b.u.r.a.a.a.a.a.a.a.d.a.a.a.d.a.a.d.a.a.d.a.d.a.a.d.d.a.a.a.b.A.D.a.d.a.a.d.a.a.d.a.a.a.a.a.d.d.a.b.A.A.d.a.a.a.d.a.a.a.a.a.d.a.d.d.a.a.a.a.d.a.a.a.a.a.d.a.a.a.a.a.a.a.a.d.d.a.a.d.a.a.a.a.a.a.a.R*R.R.D.a.a.a.a.a.a.a.a.a.a.a.a.d.a.a.d.a.a.a.a.d.a.a.a.a.a.a.d.a.a.d.a.a.a.a.d.d.a.a.d.a.a.a.a.d.a.a.a.a.a.a.d.a.a.a.a.d.a.a.d.d.a.d.a.a.a.d.b.A.A.a.d.d.a.d.d.a.a.a.a.d.a.d.a.a.a.a.d.a.a.d.a.d.a.a.d.d.a.a.a.a.a.a.a.d.a.a.d.a.a.d.d.a.a.d.a.d.a.a.a.a.a.a.a.a.a.a.a.a.a.a.a.d.a.d.a.a.a.a.a.d.a.a.a.d.a.d.d.a.a.a.a.a.a.a.d.a.a.a.a.a.a.a.a.a.a.a.d.a.a.d.a.a.a.d.a.a.a.a.a.d.a.d.a.a.a.d.a.a.a.a.d.a.a.d.d.a.a.a.a.d.a.a.a.d.a.d.a.a.a.d.a.d.a.a.d.d.a.a.a.a.a.a.a.d.a.a.d.a.a.d.d.a.a.a.b.A.A.a.d.d.a.d.a.a.a.a.a.a.a.a.a.d.a.a.d.a.a.a.a.a.a.a.a.d.a.d.d.a.a.a.a.a.a.a.a.a.a.a.d.a.a.d.a.d.a.a.d.a.a.d.d.a.a.d.a.d.a.a.d.d.a.a.a.a.a.d.a.a.a.a.d.a.a.a.d.a.a.a.a.d.a.a.a.d.a.a.d.a.a.a.a.d.a.a.d.d.a.a.a.a.a.d.a.d.a.a.a.a.a.a.a.a.a.a.a.a.a.a.a.a.a.d.a.a.a.a.a.a.a.a.d.d.a.d.a.a.a.a.a.a.a.a.a.a.a.d.a.a.a.a.a.a.a.a.d.d.a.a.a.a.a.d.a.d.a.a.a.a.a.d.d.a.d.d.a.a.a.a.a.a.a.a.a.a.a.a.a.a.a.a.d.d.a.d.d.a.a.a.a.a.a.a.a.d.a.d.d.a.a.a.a.d.a.d.d.d.a.a.a.a.a.a.a.d.a.a.d.a.a.d.d.a.b.D.D.a.a.A.A.d.a.a.a.a.a.d.d.a.a.d.a.d.a.a.d.d.a.a.a.a.d.a.a.a.a.a.d.a.a.d.d.a.a.d.a.d.a.a.a.d.a.d.a.d.a.A.A.a.a.d.a.d.a.a.d.d.a.a.a.a.a.a.a.a.a.d.d.a.a.d.a.d.a.a.d.d.a.a.d.a.a.a.a.a.a.a.d.a.a.a.a.a.a.a.a.a.a.a.a.d.a.a.a.d.a.a.a.a.a.a.d.d.a.d.d.a.a.a.a.d.a.a.a.a.a.d.d.a.a.d.a.d.a.a.d.d.a.a.d.a.a.d.a.d.a.a.a.a.a.a.a.a.a.a.a.d.a.a.d.a.a.d.a.a.a.d.a.a.a.a.a.d.a.a.a.a.a.a.a.d.a.a.a.a.a.d.d.a.a.d.a.d.a.a.a.d.a.a.d.a.a.d.a.d.a.a.d.a.a.a.a.d.a.a.a.d.a.a.a.a.a.a.a.a.a.a.a.a.a.a.a.d.a.a.d.a.a.a.a.d.a.a.a.a.a.d.a.a.a.d.a.d.a.a.d.a.a.a.d.a.a.d.a.a.a.a.a.a.a.d.d.a.a.a.a.a.a.a.a.d.a.a.a.a.a.d.a.a.a.a.d.d.a.d.d.a.a.a.a.d.a.a.a.a.a.d.a.a.a.d.a.a.a.a.d.a.a.a.d.a.a.d.a.a.a.a.a.a.a.d.d.a.a.a.a.a.a.a.d.a.a.d.a.a.a.a.a.a.a.a.d.d.a.a.d.a.a.a.a.d.a.a.a.a.a.d.a.a.a.a.a.a.a.a.d.d.a.a.a.a.a.d.a.a.a.a.a.a.a.a.a.a.a.d.a.a.a.a.d.a.a.d.a.a.a.d.a.a.a.a.d.a.a.a.a.a.a.a.a.d.a.a.a.d.a.a.d.a.a.d.a.d.a.a.d.d.a.a.a.a.a.d.a.d.a.a.d.a.a.d.a.a.a.a.a.d.d.a.a.a.a.d.a.a.a.d.a.a.a.a.a.d.a.d.d.a.a.a.a.d.a.a.a.a.a.d.a.a.a.a.a.a.a.a.d.d.a.a.d.a.a.a.a.a.a.a.d.a.a.d.a.a.a.a.a.d.a.R*R.R.r.a.a.a.a.a.a.a.a.a.a.a.a.a.a.d.a.a.a.a.a.a.a.a.d.d.a.d.a.a.a.a.a.a.a.a.a.a.a.d.a.a.a.a.a.a.a.a.d.d.a.a.a.a.a.d.a.d.a.a.a.a.a.d.d.a.d.d.a.a.a.a.a.a.a.a.a.a.a.a.a.a.a.a.d.d.a.d.d.a.a.a.a.a.a.a.a.d.a.d.d.a.a.a.a.d.a.d.d.d.a.a.a.a.a.a.a.d.a.a.d.a.a.d.d.a.a.d.d.a.r.r.d.a.a.a.a.a.d.d.a.a.d.a.d.a.a.d.d.a.a.a.a.d.a.a.a.a.a.d.a.a.d.d.a.a.d.a.d.a.a.a.d.a.d.a.d.r,r.a.a.d.a.d.a.a.d.d.a.a.a.a.a.a.a.a.a.d.d.a.a.d.a.d.a.a.d.d.a.a.d.a.a.a.a.a.a.a.d.a.a.a.a.a.a.a.a.a.a.a.a.d.a.a.a.d.a.a.a.a.a.a.d.d.a.d.d.a.a.a.a.d.a.a.a.a.a.d.d.a.a.d.a.d.a.a.d.d.a.a.d.a.a.d.a.d.a.a.a.a.a.a.a.a.a.a.a.d.a.a.d.a.a.d.a.a.a.d.a.a.a.a.a.d.a.a.a.a.a.a.a.d.a.a.a.a.a.d.d.a.a.d.a.d.a.a.a.d.a.a.d.a.a.d.a.d.a.b.D.A.a.a.a.d.a.a.a.d.a.a.a.a.a.a.b.A.A.a.a.a.a.a.a.d.a.a.d.a.a.a.a.d.a.a.a.a.a.d.a.a.a.d.a.d.a.a.d.a.a.a.d.a.a.d.a.a.a.a.a.a.a.d.d.a.a.a.a.a.a.a.a.d.a.a.a.a.a.d.a.a.a.a.d.d.a.d.d.a.a.a.a.d.a.a.a.a.a.d.a.a.a.d.a.a.a.a.e.A.A.a.d.a.a.d.a.a.a.a.a.a.a.d.d.a.a.a.a.a.a.a.d.a.a.d.a.a.a.a.a.a.a.a.d.d.a.a.d.a.a.a.a.d.a.a.a.a.a.D.A.a.a.a.a.a.a.a.d.d.a.a.a.a.a.d.a.a.a.a.a.a.a.a.a.a.a.d.a.a.a.a.d.a.a.d.a.a.a.d.a.a.a.a.d.a.a.a.a.a.a.a.a.d.a.a.a.d.a.a.d.a.a.d.a.d.a.a.d.d.a.a.a.a.a.d.a.d.a.a.d.a.a.d.a.a.a.a.a.d.d.a.a.a.a.d.a.a.a.d.a.a.a.a.a.d.a.d.d.a.a.a.a.d.a.a.a.a.a.d.a.a.a.a.a.a.a.a.d.d.a.a.d.a.a.a.a.a.a.a.d.a.a.d.a.a.a.a.a.d.a.a.d.a.a.a.a.a.a.a.a.a.a.a.a.d.a.a.d.a.a.a.a.d.a.a.a.a.a.a.d.a.a.d.a.a.a.a.d.d.a.a.d.a.a.a.a.d.a.a.a.a.a.a.d.a.a.a.a.d.a.a.d.d.a.d.a.a.a.d.a.a.a.a.d.d.a.d.d.a.a.a.a.d.a.d.a.a.a.a.d.a.a.d.a.d.a.a.d.d.a.a.a.a.a.a.a.d.a.a.d.a.a.d.d.a.a.d.a.d.a.a.a.a.a.a.a.a.a.a.a.a.a.a.a.d.a.d.a.a.a.a.a.d.a.a.a.d.a.d.d.a.a.a.a.a.a.a.d.a.a.a.a.a.a.a.a.a.a.a.d.a.a.d.a.a.a.d.a.a.a.a.a.d.a.d.a.a.a.d.a.a.a.a.d.a.a.d.d.a.a.a.a.d.a.a.a.d.a.d.a.a.a.d.a.d.a.a.d.d.a.a.a.a.a.a.a.d.a.a.d.a.a.d.d.a.a.a.a.a.a.a.d.d.a.d.a.a.a.a.a.a.a.a.a.d.a.a.d.a.a.a.b.A.A.a.a.d.b.D.D.a.a.a.a.a.a.a.a.a.b.A.D.a.a.d.a.d.a.a.d.a.a.d.d.a.a.d.a.d.a.a.d.d.a.a.a.a.a.d.a.a.a.a.d.a.a.a.d.a.a.a.a.d.a.a.a.d.a.a.d.a.a.a.a.d.a.a.d.d.a.a.a.a.a.d.a.d.a.R*R.R.A.a.a.a.a.a.d.a.a.d.a.a.d.d.a.a.d.d.a.a.A.A.d.a.a.a.a.a.d.d.a.a.d.a.d.a.a.d.d.a.a.a.a.d.a.a.a.a.a.d.a.a.d.d.a.a.d.a.d.a.a.a.d.a.d.a.d.a.A.A.a.a.d.a.d.a.a.d.d.a.a.a.a.a.a.a.a.a.d.d.a.a.d.a.d.a.a.d.d.a.a.d.a.a.a.a.a.a.a.d.a.b.A.A.a.a.a.a.a.a.a.a.d.a.a.a.d.a.a.a.a.a.a.d.d.a.d.d.a.a.a.a.d.a.a.a.a.a.d.d.a.a.d.a.d.a.a.d.d.a.a.d.a.a.d.a.e.A.A.a.a.a.a.a.a.a.a.a.d.a.a.d.a.a.d.a.a.a.d.a.a.a.a.a.d.a.a.a.a.a.a.a.d.a.a.a.a.a.d.d.a.a.d.a.d.a.a.a.d.a.a.d.a.a.d.a.d.a.a.d.a.a.a.a.d.a.a.a.d.a.a.a.a.a.a.a.a.a.a.a.a.a.a.a.d.a.a.d.a.a.a.a.d.a.a.a.a.a.d.a.a.a.d.a.d.a.a.d.a.a.a.d.a.a.d.a.a.a.a.a.a.a.d.d.a.a.a.a.a.a.a.a.d.a.a.a.a.a.d.a.a.a.a.d.d.a.d.d.a.a.a.a.d.a.a.a.a.a.d.a.a.a.d.a.a.a.a.d.a.a.a.d.a.a.d.a.a.a.a.a.a.a.d.d.a.a.a.a.a.a.a.d.a.a.d.a.a.a.a.a.a.a.a.d.d.a.a.d.a.a.a.a.d.a.a.a.a.a.d.a.a.a.a.a.a.a.a.d.d.a.a.a.a.a.d.a.a.a.a.a.a.a.a.a.a.a.d.a.a.a.a.d.a.a.d.a.a.a.d.a.a.a.a.d.a.a.a.a.a.a.a.a.d.a.a.a.d.a.a.d.a.a.d.a.d.a.a.d.d.a.a.a.a.a.d.a.d.a.a.d.a.a.d.a.a.a.a.a.d.d.a.a.a.a.d.a.a.a.d.a.a.a.a.a.d.a.d.d.a.a.a.a.d.a.a.a.a.a.d.a.a.a.a.a.a.a.a.d.d.a.a.d.a.a.a.a.a.a.a.d.a.a.d.a.a.a.a.a.d.a.a.d.a.a.a.a.a.a.a.a.a.a.a.a.d.a.a.d.a.a.a.a.d.a.a.a.a.a.a.d.a.a.d.a.a.a.a.d.d.a.a.d.a.a.a.a.d.a.a.a.a.a.a.d.a.a.a.a.d.a.a.d.d.a.d.a.a.a.d.a.a.a.a.d.d.b.D.D.a.a.a.a.d.a.d.a.a.a.a.d.a.a.d.b.D.A.a.d.d.a.a.a.a.a.a.a.d.a.a.d.a.a.d.d.a.a.d.a.d.a.a.a.a.a.a.a.a.a.a.a.a.a.a.a.d.a.d.a.a.a.a.a.d.a.a.a.d.a.d.d.a.a.a.a.a.a.a.d.a.a.a.a.a.a.a.a.a.a.a.d.a.a.d.a.a.a.d.a.a.a.a.a.d.a.d.a.a.a.d.a.a.a.a.d.a.a.d.d.a.a.a.a.d.a.a.a.d.a.d.a.a.a.d.a.d.a.a.d.d.a.a.a.a.a.a.a.d.a.a.d.a.a.d.d.a.a.a.a.a.a.a.d.d.a.d.a.a.a.a.a.a.a.a.a.d.a.a.d.a.a.a.a.a.a.a.a.d.a.d.d.a.a.a.a.a.a.a.a.a.a.a.d.a.a.d.a.d.a.a.d.a.a.d.d.a.a.d.a.d.a.a.d.d.a.a.a.a.a.d.a.a.a.a.d.a.a.a.d.a.a.a.a.d.a.a.a.d.a.a.d.a.a.a.a.d.a.a.d.d.a.a.a.a.a.d.a.d.a.a.a.a.a.a.a.a.a.a.a.a.a.a.a.a.a.d.a.a.a.a.a.a.a.a.d.d.a.d.a.a.a.a.a.a.a.a.a.a.a.d.a.a.a.a.a.a.a.a.d.d.a.a.a.a.a.d.a.d.a.a.a.a.a.d.d.a.d.d.a.a.a.a.a.a.a.a.a.a.a.a.a.a.a.a.d.d.a.d.d.a.a.a.a.a.a.a.a.d.a.d.d.a.a.a.a.d.a.d.d.d.R*R.R.D.a.a.d.d.a.a.a.a.d.a.a.a.d.a.d.a.a.a.d.a.d.a.a.d.d.a.a.a.a.a.a.a.d.a.a.d.a.a.d.d.a.a.a.a.a.a.a.d.d.a.d.a.a.a.a.a.a.a.a.a.d.a.a.d.a.a.a.a.a.a.a.a.d.a.d.d.a.a.a.a.a.a.a.a.a.a.a.d.a.a.d.a.d.a.a.d.a.a.d.d.a.a.d.a.d.a.a.d.d.a.a.a.a.a.d.a.a.a.a.d.a.a.a.d.a.a.a.a.d.a.a.a.d.a.a.d.a.a.a.a.d.a.a.d.d.a.a.a.a.a.d.a.d.a.a.a.a.a.a.a.a.a.a.a.a.a.a.a.a.a.d.a.a.a.a.a.a.a.a.d.d.a.d.a.a.a.a.a.a.a.a.a.a.a.d.a.a.a.a.a.a.a.a.d.d.a.a.a.a.a.d.a.d.a.a.a.a.a.d.d.a.d.d.a.a.a.a.a.a.a.a.a.a.a.a.a.a.a.a.d.d.a.d.d.a.a.a.a.a.a.a.a.d.a.d.d.a.a.a.a.d.a.d.d.d.a.a.a.a.a.a.a.d.a.a.d.a.a.d.d.a.a.d.d.a.a.A.A.d.a.a.a.a.a.d.d.a.a.d.a.d.a.a.d.d.a.a.a.a.d.a.a.a.a.a.d.a.a.d.d.a.a.d.a.d.a.a.a.d.a.d.a.d.a.A.A.a.a.d.a.d.a.a.d.d.a.a.a.a.a.a.a.a.a.d.d.a.a.d.a.d.a.a.d.d.a.a.d.a.a.a.a.a.a.a.d.a.a.a.a.a.a.a.a.a.a.a.a.d.a.a.a.d.a.a.a.a.a.a.d.d.a.d.d.a.a.a.a.d.a.a.a.a.a.d.d.a.a.d.a.d.a.a.d.d.a.a.d.a.a.d.a.d.a.a.a.a.a.a.a.a.a.a.a.d.a.a.d.a.a.d.a.a.a.d.a.a.a.a.a.d.a.a.a.a.a.a.a.d.a.a.a.a.a.d.d.a.a.d.a.d.a.a.a.d.a.a.d.a.a.d.a.d.a.a.d.a.a.a.a.d.a.a.a.d.a.a.a.a.a.a.a.a.a.a.a.a.a.a.a.d.b.A.D.a.a.a.a.d.a.a.a.a.a.d.a.a.a.d.a.d.a.a.d.a.a.a.d.a.a.d.a.a.a.a.a.a.a.d.d.a.a.a.a.a.a.a.a.d.b.A.A.a.a.d.a.a.a.a.d.d.a.d.d.a.a.a.a.d.a.a.a.a.a.d.a.a.a.d.a.a.a.a.d.a.a.a.d.a.a.d.a.a.a.a.a.a.a.d.d.a.a.a.a.a.a.a.d.a.a.d.a.a.a.a.a.a.a.a.d.d.a.a.d.a.a.a.b.D.A.a.a.a.a.d.a.A.A.a.a.a.a.a.d.d.a.a.a.a.a.d.a.a.a.a.a.a.a.a.a.a.a.d.a.a.a.a.d.a.a.d.a.a.a.d.a.a.a.a.d.a.a.a.a.a.a.a.a.d.a.a.a.d.a.a.d.a.a.d.a.d.a.a.d.d.a.a.a.a.a.d.a.d.a.a.d.a.a.d.a.a.a.a.a.d.d.a.a.a.a.d.a.a.a.d.a.a.a.a.a.d.a.d.d.a.a.a.a.d.a.a.a.a.a.d.a.a.a.a.a.a.a.a.d.d.a.a.d.a.a.a.a.a.a.a.d.a.a.d.a.a.a.a.a.d.a.a.d.a.a.a.a.a.a.a.a.a.a.a.a.d.a.a.d.a.a.a.a.d.a.a.a.a.a.a.d.a.a.d.a.a.a.a.d.d.a.a.d.a.a.a.a.d.a.a.a.a.a.a.d.a.a.a.a.d.a.a.d.d.a.d.a.a.a.d.a.a.a.a.d.d.a.d.d.a.a.a.a.d.a.d.a.a.a.a.d.a.a.d.a.d.a.a.d.d.a.a.a.a.a.a.a.d.a.a.d.a.a.d.d.a.a.d.a.d.a.a.a.a.a.a.a.a.a.a.a.a.a.a.a.d.a.d.a.a.a.a.a.d.a.a.a.d.a.d.d.a.a.a.a.a.a.a.d.a.a.a.a.a.a.a.a.a.a.a.d.a.a.d.a.a.a.d.a.a.a.a.a.d.a.d.a.a.a.d.a.a.a.R*R.R.D.a.d.a.a.d.d.a.a.a.a.a.d.a.d.a.a.d.a.a.d.a.a.a.a.a.d.d.a.a.a.a.d.a.a.a.d.a.a.a.a.a.d.a.d.d.a.a.a.a.d.a.a.a.a.a.d.a.a.a.a.a.a.a.a.d.d.a.a.d.a.a.a.a.a.a.a.d.a.a.d.a.a.a.a.a.d.a.a.d.a.a.a.a.a.a.a.a.a.a.a.a.d.a.a.d.a.a.a.a.d.a.a.a.a.a.a.d.a.a.d.a.a.a.a.d.d.a.a.d.a.a.a.a.d.a.a.a.a.a.a.d.a.a.a.a.d.a.a.d.d.a.d.a.a.a.d.a.a.a.a.d.d.a.d.d.a.a.a.a.d.a.d.a.a.a.a.d.a.a.d.a.d.a.a.d.d.a.a.a.a.a.a.a.d.a.a.d.a.a.d.d.a.a.d.a.d.a.a.a.a.a.a.a.a.a.a.a.a.a.a.a.d.a.d.a.a.a.a.a.d.a.a.a.d.a.d.d.a.a.a.b.A.A.a.d.a.a.a.a.a.a.a.a.a.a.a.d.a.a.d.a.a.a.d.a.a.a.a.a.d.a.d.a.a.a.d.a.a.a.a.d.a.a.d.d.a.a.a.a.d.a.a.a.d.a.d.a.a.a.d.a.d.a.a.d.d.a.a.a.a.a.a.a.d.a.a.d.a.a.d.d.a.a.a.a.a.a.a.d.d.a.d.a.a.a.a.a.a.a.a.a.d.b.A.D.a.a.a.a.a.a.a.a.d.a.d.d.a.a.a.b.A.A.a.a.a.a.a.d.a.a.d.a.d.a.a.d.a.a.d.d.a.a.d.a.d.a.a.d.d.a.a.a.a.a.d.a.a.a.a.d.a.a.a.d.a.a.a.a.d.a.a.a.d.a.a.d.a.a.a.a.d.a.a.d.d.a.a.a.a.a.d.a.d.a.a.a.a.a.a.a.a.a.a.a.a.a.a.a.a.a.d.a.a.a.a.a.a.a.a.d.d.a.d.a.a.a.a.a.a.a.a.a.a.a.d.a.a.a.a.a.a.a.a.d.d.a.a.a.a.a.d.a.d.a.a.a.a.a.d.d.a.d.d.a.a.a.a.a.a.a.a.a.a.a.a.a.a.a.a.d.d.a.d.d.a.a.a.a.a.a.a.a.d.a.d.d.a.a.a.a.d.a.d.d.d.a.a.a.a.a.a.a.d.a.a.d.a.a.d.d.a.a.d.d.a.a.A.A.d.a.a.a.a.a.d.d.a.a.d.a.d.a.a.d.d.a.a.a.a.d.a.a.a.a.a.d.a.a.d.d.a.a.d.a.d.a.a.a.d.a.D.A.d.a.A.A.a.a.d.a.d.a.a.d.d.a.a.a.a.a.a.a.a.a.d.d.a.a.d.a.d.a.a.d.d.a.a.d.a.a.a.a.a.a.a.d.a.a.a.a.a.a.a.a.a.a.a.a.d.a.a.a.d.a.a.a.a.a.a.d.d.a.d.d.a.a.a.a.d.a.a.a.a.a.d.d.a.a.d.a.d.a.a.d.d.a.a.d.a.a.d.a.d.a.a.a.a.a.a.a.a.a.a.a.d.a.a.d.a.a.d.a.a.a.d.a.a.a.a.a.d.a.a.a.a.a.a.a.d.a.a.a.a.a.d.d.a.a.d.a.d.a.a.a.d.a.a.d.a.a.d.a.d.a.a.d.a.a.a.a.d.a.a.a.d.a.a.a.a.a.a.a.a.a.a.a.a.a.a.a.d.a.a.d.a.a.a.a.d.a.a.a.a.a.d.a.a.a.d.a.d.a.a.d.a.a.a.d.a.a.d.a.a.a.a.a.a.a.d.d.a.a.a.a.a.a.a.a.d.a.a.a.a.a.d.a.a.a.a.d.d.a.d.d.a.a.a.a.d.a.a.a.a.a.d.a.a.a.d.a.a.a.a.d.a.a.a.d.a.a.d.a.a.a.a.a.a.a.d.d.a.a.a.a.a.a.a.d.a.a.d.a.a.a.a.a.a.a.a.d.d.a.a.d.a.a.a.a.d.a.a.a.a.a.d.a.a.a.a.a.a.a.a.d.d.a.a.a.a.a.d.a.a.a.a.a.a.a.a.a.a.a.d.a.a.a.a.d.a.a.d.a.a.a.d.a.a.a.a.d.a.a.a.a.a.a.a.a.d.a.a.a.d.a.a.d.a.R*R.S.A.A.a.a.a.a.a.a.a.a.d.a.a.d.a.a.a.b.D.A.a.a.a.a.d.a.a.a.d.a.d.a.a.d.a.a.a.d.a.a.d.a.a.a.a.a.a.a.d.d.a.a.a.a.a.a.a.a.d.a.a.a.a.a.d.a.a.a.a.d.d.a.d.d.a.a.a.a.d.a.a.a.a.a.d.a.a.a.d.a.a.a.a.d.a.a.a.d.a.a.d.a.a.a.a.a.a.a.d.d.a.a.a.a.a.a.a.d.a.a.d.a.a.a.a.a.a.a.a.d.d.a.a.d.a.a.a.a.d.a.a.a.a.a.d.a.a.a.a.a.a.a.a.d.d.a.a.a.a.a.d.a.a.a.a.a.a.a.a.a.a.a.d.a.a.a.a.d.a.a.d.a.a.a.d.a.a.a.a.d.a.a.a.a.a.a.a.a.d.a.a.a.d.a.a.d.a.a.d.a.d.a.a.d.d.a.a.a.a.a.d.a.d.a.a.d.a.a.d.a.a.a.a.a.d.d.a.a.a.a.d.a.a.a.d.a.a.a.a.a.d.a.d.d.a.a.a.a.d.a.a.a.a.a.d.a.a.a.a.a.a.a.a.d.d.a.a.d.a.a.a.a.a.a.a.d.a.a.d.a.a.a.a.a.d.a.a.d.a.a.a.a.a.a.a.a.a.a.a.a.d.a.a.d.a.a.a.a.d.a.a.a.a.a.a.d.a.a.d.a.a.a.a.d.d.a.a.d.a.a.a.a.d.a.a.a.a.a.a.d.a.a.a.a.d.a.a.d.d.a.d.a.a.a.d.a.a.a.a.d.d.a.d.d.a.a.a.a.d.a.d.a.a.a.a.d.a.a.d.a.d.a.a.d.d.a.a.a.a.a.a.a.d.a.a.d.a.a.d.d.a.a.d.a.d.a.a.a.a.a.a.a.a.a.a.a.a.a.a.a.d.a.d.a.a.a.a.a.d.a.a.a.d.a.d.d.a.a.a.a.a.a.a.d.a.a.a.a.a.a.a.a.a.a.a.d.a.a.d.a.a.a.d.a.a.a.a.a.d.a.d.a.a.a.d.a.a.a.a.d.a.a.d.d.a.a.a.a.d.a.a.a.d.a.d.a.a.a.d.a.d.a.a.d.d.a.a.a.a.a.a.a.d.a.a.d.a.a.d.d.a.a.a.a.a.a.a.d.d.a.d.a.a.a.a.a.a.a.a.a.d.a.a.d.a.a.a.a.a.a.a.a.d.a.d.d.a.a.a.a.a.a.a.a.a.a.a.d.a.a.d.a.d.a.a.d.a.a.d.d.a.a.d.a.d.a.a.d.d.a.a.a.a.a.d.a.a.a.a.d.a.a.a.d.a.a.a.a.d.a.a.a.d.a.a.d.a.a.a.a.d.a.a.d.d.a.a.a.a.a.d.a.d.a.a.a.a.a.a.a.a.a.a.a.a.a.a.a.a.a.d.a.a.a.a.a.a.a.a.d.d.a.d.a.a.a.a.a.a.a.a.a.a.a.d.a.a.a.a.a.a.a.a.d.d.a.a.a.a.a.d.a.d.a.a.a.a.a.d.d.a.d.d.a.a.a.a.a.a.a.a.a.a.a.a.a.a.a.a.d.d.a.d.d.a.a.a.a.a.a.a.a.d.a.d.d.a.a.a.a.d.a.d.d.d.a.a.a.a.a.a.a.d.a.a.d.a.a.d.d.a.a.d.d.a.a.A.A.d.a.a.a.a.a.d.d.a.a.d.a.d.a.a.d.d.a.a.a.a.d.a.a.a.a.a.d.a.a.d.d.a.a.d.a.d.a.a.a.d.a.d.a.d.a.A.A.a.a.d.a.d.a.a.d.d.a.a.a.a.a.a.a.a.a.d.d.a.a.d.a.d.a.a.d.d.a.a.d.a.a.a.a.a.a.a.d.a.a.a.a.a.a.a.a.a.a.a.a.d.a.a.a.d.a.a.a.a.a.a.d.d.a.d.d.a.a.a.a.d.a.a.a.a.a.d.d.a.a.d.a.d.a.a.d.d.a.a.d.a.a.d.a.d.a.a.a.a.a.a.a.a.a.a.a.d.a.a.d.a.a.d.a.a.a.d.a.a.a.a.a.d.a.a.a.a.a.a.a.d.a.a.a.a.a.d.d.a.'
p1
.F-19669.892690118162
.S'From-Botnet-UDP-DNS-DGA-17'
p1
.F1.1000000000000001
.