(dp1
S'Z'
F0.00043336222414827656
sS'Y'
F0.00050003333555570376
sS'G'
F3.333555570371358e-05
sS'i'
F0.37462497499833325
sS'H'
F0.0067004466964464297
sS'+'
F6.667111140742716e-05
sS'*'
F3.333555570371358e-05
sS','
F0.49866657777185147
sS'.'
F0.0012000800053336889
sS'I'
F0.0050670044669644644
sS'5'
F3.333555570371358e-05
sS'8'
F3.333555570371358e-05
sS'X'
F6.667111140742716e-05
sS'h'
F0.11160744049603306
sS'y'
F0.00043336222414827656
sS'x'
F6.667111140742716e-05
sS'z'
F0.00043336222414827656
s.ccopy_reg
_reconstructor
p1
(cstf.common.markov_chains
Matrix
p2
c__builtin__
dict
p3
(dp4
(S'8'
S'*'
tp5
F1
s(S'5'
S'8'
tp6
F1
s(S','
S'y'
tp7
F0.00053479510662477435
s(S'H'
S'.'
tp8
F0.019900497512437811
s(S','
S'X'
tp9
F6.6849388328096794e-05
s(S'.'
S'H'
tp10
F0.1111111111111111
s(S'.'
S'y'
tp11
F0.1388888888888889
s(S'y'
S','
tp12
F0.46153846153846156
s(S'G'
S','
tp13
F1
s(S'i'
S','
tp14
F1
s(S'I'
S'.'
tp15
F0.013157894736842105
s(S'h'
S','
tp16
F0.99790919952210277
s(S','
S'Y'
tp17
F0.00033424694164048397
s(S'.'
S'X'
tp18
F0.027777777777777776
s(S'Z'
S'.'
tp19
F0.38461538461538464
s(S','
S'z'
tp20
F0.00086904204826525843
s(S','
S'G'
tp21
F6.6849388328096794e-05
s(S'+'
S'Y'
tp22
F1
s(S'Y'
S','
tp23
F0.33333333333333331
s(S'x'
S'.'
tp24
F0.5
s(S','
S'h'
tp25
F0.2233438064041714
s(S'y'
S'+'
tp26
F0.15384615384615385
s(S'H'
S','
tp27
F0.98009950248756217
s(S'.'
S'Y'
tp28
F0.19444444444444445
s(S'y'
S'.'
tp29
F0.38461538461538464
s(S'z'
S','
tp30
F1
s(S','
S'i'
tp31
F0.75125342603115186
s(S'X'
S'.'
tp32
F1
s(S','
S'H'
tp33
F0.013169329500635069
s(S','
S'Z'
tp34
F0.00020054816498429038
s(S'.'
S'Z'
tp35
F0.27777777777777779
s(S'I'
S','
tp36
F0.98684210526315785
s(S'h'
S'.'
tp37
F0.002090800477897252
s(S','
S'x'
tp38
F0.00013369877665619359
s(S'Y'
S'.'
tp39
F0.66666666666666663
s(S'Z'
S','
tp40
F0.61538461538461542
s(S'x'
S','
tp41
F0.5
s(S'.'
S'I'
tp42
F0.055555555555555552
s(S','
S'I'
tp43
F0.01002740824921452
s(S'.'
S'h'
tp44
F0.19444444444444445
s(S'*'
S'Y'
tp45
F1
stRp46
(dp47
S'itemlist'
p48
(lp49
sS'init_vector'
p50
(dp51
S'Z'
F0.00043336222414827656
sS'Y'
F0.00050003333555570376
sS'G'
F3.333555570371358e-05
sS'i'
F0.37462497499833325
sS'H'
F0.0067004466964464297
sS'+'
F6.667111140742716e-05
sS'*'
F3.333555570371358e-05
sS','
F0.49866657777185147
sS'.'
F0.0012000800053336889
sS'I'
F0.0050670044669644644
sS'5'
F3.333555570371358e-05
sS'8'
F3.333555570371358e-05
sS'X'
F6.667111140742716e-05
sS'h'
F0.11160744049603306
sS'y'
F0.00043336222414827656
sS'x'
F6.667111140742716e-05
sS'z'
F0.00043336222414827656
ssb.S'58*Y.Y,H,Y.X.H,Z.Y,i,i,i,i,i,h,h,i,i,i,i,i,i,i,i,i,i,i,i,i,i,i,i,h,h,i,i,h,h,i,i,h,i,i,i,h,i,i,h,i,i,i,h,i,i,i,i,i,i,h,i,i,i,h,i,i,i,i,i,i,i,i,i,h,i,i,h,i,i,i,h,i,i,i,i,i,h,i,h,i,h,i,i,i,i,i,i,i,h,i,i,i,h,i,i,i,i,i,i,i,i,h,i,h,i,h,i,i,i,h,i,i,h,i,i,h,i,h,i,h,i,h,i,h,i,h,i,i,i,h,i,i,i,i,h,i,h,i,i,h,i,i,i,h,h,i,h,i,i,h,i,i,i,i,i,i,i,h,i,h,i,h,h,i,i,h,i,i,i,h,i,i,i,i,i,h,i,i,i,h,i,i,i,i,i,h,i,i,h,i,i,h,i,h,i,i,i,i,h,i,h,h,i,i,i,h,i,h,i,h,i,i,i,i,h,i,i,i,i,i,i,i,i,h,i,i,h,i,i,i,h,i,h,i,i,i,i,h,h,i,i,i,h,i,i,i,i,i,h,i,i,i,h,i,i,h,i,h,i,i,i,i,i,i,i,h,i,i,i,h,i,i,i,h,i,h,i,h,i,i,h,i,h,i,i,h,i,h,i,i,h,h,i,i,h,i,i,h,i,h,i,i,i,i,i,h,i,i,h,i,h,h,i,h,I,h,h,i,i,h,i,i,h,i,i,i,i,i,i,i,i,i,i,i,i,h,i,i,i,i,i,i,i,h,i,i,i,i,h,i,i,i,h,i,i,i,i,i,i,i,i,i,i,i,i,i,i,i,i,i,h,i,i,i,i,h,i,i,h,h,i,h,i,i,i,h,h,i,h,i,i,h,i,i,h,h,i,i,i,i,i,i,h,i,i,h,i,i,h,i,h,i,i,h,i,i,i,h,i,i,h,i,h,i,h,i,h,i,i,i,i,h,i,i,i,i,i,i,h,i,i,h,i,i,h,h,i,i,h,i,h,h,h,i,i,i,i,i,i,i,h,i,i,i,h,h,i,i,h,i,i,h,i,i,h,h,i,h,i,i,h,h,i,i,i,i,i,h,i,i,h,i,h,i,i,i,i,i,h,i,h,i,i,h,i,h,i,h,i,i,i,i,i,i,i,i,i,i,i,i,i,i,i,i,i,i,i,i,h,i,i,h,i,h,i,h,i,h,h,i,h,i,i,h,i,i,h,h,i,i,i,h,i,i,i,i,i,h,i,i,i,i,i,i,i,h,i,i,h,h,i,h,i,i,h,i,i,i,h,i,h,i,h,i,i,i,i,h,h,i,i,i,h,i,h,i,i,h,i,i,h,i,i,h,h,i,h,h,i,i,h,h,i,h,i,h,h,i,i,i,i,i,i,i,h,i,i,i,i,h,i,i,i,i,i,h,i,h,i,h,i,i,i,i,h,i,i,h,i,i,h,i,i,i,i,i,i,i,i,i,i,i,i,i,i,i,i,i,i,i,i,i,i,i,i,i,i,i,i,h,i,i,i,i,i,h,i,i,i,i,h,i,i,i,h,i,i,h,i,h,i,i,h,i,i,h,i,h,h,h,i,i,i,i,i,i,i,i,i,i,i,h,i,h,i,i,h,i,i,i,i,i,h,i,h,i,h,i,h,i,h,i,i,h,h,i,i,i,h,i,i,i,i,i,i,i,i,i,i,i,i,i,i,i,i,i,i,i,h,i,h,i,i,h,i,i,i,h,i,i,h,h,i,i,h,i,h,i,h,i,i,h,i,h,i,i,i,i,i,h,h,i,h,i,i,h,h,i,i,i,h,h,i,h,i,h,i,i,i,i,i,i,i,i,i,i,i,i,i,i,i,i,h,h,h,i,i,i,i,i,i,h,i,h,i,i,h,i,h,i,i,h,i,h,i,i,h,i,i,h,i,i,h,h,i,h,h,i,i,i,h,i,i,i,i,i,i,i,i,i,i,i,i,h,i,i,i,i,i,i,i,i,i,i,i,i,h,i,i,i,i,h,i,i,h,h,i,i,i,i,i,i,i,i,i,i,i,i,i,i,i,i,h,I,i,i,h,i,i,h,i,h,i,i,h,i,i,i,i,i,i,i,i,i,i,i,h,i,i,h,i,h,i,i,h,i,i,i,h,i,i,i,h,h,i,i,i,i,i,i,i,i,i,h,h,i,h,i,i,i,i,h,i,i,h,i,i,i,i,i,i,i,i,i,i,i,i,i,i,i,i,i,i,i,h,h,h,i,h,i,i,i,i,i,i,i,i,i,i,i,i,i,i,i,h,i,i,i,h,i,h,i,i,i,i,i,i,i,i,i,i,i,i,i,i,i,i,i,i,i,i,i,i,i,i,i,i,i,i,i,i,i,i,i,h,i,i,i,h,h,i,i,i,i,i,i,i,i,i,i,i,i,i,h,i,i,i,i,i,i,i,i,i,i,i,i,i,i,i,i,i,i,i,i,i,i,i,h,i,i,i,i,i,i,i,h,i,i,i,i,i,i,i,i,i,i,i,h,i,i,i,i,h,h,i,h,i,i,i,h,i,i,h,i,i,i,h,i,i,i,h,i,i,i,h,i,i,i,h,i,i,i,i,i,i,h,i,i,i,h,i,i,h,h,i,h,h,i,i,i,i,i,i,i,i,i,i,i,i,i,i,i,i,i,h,i,i,i,h,h,i,i,i,h,i,h,i,h,i,h,i,i,i,i,i,i,i,i,i,i,i,i,i,h,i,i,i,i,i,i,h,i,h,i,h,i,i,i,i,i,h,i,i,i,i,h,i,i,i,i,i,i,i,h,i,h,i,i,h,h,i,i,i,i,h,h,i,i,h,i,i,i,i,h,i,i,i,i,h,i,i,i,i,h,i,i,i,i,h,i,i,i,i,h,h,i,i,i,i,i,h,i,i,i,h,i,h,i,h,h,i,h,i,h,i,i,h,i,i,i,h,i,h,i,i,h,i,h,i,i,h,i,i,i,i,i,i,i,i,i,i,i,i,i,i,i,i,h,i,h,i,i,i,i,h,i,i,i,i,i,i,i,i,i,i,i,i,i,i,i,h,i,i,i,i,i,i,i,i,i,i,i,i,i,h,i,i,i,i,i,h,i,i,i,i,i,i,i,i,i,h,i,i,i,i,i,i,i,i,i,i,i,i,i,i,i,i,i,i,i,h,i,i,i,i,i,h,i,i,i,h,i,i,i,i,i,i,i,h,i,i,i,i,i,i,i,i,i,i,i,h,i,i,i,i,i,i,i,i,i,i,i,h,i,i,i,i,i,h,i,i,h,i,i,h,i,i,i,i,i,i,i,i,i,i,i,i,i,i,i,i,i,h,i,i,i,i,h,i,i,i,i,i,i,i,i,i,i,i,i,h,i,i,i,i,i,h,i,i,h,i,h,i,i,i,i,i,i,h,i,i,i,i,h,i,i,i,i,i,i,h,i,i,i,i,i,h,i,i,i,i,i,h,i,i,i,i,i,h,i,i,i,i,h,i,i,i,i,i,i,h,i,i,i,i,i,h,i,i,i,i,i,i,i,i,i,i,i,i,i,h,i,i,i,i,i,i,i,i,i,i,i,i,h,i,i,i,i,i,i,i,i,h,i,i,i,i,h,h,i,i,i,i,i,i,i,i,i,i,i,i,i,i,i,i,i,i,i,i,i,i,i,h,i,i,i,i,i,i,i,i,i,i,i,h,i,h,i,i,i,h,i,i,i,h,i,h,i,i,i,h,i,h,i,i,i,i,i,h,i,i,i,i,i,i,i,i,i,i,i,h,i,i,i,i,i,h,i,i,i,i,i,i,i,i,i,i,i,i,i,i,i,i,i,h,i,h,i,i,i,i,i,i,i,i,i,h,i,i,i,i,i,i,i,i,i,i,h,h,i,i,i,i,i,i,i,i,i,i,i,i,i,h,i,i,i,i,i,i,i,h,i,h,i,i,i,i,i,i,i,i,i,h,i,h,i,i,i,i,i,i,i,i,i,i,i,i,i,i,i,i,i,i,i,i,i,i,h,i,i,i,i,i,i,i,i,i,i,i,i,i,i,i,i,i,i,i,i,i,h,i,i,i,i,i,i,i,i,i,i,i,h,i,i,i,i,i,i,i,i,h,i,i,i,i,i,h,i,i,i,i,i,i,i,i,i,i,i,i,i,i,i,h,i,h,i,i,i,i,i,i,i,h,h,i,i,i,i,i,i,i,i,i,i,i,i,i,i,h,i,i,i,i,i,i,i,i,i,i,i,i,i,i,i,i,i,h,i,i,i,i,i,i,i,i,i,i,i,h,i,i,i,h,i,i,i,i,i,i,i,i,h,i,i,i,i,h,i,i,i,i,h,i,i,i,i,i,i,h,i,i,i,i,i,i,h,i,i,i,i,i,i,i,i,i,i,i,i,i,i,h,i,i,i,h,i,i,h,i,h,i,h,i,i,i,i,i,h,i,i,h,i,i,i,i,i,i,i,i,i,i,i,i,i,i,i,i,i,h,i,i,i,i,i,i,i,i,i,i,i,i,i,h,i,i,i,i,i,i,i,i,i,h,h,i,i,i,i,i,i,i,i,i,i,i,i,i,i,i,i,h,i,h,i,i,h,i,h,i,i,i,i,i,i,i,i,i,h,i,i,i,i,i,i,i,i,i,i,i,i,i,i,i,i,i,i,i,h,i,i,i,i,i,i,h,i,i,i,i,i,i,i,i,i,i,i,i,i,i,i,h,i,i,i,i,i,i,i,i,i,i,i,h,i,i,i,i,i,h,i,i,h,i,i,i,i,i,i,i,i,i,i,i,i,i,i,i,h,i,i,i,i,i,i,i,i,i,i,i,i,i,h,i,i,i,i,i,i,i,i,i,i,h,i,i,i,i,h,i,i,i,i,i,i,h,i,i,i,i,i,i,i,i,i,i,i,i,i,i,i,i,i,i,i,i,i,i,i,i,i,i,i,i,i,i,i,i,i,i,i,i,i,i,i,i,i,i,i,i,i,h,i,i,i,i,h,i,i,i,i,i,i,i,i,i,h,i,i,h,i,i,i,h,i,i,i,h,i,i,i,i,i,h,i,i,i,i,i,i,i,i,i,i,i,h,i,i,i,i,i,i,i,i,i,i,i,i,i,h,i,h,i,i,i,i,i,i,i,i,h,i,i,i,i,i,h,i,i,h,i,i,i,i,i,i,i,i,i,i,i,h,i,i,i,i,i,i,i,i,i,h,i,h,i,h,i,i,i,i,i,i,h,i,i,h,i,i,i,i,i,h,i,i,i,i,i,i,i,i,i,i,i,i,i,i,h,i,i,i,h,i,i,i,i,i,i,i,h,i,i,i,i,h,i,i,i,i,i,i,i,i,i,i,i,i,i,i,i,i,h,i,i,i,i,i,h,i,h,i,i,i,i,i,i,i,i,h,i,i,i,i,i,i,i,i,i,i,i,i,i,i,i,i,i,i,h,i,i,i,i,i,h,i,i,i,i,i,h,i,i,i,i,i,h,i,i,i,h,i,i,h,i,i,h,i,h,i,h,i,h,i,i,i,i,i,i,i,i,i,i,i,i,i,i,i,i,i,i,i,i,i,i,i,i,i,i,i,i,i,i,h,i,i,i,i,i,h,i,i,i,i,i,i,i,h,i,i,i,i,i,i,i,i,i,i,h,i,h,i,i,i,i,i,i,i,i,i,i,i,h,i,i,h,i,i,i,i,i,i,i,i,i,i,i,h,h,i,i,i,i,i,i,h,i,i,i,h,i,i,i,h,i,i,i,i,i,i,i,h,i,i,i,i,h,i,i,i,i,i,i,h,i,i,i,i,i,i,i,h,i,i,i,i,i,i,i,i,i,i,i,i,i,i,i,i,i,i,i,i,i,i,i,i,i,i,i,i,i,i,i,i,i,i,i,i,i,i,i,h,i,i,i,i,i,i,i,i,i,h,i,i,i,i,i,i,i,i,i,i,i,i,i,h,h,i,i,i,i,i,i,h,i,i,i,i,i,i,i,i,i,i,i,i,i,i,i,i,i,i,i,i,i,i,i,i,i,i,h,i,i,i,i,i,i,i,i,i,i,i,i,i,h,i,i,i,i,i,h,i,i,h,i,i,i,i,i,i,i,i,i,i,i,i,i,i,h,i,H,I,I,i,i,i,i,h,i,i,h,i,i,h,i,i,i,h,i,i,i,i,h,i,i,i,i,i,i,i,i,i,i,i,i,i,i,i,i,h,i,i,h,i,i,i,i,h,i,i,i,i,h,i,i,i,h,i,i,i,i,i,i,i,i,h,i,i,i,i,i,i,i,h,i,i,i,i,i,i,i,i,i,i,i,i,i,i,i,i,i,h,i,i,i,i,i,i,i,i,i,i,h,i,i,i,i,i,i,i,i,i,i,i,i,i,i,i,i,i,i,i,i,i,i,i,i,i,i,h,i,i,i,h,i,i,i,i,i,i,i,i,h,i,i,h,i,i,h,i,i,i,i,i,i,h,i,i,i,i,i,i,i,i,i,h,i,i,i,i,i,i,h,i,i,i,i,i,i,i,h,i,h,i,i,i,i,i,i,i,i,i,h,i,i,i,i,i,i,i,h,i,i,h,i,i,i,h,i,h,i,i,i,h,i,i,i,i,h,i,i,i,h,i,i,i,h,i,i,i,i,i,i,i,h,i,i,i,i,i,h,i,i,i,i,i,i,i,h,i,i,h,i,h,h,i,h,i,i,i,i,i,i,i,i,i,i,h,i,i,i,h,i,i,i,h,i,i,i,i,i,i,i,i,h,i,h,i,i,h,i,i,i,i,h,i,i,i,i,h,i,i,i,i,h,i,h,i,h,i,i,i,h,i,i,i,h,i,i,i,i,i,i,i,i,i,i,i,i,h,i,h,i,h,i,h,I,i,i,h,i,h,i,i,i,i,i,i,i,i,h,i,h,i,i,i,h,h,i,i,i,i,h,i,i,i,i,i,i,i,i,i,h,i,h,i,i,h,i,h,i,h,i,i,i,i,i,i,h,i,i,i,i,i,i,i,i,h,i,i,i,i,h,i,i,i,i,i,h,i,i,i,i,i,i,i,i,h,i,i,i,i,i,i,i,i,i,i,i,h,h,i,h,i,i,i,i,i,i,i,i,i,h,i,i,i,i,h,i,i,i,i,i,i,i,i,i,h,i,h,i,i,i,i,h,i,h,i,i,i,h,i,i,i,i,i,i,h,h,i,h,h,i,i,i,i,i,i,i,h,i,h,h,i,h,h,i,i,i,i,h,i,h,i,i,i,i,h,i,i,i,i,h,i,h,i,i,h,i,h,i,i,i,i,i,i,h,h,i,h,i,h,i,i,h,i,i,i,i,h,i,i,i,i,i,i,h,i,i,i,i,i,i,i,i,i,i,h,i,i,h,i,i,i,i,i,h,h,i,i,i,i,i,i,h,i,i,h,i,i,i,i,i,h,h,i,i,i,i,i,h,i,i,h,i,i,i,i,i,i,i,h,i,i,i,i,i,h,i,i,i,h,i,i,i,i,i,i,i,i,i,i,i,h,h,i,i,i,i,h,i,i,i,i,i,i,i,h,h,i,i,i,i,i,h,i,i,i,i,i,i,i,i,i,i,i,i,h,i,i,i,i,i,i,i,i,i,i,i,i,i,i,h,i,h,i,i,i,i,i,h,i,i,i,i,i,i,i,h,i,i,i,h,i,h,i,i,i,i,i,i,i,i,h,i,i,i,i,i,h,i,i,i,i,i,i,h,i,h,i,h,i,h,i,h,i,i,i,i,i,h,i,i,h,i,h,i,i,i,i,i,i,i,i,i,i,i,i,i,i,i,h,i,i,i,h,i,i,h,h,i,h,i,i,i,i,h,i,i,i,i,i,h,i,i,i,i,h,i,i,i,i,i,i,h,i,i,i,h,i,i,i,i,i,i,i,h,i,i,h,h,h,i,h,i,i,i,i,i,i,i,i,i,i,i,i,i,i,i,i,i,i,h,i,h,i,i,i,h,i,h,i,i,i,i,i,h,i,i,i,i,i,h,i,i,h,i,i,i,h,i,i,i,i,h,i,i,i,i,i,i,i,h,i,i,i,i,i,i,i,i,h,i,h,i,h,i,i,h,i,h,i,h,i,h,h,i,i,i,i,i,i,i,i,i,i,h,i,h,i,i,i,i,h,i,i,i,i,h,i,i,i,i,i,i,h,i,i,h,i,i,i,i,i,i,i,h,i,i,i,i,i,i,i,h,i,i,i,h,i,i,i,i,i,h,i,i,h,i,i,i,i,i,i,i,i,i,i,i,i,h,i,i,i,i,i,i,h,h,i,i,i,i,i,i,i,i,h,i,i,h,i,i,i,i,i,h,i,i,i,i,i,h,h,i,h,i,i,i,i,i,i,i,i,h,i,h,i,i,i,i,i,i,i,h,i,i,i,i,i,i,i,h,i,i,i,i,i,h,i,h,i,i,i,h,h,i,i,i,i,i,i,i,i,i,i,h,i,i,i,i,i,i,i,i,i,i,i,h,h,i,i,h,i,h,i,h,i,i,i,h,i,i,i,i,i,h,i,i,i,i,i,h,i,i,i,h,i,h,i,i,h,i,i,i,i,i,i,i,i,h,i,h,i,i,i,h,h,i,i,i,i,h,i,h,i,i,i,h,i,i,i,i,h,i,i,i,h,i,i,h,i,i,i,i,i,i,i,i,h,i,i,h,h,i,i,i,i,h,i,i,i,i,h,i,i,i,i,i,i,h,i,i,h,i,i,h,i,i,i,h,i,h,i,i,i,i,h,i,i,i,i,i,h,h,i,i,i,i,i,i,i,i,i,i,i,i,i,h,i,i,i,h,h,i,i,i,h,i,i,i,i,i,i,i,i,i,i,i,i,h,i,i,h,i,i,h,i,i,i,h,i,h,i,i,i,i,i,i,h,i,i,i,i,i,i,h,i,i,i,h,i,i,i,h,i,i,i,i,i,h,i,h,i,i,i,h,i,i,i,i,i,i,i,h,i,i,h,i,i,i,i,h,i,h,i,i,i,i,i,i,i,i,h,i,i,i,h,h,i,i,h,i,h,i,i,i,i,i,i,i,i,i,i,i,h,i,i,i,i,i,i,h,i,i,i,i,h,i,h,i,i,i,i,i,i,i,i,i,h,i,i,i,i,i,i,i,h,i,i,i,i,h,i,i,i,i,i,i,i,i,i,i,h,i,i,i,i,i,i,i,i,h,i,i,h,i,h,i,i,i,i,i,i,i,i,h,h,i,i,i,i,i,i,i,h,i,i,i,i,i,i,i,i,i,h,i,i,i,i,h,i,h,i,i,i,i,i,i,i,i,h,i,i,i,i,i,i,h,i,i,i,i,i,i,i,i,i,i,i,h,i,h,i,i,h,i,i,i,i,i,i,i,h,h,i,i,i,h,i,i,i,i,h,i,i,i,i,h,i,i,h,h,i,i,i,i,i,i,i,i,i,i,h,i,i,i,i,i,i,h,i,i,i,i,i,i,i,i,i,i,i,i,h,i,i,i,i,h,i,h,h,i,i,i,i,i,i,h,i,h,i,h,h,i,i,i,i,h,i,i,i,h,i,i,i,h,i,h,h,i,i,i,i,i,i,i,i,i,i,h,i,i,i,i,i,h,i,i,i,i,i,i,i,i,i,h,i,i,i,i,i,i,i,h,h,h,i,i,h,i,i,i,i,i,i,i,i,h,i,i,i,h,i,i,i,i,i,i,h,i,i,i,i,h,i,i,h,i,i,i,i,h,i,i,h,i,i,h,i,i,i,i,h,i,h,i,i,i,h,i,i,h,h,i,H,H,i,h,i,H,I,H,H,i,h,h,i,i,i,h,i,h,i,H,H,I,i,h,i,i,i,h,i,i,i,i,i,i,h,i,i,i,i,i,i,i,i,i,i,h,i,h,i,h,i,i,i,i,i,i,i,i,i,h,i,i,h,i,i,i,i,i,i,i,i,h,i,i,h,i,i,i,h,i,i,i,i,i,i,h,i,i,i,i,i,h,i,i,i,i,i,i,i,h,i,i,i,h,h,i,i,i,h,i,i,h,i,i,i,i,i,i,h,i,i,i,i,i,I,H,I,I,h,i,i,i,i,h,i,h,i,i,i,i,h,i,h,h,i,i,i,i,i,i,i,i,i,i,h,h,i,i,i,i,i,i,i,i,i,i,i,h,i,i,i,i,h,h,i,i,i,i,i,h,i,i,i,i,i,i,i,i,i,h,i,i,i,i,i,i,h,h,i,i,h,h,i,h,i,i,i,h,i,h,i,i,h,i,h,i,h,i,i,i,i,h,i,i,i,i,i,i,i,i,i,i,i,h,i,i,h,i,i,h,i,h,i,i,h,i,h,i,h,i,i,h,i,i,i,i,i,h,i,i,h,i,h,i,i,h,i,i,i,h,i,i,i,i,i,i,i,i,i,i,i,h,i,i,i,i,i,h,h,i,h,i,i,i,i,i,i,i,i,i,i,h,i,i,i,i,i,i,i,i,i,h,i,i,h,h,i,i,i,h,h,i,i,i,i,i,i,i,i,i,h,h,i,i,i,i,i,i,i,h,h,i,i,i,i,i,i,i,i,i,i,h,i,i,h,i,h,i,i,i,i,i,h,i,i,i,i,i,i,i,i,i,i,i,i,i,i,h,i,i,i,i,i,h,i,h,i,i,h,i,i,i,h,i,i,h,i,h,i,h,i,i,i,i,i,i,i,i,i,i,i,h,i,i,h,h,i,i,h,i,h,i,i,h,i,h,i,i,i,i,h,i,i,i,h,i,i,h,h,i,i,i,i,h,i,i,h,i,h,i,i,i,i,h,i,i,i,i,h,i,i,h,i,i,i,i,i,i,h,i,i,i,i,i,h,i,i,i,i,h,i,i,i,i,i,i,h,i,h,i,i,i,h,i,i,i,i,i,h,i,i,i,i,i,i,i,h,i,i,i,h,i,h,i,i,i,i,i,i,i,i,i,i,i,i,h,i,i,i,i,h,i,i,i,i,i,i,i,i,h,i,i,i,h,i,i,i,i,i,i,i,h,i,i,i,i,i,h,i,h,h,h,i,i,i,i,h,i,h,i,i,i,h,i,i,i,h,i,i,i,i,i,i,i,i,i,h,i,h,i,h,i,i,i,i,i,i,i,h,i,h,i,h,i,i,i,h,i,i,i,h,i,i,h,i,h,i,i,i,i,i,i,i,h,i,h,i,i,i,i,i,i,i,i,h,i,i,h,i,h,i,i,i,i,i,i,i,i,i,i,i,h,i,i,i,h,i,i,i,i,i,h,h,i,i,h,i,i,i,i,i,i,i,i,i,i,i,h,i,h,i,i,i,h,i,i,i,i,i,i,h,i,i,i,i,i,i,i,h,i,i,i,i,h,i,i,i,i,i,i,h,i,h,i,i,i,i,i,i,i,h,h,i,i,h,i,i,i,i,i,i,i,i,i,h,i,i,h,i,i,i,i,i,i,i,i,i,i,i,i,i,i,i,h,i,i,i,h,i,i,i,i,i,i,i,h,i,i,i,i,i,i,i,i,i,i,h,i,i,i,h,h,i,i,i,h,i,i,i,i,h,i,i,i,i,h,h,i,i,i,i,i,i,i,i,i,h,i,i,i,i,i,i,i,i,i,i,h,i,i,i,h,h,h,i,i,h,i,i,h,i,i,h,i,i,i,i,i,i,h,i,i,i,i,i,i,i,i,i,i,h,i,i,i,i,i,i,h,i,i,i,i,i,i,i,i,i,h,i,i,i,i,i,i,i,i,i,i,i,i,i,h,i,i,i,i,i,i,i,i,i,i,i,i,i,i,i,i,h,i,h,i,i,i,i,i,h,i,i,h,i,i,i,h,i,h,i,h,h,i,i,i,i,h,i,i,i,i,h,i,h,i,i,i,i,i,h,i,i,i,i,i,i,i,h,i,i,i,i,i,i,h,i,h,i,i,i,i,i,i,i,i,i,h,i,i,i,i,i,i,i,h,i,h,i,i,i,i,h,i,h,i,h,h,i,i,i,i,h,i,i,i,i,h,i,i,i,i,h,i,i,i,i,h,i,h,i,i,i,i,i,i,i,h,h,i,i,i,i,i,i,i,h,i,i,i,i,i,h,i,h,h,i,i,i,i,i,i,h,i,h,i,i,h,i,h,i,i,h,i,i,h,i,i,h,i,i,i,i,i,h,i,i,h,i,h,i,i,H,H,H,i,h,i,i,i,h,h,h,i,h,h,i,h,h,i,h,i,h,i,i,h,i,h,i,i,i,i,h,i,h,i,i,h,i,i,i,i,i,i,i,i,h,i,h,h,i,i,i,i,i,h,i,i,i,i,i,i,i,i,i,i,h,i,i,h,i,i,i,i,i,i,i,i,h,h,i,h,i,i,h,i,i,i,i,i,i,h,i,i,i,i,i,i,i,h,i,i,i,i,i,i,i,i,i,h,i,i,i,i,i,i,i,i,i,h,i,i,i,i,i,h,i,i,i,i,i,i,h,i,i,i,i,i,i,h,i,i,i,i,i,i,i,i,i,i,i,i,i,i,i,i,h,i,h,i,i,i,i,i,i,i,h,i,i,i,i,i,i,i,h,i,i,i,i,i,i,i,i,i,h,h,i,i,h,i,i,i,h,i,i,i,i,h,i,h,i,i,i,i,i,i,i,i,i,i,i,i,h,i,h,i,i,i,i,h,i,i,i,i,h,h,i,i,i,h,i,i,i,i,i,i,h,i,i,h,i,i,i,i,i,i,i,i,i,i,i,h,i,i,h,i,i,i,i,i,i,i,i,i,h,i,h,i,h,i,i,i,i,h,i,i,i,h,i,i,i,h,i,i,i,i,i,i,i,i,i,i,i,i,i,i,i,i,h,i,h,i,i,i,h,i,i,h,i,i,i,i,h,h,i,i,i,i,h,h,i,h,i,i,i,i,i,h,i,i,i,i,i,i,i,i,h,i,i,i,i,i,h,i,i,i,i,h,i,i,i,i,i,i,h,i,h,i,i,i,i,i,i,h,i,h,i,i,i,h,i,i,i,h,i,i,h,i,i,i,i,i,i,i,i,i,h,i,i,i,h,i,i,i,i,h,i,i,i,i,h,i,i,i,i,i,h,i,i,i,i,i,i,i,i,i,i,i,i,i,h,i,i,i,i,i,i,i,i,i,i,i,i,i,h,i,i,i,i,i,i,i,i,i,h,i,i,i,i,i,h,i,h,i,i,i,i,i,h,i,i,i,h,h,i,i,i,i,i,i,i,i,h,i,h,i,i,i,i,i,h,i,h,i,i,i,h,i,i,i,i,h,i,i,i,i,h,i,i,h,i,i,i,i,h,i,i,i,i,i,h,i,i,h,i,i,h,i,h,i,i,i,h,i,i,h,i,i,h,i,i,i,i,i,i,h,i,i,i,i,i,i,i,i,i,h,i,i,i,i,h,i,h,i,h,i,i,h,i,i,i,i,h,i,h,i,i,h,i,i,h,i,i,h,i,i,h,i,i,h,i,i,h,i,i,i,i,i,h,i,i,i,i,i,h,i,i,i,i,i,h,i,i,i,i,i,h,i,h,i,i,i,h,i,i,i,h,i,h,i,i,i,h,i,h,h,i,i,i,i,h,i,i,i,i,i,i,h,i,i,i,i,h,i,h,i,i,i,h,i,i,i,i,h,i,i,i,i,i,i,h,i,h,i,i,h,h,i,i,i,i,i,i,i,i,i,h,i,h,i,i,i,h,i,h,i,i,i,h,i,h,i,i,i,h,i,h,i,i,i,i,i,h,i,h,i,i,i,h,i,i,i,i,h,h,i,i,i,i,i,i,i,i,i,i,i,i,i,i,i,i,i,i,i,h,i,i,i,i,i,i,i,i,h,i,i,i,i,i,i,h,i,h,i,h,i,i,i,i,h,h,i,h,i,i,i,i,i,h,i,i,h,i,i,i,i,i,i,i,i,h,i,h,i,i,i,h,h,h,i,i,i,i,i,i,i,i,i,i,i,i,i,i,h,i,h,i,h,h,i,h,i,i,i,i,i,h,i,h,i,i,i,i,h,i,h,i,h,i,h,i,i,i,h,i,i,h,i,i,i,i,h,i,i,h,i,i,i,i,i,i,i,i,h,i,h,i,h,i,i,h,i,i,i,h,i,i,i,i,i,i,i,h,i,i,h,h,i,i,h,i,i,i,i,i,i,h,i,i,h,i,i,i,i,h,i,i,i,h,i,h,h,i,i,h,i,h,i,i,i,i,i,i,i,i,i,i,i,h,i,i,i,i,i,i,i,i,i,i,i,h,i,i,i,i,i,h,h,i,i,i,h,i,h,i,i,i,h,i,i,h,i,i,h,h,h,h,i,i,i,h,i,h,i,i,i,h,i,i,i,i,i,i,i,i,i,h,i,i,i,i,i,i,i,h,h,i,i,i,i,i,h,i,i,i,h,i,h,h,i,i,h,i,h,i,i,h,i,h,i,i,h,i,i,i,i,i,h,i,h,i,h,i,i,i,i,h,i,i,h,i,h,h,i,i,i,i,i,i,i,i,i,i,i,i,i,i,i,i,h,h,i,i,i,i,i,h,i,i,i,h,i,i,i,i,i,h,i,i,h,i,i,i,h,i,i,h,i,i,h,i,h,i,i,h,i,i,i,i,i,i,i,i,i,i,i,h,i,h,h,i,i,i,i,i,i,i,i,i,i,h,i,i,i,i,h,h,i,i,i,i,i,i,i,i,h,i,i,h,h,i,i,i,h,h,i,i,i,h,i,h,h,i,h,i,i,i,i,i,h,i,i,i,i,i,i,i,i,h,I,h,i,h,i,i,h,i,h,i,i,h,h,h,i,h,i,i,i,i,i,i,h,i,i,i,h,h,i,h,i,i,i,h,i,i,i,i,h,i,i,i,h,i,h,i,i,i,i,i,i,i,h,i,i,h,i,i,h,i,i,h,i,h,h,i,i,i,h,i,i,h,i,i,i,i,i,i,i,i,i,i,i,h,i,i,i,i,h,i,i,i,i,i,i,i,i,h,h,i,i,h,i,h,i,h,i,i,i,i,h,i,i,h,i,h,i,h,h,h,i,h,i,i,i,i,i,i,i,i,i,h,i,h,h,i,h,i,i,i,i,i,i,i,i,i,h,i,i,h,i,h,i,i,i,h,i,i,h,i,i,i,h,i,h,i,i,i,i,i,i,h,i,i,h,i,h,i,i,i,i,i,i,h,h,i,i,h,i,i,i,i,i,i,i,i,i,h,i,i,i,h,i,i,i,i,i,h,i,i,i,h,i,i,i,i,h,i,i,i,i,i,h,i,i,i,i,i,i,i,h,i,i,i,i,i,i,h,i,h,i,i,i,i,h,i,i,i,i,i,i,h,i,i,i,i,i,i,i,i,h,i,i,i,i,h,i,i,h,i,i,h,i,i,i,h,i,i,i,i,h,i,i,i,i,i,i,i,i,h,i,i,i,i,i,i,i,h,i,i,h,h,i,i,i,i,h,h,i,h,h,h,i,h,i,i,i,i,i,i,i,h,i,i,i,i,i,i,i,i,h,i,i,h,i,i,h,i,i,i,h,i,i,i,h,h,i,h,i,h,i,h,h,i,h,i,h,i,i,i,i,h,i,i,i,h,i,h,h,h,i,i,i,i,i,i,i,i,h,H,i,i,i,h,i,h,I,H,i,i,h,h,h,i,h,h,i,i,i,h,i,i,h,i,i,h,I,h,h,i,h,i,h,i,h,i,i,i,h,i,i,i,h,h,h,i,h,i,h,i,h,i,i,H,z,I,i,h,i,h,i,i,i,i,h,i,h,h,i,i,h,h,i,i,i,h,h,i,i,i,h,h,h,i,i,h,h,i,h,h,h,h,i,i,h,h,h,i,i,i,i,i,i,h,i,h,h,i,h,i,i,h,i,i,i,h,h,h,i,h,i,h,i,h,i,h,i,h,i,h,i,i,i,i,h,H,i,h,h,i,i,i,h,i,i,i,i,h,h,i,i,i,h,i,h,i,h,h,i,h,i,h,h,h,i,i,h,H,I,i,h,i,H,i,h,i,h,i,h,I,I,h,i,i,h,H,i,h,i,i,i,i,h,i,i,h,i,h,i,h,h,i,h,i,i,h,i,h,i,h,i,i,i,i,h,h,i,i,i,i,i,i,i,h,i,i,i,i,i,h,i,h,i,h,i,i,i,h,h,i,i,h,i,i,h,h,i,h,i,h,i,h,i,h,h,i,i,i,i,h,i,i,h,h,i,i,i,h,i,h,i,i,h,i,i,i,h,i,i,h,i,h,h,i,i,i,h,i,i,i,h,h,h,h,i,i,i,i,h,h,i,h,i,h,i,i,i,i,i,i,h,i,i,i,i,i,i,i,h,I,i,h,i,i,h,i,h,i,h,i,h,h,i,h,h,i,h,i,i,i,i,i,i,h,i,i,h,i,i,h,h,h,i,h,i,i,h,h,i,i,i,i,i,i,h,i,h,i,h,I,I,i,i,h,i,h,i,h,i,i,h,h,i,i,i,i,i,i,i,i,h,i,i,h,i,h,h,i,h,i,h,i,i,h,h,i,h,i,i,i,i,h,i,h,i,h,h,i,h,I,h,i,i,h,h,h,i,i,h,i,h,i,i,H,z,y,i,i,h,h,i,i,h,i,h,i,h,H,i,h,h,i,i,i,i,h,i,i,i,i,i,i,i,h,i,i,h,i,i,h,i,h,i,h,i,i,i,i,h,h,i,h,h,i,h,h,i,h,h,i,i,h,i,h,i,i,i,h,i,i,h,h,i,i,i,i,i,i,i,i,h,i,h,i,h,i,i,h,i,h,h,h,i,i,h,i,i,h,i,i,i,i,h,i,h,i,i,h,i,h,i,h,i,i,i,i,h,I,H,i,i,i,i,i,h,i,i,i,h,i,i,i,h,h,i,h,i,h,i,h,i,i,i,i,i,h,h,i,h,i,i,h,i,h,i,i,h,i,h,I,h,i,h,i,h,i,i,h,I,I,i,h,i,h,i,i,h,i,h,i,i,i,i,h,i,i,i,h,i,i,i,i,i,h,i,h,I,h,i,h,h,i,h,i,H,z,H,h,i,h,h,i,i,i,h,i,h,i,h,i,i,i,h,h,i,h,i,i,h,i,i,h,i,i,i,i,h,h,i,i,h,h,i,h,h,i,h,i,h,i,i,i,h,i,i,h,h,i,i,h,i,i,h,h,i,i,h,h,i,i,i,h,I,i,h,h,i,h,h,h,h,i,h,h,i,i,h,i,i,h,i,i,h,h,i,i,i,h,i,h,i,i,i,i,H,H,I,h,h,i,i,h,i,i,i,i,i,i,h,I,I,i,i,h,i,h,i,i,i,h,i,i,i,i,i,i,h,i,h,i,h,i,h,i,h,i,i,h,i,h,i,i,h,i,h,i,h,h,i,i,i,i,i,h,i,h,h,i,h,i,h,h,i,h,h,i,i,h,i,i,i,h,i,i,i,h,h,i,i,i,i,i,h,i,i,h,i,h,h,h,i,h,h,i,i,i,i,h,h,h,i,i,i,h,h,h,i,h,h,i,i,h,I,h,i,i,h,i,h,i,h,i,i,h,h,h,i,i,h,h,i,h,h,i,h,i,i,h,h,i,i,i,h,i,i,h,i,h,i,h,i,i,h,i,h,i,h,i,h,h,i,i,h,i,i,i,i,h,i,h,i,h,h,i,i,i,h,i,h,h,i,i,i,h,i,h,i,h,i,h,i,i,i,h,h,i,i,i,h,h,i,i,i,h,i,h,i,i,i,h,i,h,i,i,h,h,i,i,h,i,i,h,i,h,i,h,i,h,i,i,i,i,i,h,i,h,i,H,H,h,h,i,h,i,h,i,i,h,i,i,i,h,i,h,h,i,i,i,i,i,i,h,i,h,i,h,i,h,i,i,h,i,i,h,i,h,I,I,h,i,h,h,i,i,i,i,h,h,i,h,h,i,i,i,h,h,i,i,h,h,i,h,i,h,i,i,i,i,h,i,i,h,h,i,h,I,i,h,h,i,i,i,i,h,h,i,h,i,i,h,i,i,i,i,h,i,i,h,h,i,h,i,i,h,i,h,i,i,i,i,h,h,i,h,h,h,i,h,i,h,H,i,h,h,h,i,h,i,h,i,i,h,i,i,h,i,h,I,i,h,h,i,i,h,i,i,h,h,h,i,h,h,h,i,i,h,i,i,i,i,i,i,h,i,i,i,i,h,i,i,i,i,h,i,i,h,h,i,h,i,h,h,i,h,h,i,h,i,i,i,i,i,h,i,h,i,i,i,i,i,i,h,i,i,h,i,i,i,i,i,h,i,i,i,i,i,i,i,i,i,h,i,i,i,i,i,i,i,h,i,i,i,i,i,h,i,h,h,i,i,h,h,i,h,i,i,h,i,H,I,i,h,i,h,i,h,i,i,h,i,i,i,i,i,i,h,i,h,i,i,h,h,i,i,i,i,i,i,i,i,i,h,h,i,i,i,i,i,i,i,i,i,i,h,h,h,i,h,i,i,h,i,i,i,i,i,h,i,i,i,i,i,i,i,i,i,i,h,i,h,i,i,i,i,i,i,i,i,i,i,h,h,i,i,i,i,h,i,i,h,h,h,i,i,i,i,i,i,i,i,i,i,i,i,h,i,i,i,i,h,h,i,h,i,i,i,h,i,i,h,h,i,h,h,i,i,i,i,i,i,h,i,i,i,h,i,i,i,i,i,h,i,i,i,h,i,h,i,i,i,h,i,i,i,h,i,i,h,i,i,i,i,i,i,i,i,i,i,H,I,h,h,h,i,i,H,H,I,H,i,H,H,H,i,i,H,H,I,i,i,H,H,i,H,H,i,h,i,h,i,h,i,H,H,H,i,h,h,i,i,h,i,H,I,H,H,h,i,H,I,H,I,h,i,H,I,H,I,H,I,H,I,H,h,i,i,H,H,I,h,h,i,i,h,I,i,H,I,H,I,h,i,H,I,H,I,H,I,H,i,i,i,H,I,I,h,I,H,h,i,H,I,h,h,i,i,h,i,i,h,I,i,h,i,H,i,H,I,I,i,H,H,I,i,h,H,I,i,h,i,i,i,h,I,H,I,H,h,i,H,H,h,i,i,H,H,h,i,h,i,H,I,H,I,h,i,i,h,i,i,H,I,I,i,i,h,H,i,I,i,H,z,y,H,I,i,h,I,I,i,h,i,i,h,i,i,h,i,h,i,H,I,H,I,H,h,h,i,i,i,H,I,H,H,I,I,h,I,H,I,H,i,H,I,I,h,I,I,H,z,I,i,H,I,I,H,z,I,H,I,H,H,H,i,i,H,H,h,H,i,i,i,H,I,H,I,H,h,i,i,i,h,H,i,H,I,H,i,H,I,i,i,h,i,H,I,H,I,H,I,H,h,i,i,h,I,H,I,H,i,H,I,H,I,H,i,H,H,I,i,H,H,I,i,H,I,H,I,H,i,i,h,I,I,H,H,I,h,i,H,H,h,i,i,H,H,H,i,i,h,i,H,y,I,H,I,H,I,h,h,i,i,h,h,i,i,h,h,i,i,H,I,H,i,H,I,H,i,H,I,H,I,h,i,H,H,I,i,h,i,H,H,I,h,i,i,H,I,H,i,h,i,i,H,I,I,H,I,I,H,I,I,H,I,H,i,H,I,I,H,H,i,H,I,H,I,H,i,H,I,H,z,H,I,H,h,h,i,i,i,H,H,i,H,h,i,i,h,i,h,i,i,h,i,H,H,I,H,I,H,i,H,I,I,h,I,H,i,H,I,H,i,H,I,H,i,h,i,H,I,H,i,h,h,h,i,h,i,H,H,H,i,i,h,i,H,H,h,i,i,h,I,H,i,H,I,H,i,h,i,h,i,h,i,h,i,i,h,H,I,i,h,h,i,i,i,i,i,H,H,I,i,h,h,i,i,h,h,i,h,i,i,i,h,h,i,h,i,i,h,i,i,i,h,h,i,i,i,i,i,i,i,i,i,h,i,h,i,i,i,h,i,i,i,h,i,i,z,y,Y.H.H.Y,y.Y.Z.Z,z,i,h,h,h,h,i,i,i,i,i,i,i,h,i,i,i,i,h,i,h,h,i,i,i,i,i,i,i,h,i,i,i,i,h,i,i,h,i,i,i,i,i,h,h,i,i,i,h,h,i,i,i,i,i,h,i,i,i,h,h,i,i,h,h,i,i,i,h,i,i,i,i,i,i,i,i,i,h,i,i,i,i,i,i,i,i,i,i,i,h,h,h,h,i,i,i,h,h,i,i,i,h,h,i,i,i,i,i,i,h,i,h,h,i,i,h,i,i,i,i,h,i,i,i,i,h,h,i,i,i,h,i,h,i,i,i,i,i,i,i,h,h,i,i,i,h,i,h,h,i,h,h,i,i,i,h,i,i,i,i,i,i,h,i,i,i,i,h,i,h,i,i,i,h,h,i,h,i,h,h,i,i,i,i,h,i,h,i,h,h,h,h,h,i,i,h,i,i,i,i,i,i,h,i,h,i,i,i,i,i,i,h,i,i,i,h,i,h,h,i,i,i,h,i,i,h,i,i,i,i,i,i,i,i,h,h,i,i,i,h,i,h,i,i,i,i,i,i,i,i,i,h,h,i,i,i,h,i,h,i,h,i,h,i,h,i,i,i,i,i,i,i,i,h,i,i,i,i,i,i,i,h,h,h,h,i,i,i,h,i,h,i,h,i,i,i,h,i,i,i,i,i,h,i,i,i,h,i,i,i,h,i,i,h,i,i,h,i,i,h,i,i,i,i,h,i,i,i,i,i,h,i,i,h,i,i,i,h,i,i,i,i,h,i,i,i,h,i,i,i,h,i,h,i,h,i,i,h,i,i,i,i,i,i,i,i,h,i,i,i,i,i,h,i,i,i,i,i,i,h,i,i,h,i,h,i,i,h,i,h,i,i,i,i,i,i,i,h,i,h,h,i,i,h,i,i,h,i,i,i,h,i,h,i,i,i,h,i,i,i,h,h,h,i,i,i,i,i,h,i,h,i,i,h,i,h,i,h,i,h,i,h,i,i,h,i,i,i,i,h,i,h,i,i,h,i,i,i,i,i,i,i,h,i,i,i,h,i,i,i,i,i,h,i,h,i,i,i,i,h,i,h,i,i,i,h,i,h,i,i,h,h,h,i,i,i,h,i,i,i,h,i,h,h,i,h,h,i,i,h,i,i,i,h,i,i,i,h,i,i,i,i,h,i,h,h,i,i,i,i,h,h,i,i,i,h,i,i,i,h,i,i,h,i,h,h,i,i,i,h,i,i,h,i,i,i,h,i,h,h,i,i,i,h,h,i,i,i,i,i,i,h,i,i,i,i,h,i,i,h,i,i,h,i,h,h,i,h,i,i,h,i,i,h,i,h,h,i,i,i,i,i,i,i,i,h,h,i,i,i,i,i,i,i,h,i,i,h,i,i,i,i,i,i,i,h,i,i,i,h,i,i,h,i,h,i,i,i,h,h,i,h,i,i,i,h,i,i,i,i,i,i,h,h,i,i,i,i,h,i,h,h,i,i,i,i,i,i,h,i,i,i,i,i,i,i,i,i,h,i,i,i,i,i,i,i,i,h,h,i,i,i,i,i,i,h,i,i,h,h,i,i,i,i,h,i,i,i,i,h,i,i,i,h,i,i,i,i,i,h,i,i,i,h,i,i,i,i,h,h,i,h,i,h,i,i,i,h,i,i,i,i,i,i,h,i,h,i,h,i,i,i,i,h,i,i,i,i,i,i,i,i,i,i,i,h,i,i,i,h,i,h,h,h,i,i,i,i,h,i,i,h,h,i,i,h,i,i,i,i,i,i,h,i,i,i,i,i,i,i,i,i,h,i,i,i,i,h,i,i,i,i,i,i,i,i,h,h,i,i,i,i,i,h,i,h,i,i,i,i,h,i,i,i,i,i,i,h,i,i,i,i,h,h,i,i,h,i,i,h,h,h,i,h,i,i,h,i,i,i,h,i,h,i,i,i,h,i,h,i,h,i,i,i,h,i,h,i,i,i,i,i,i,h,i,i,h,i,i,i,i,i,h,i,i,i,i,i,i,i,h,i,i,i,i,h,i,i,i,i,i,i,i,h,i,i,i,i,i,i,i,i,i,h,i,i,h,i,h,i,h,i,i,h,i,i,i,i,i,h,h,i,i,h,h,i,i,i,i,i,h,i,i,h,h,h,i,i,i,i,i,i,i,i,h,i,h,i,i,h,h,i,i,h,i,i,i,h,i,i,i,h,i,h,h,i,i,h,i,h,i,h,i,h,i,h,i,i,h,h,i,i,i,i,i,h,i,i,i,i,i,i,i,i,i,h,h,i,i,i,i,i,h,Z.Z,z,z,h,i,i,i,z,y+Y.h.h.y.Y,Y.H.I.Z,H,i,i,i,h,i,i,i,z,y+Y,Y.h.h.h.Y.Y.y.h.h.I.Z,y,i,i,i,i,h,i,i,i,i,i,i,h,i,i,h,i,i,i,i,i,i,i,i,i,h,h,i,i,i,i,i,i,i,i,i,h,i,i,i,i,h,h,i,i,i,i,i,i,i,h,h,i,i,i,h,i,i,i,i,h,i,i,i,i,i,i,i,i,i,i,i,i,i,i,h,i,i,i,i,h,i,i,i,i,i,i,i,i,i,i,i,i,i,h,i,i,i,i,i,h,i,i,i,i,h,i,i,i,i,i,i,h,i,h,i,i,i,i,i,h,h,i,i,i,h,i,i,i,h,i,i,h,i,i,i,i,i,i,i,h,i,h,i,i,i,i,i,i,h,h,i,i,h,i,h,i,i,i,h,h,i,i,h,i,i,i,h,i,h,h,i,i,i,i,i,h,i,i,i,i,h,i,i,i,i,i,i,i,i,h,i,i,i,h,i,i,i,h,i,i,i,h,i,i,h,i,h,i,i,i,h,i,i,i,h,i,i,i,i,i,i,i,i,i,h,i,i,i,i,h,i,i,h,i,i,i,h,h,i,i,i,h,h,i,i,i,i,i,i,i,h,i,i,i,h,i,i,i,i,i,h,i,i,i,h,i,i,h,i,i,h,i,i,i,h,i,i,i,h,i,i,i,i,i,h,i,i,i,i,i,h,i,i,i,i,i,i,i,i,i,i,i,i,i,i,h,i,h,i,i,i,i,i,h,i,i,i,h,i,h,i,i,h,i,i,i,h,h,i,i,i,i,h,i,i,i,i,h,i,i,i,i,i,i,h,i,i,i,i,i,h,i,i,i,h,i,h,i,i,h,i,i,h,i,h,i,i,i,i,i,h,i,i,i,h,i,i,i,i,i,i,i,i,i,i,i,h,i,i,h,i,i,i,i,i,i,i,i,i,i,i,i,i,i,h,i,i,i,i,i,h,i,h,i,i,i,h,i,i,i,i,i,h,i,h,i,i,i,i,i,i,i,i,i,i,i,h,i,i,i,i,i,i,h,i,i,h,h,i,i,i,h,i,i,i,i,h,i,i,i,i,i,i,i,i,i,i,h,i,i,h,i,i,i,i,i,h,i,i,i,h,i,i,i,i,i,i,i,i,i,i,i,i,i,h,i,i,i,i,i,h,h,i,i,i,i,h,i,i,i,i,i,i,i,i,i,h,i,i,h,i,h,i,i,h,h,i,i,i,i,h,i,i,i,i,i,h,i,i,i,i,h,i,i,i,i,i,i,h,i,i,i,i,i,i,h,i,i,i,i,i,i,i,i,i,i,h,i,h,i,i,h,i,i,i,i,i,i,h,i,i,i,i,i,h,h,i,h,i,i,h,i,i,i,i,h,i,i,i,i,i,i,i,i,h,i,h,i,i,i,i,i,h,i,h,i,i,h,i,i,i,i,i,i,h,i,i,h,i,h,i,i,h,h,i,i,i,i,h,i,i,i,i,i,i,i,i,h,i,i,h,i,i,h,i,i,i,i,h,i,i,i,h,i,i,i,i,i,h,i,h,i,h,i,i,i,i,i,i,i,i,i,i,i,i,i,h,i,i,i,h,i,h,i,i,i,i,i,i,i,i,i,i,i,h,i,i,i,h,i,h,i,h,i,i,i,h,i,h,i,i,i,i,i,i,i,i,i,h,i,i,i,i,h,i,h,i,i,i,i,i,i,i,i,i,i,h,i,i,i,h,i,i,i,i,i,i,h,i,i,h,i,i,i,i,i,i,i,i,h,i,h,i,i,i,i,h,i,i,i,i,h,i,i,i,h,i,i,i,i,i,i,i,i,i,h,i,i,i,i,i,i,i,i,i,i,h,i,h,i,i,h,i,h,i,i,i,i,i,i,i,h,i,h,i,i,i,h,h,i,i,i,i,i,i,i,h,h,i,i,i,h,i,h,i,i,h,i,i,i,i,i,i,i,i,h,h,i,i,h,i,i,i,i,i,i,h,i,i,i,i,i,i,h,i,i,i,i,h,i,i,i,i,h,h,i,i,i,h,i,i,i,i,h,h,i,i,i,h,i,i,i,i,i,i,h,i,h,h,i,i,i,i,h,i,i,i,i,i,i,h,i,i,i,i,i,i,i,i,i,i,i,h,i,h,i,i,h,i,i,i,i,h,i,i,i,i,i,i,i,i,i,i,h,h,i,h,i,i,i,i,i,h,h,i,i,i,i,i,i,h,i,h,i,h,i,h,i,i,i,h,i,i,i,i,i,h,i,i,i,h,i,i,i,i,i,i,h,i,h,i,h,h,h,i,i,i,i,i,i,i,i,i,i,h,i,i,i,i,i,i,i,i,i,i,i,i,i,i,i,i,h,i,i,i,h,i,i,i,h,i,i,i,i,h,i,h,i,i,h,h,i,h,h,i,i,i,h,i,i,i,i,i,i,i,h,i,i,i,i,i,h,i,h,i,h,i,i,i,i,i,i,i,i,i,h,i,i,i,i,i,i,i,i,i,i,i,i,h,i,i,i,i,i,i,i,h,i,h,i,i,i,h,i,h,i,i,i,h,i,i,i,i,i,h,i,i,i,i,i,i,i,i,i,i,i,h,i,i,i,h,i,i,i,h,i,i,i,i,i,i,i,i,i,i,i,i,i,h,i,i,i,i,i,i,i,i,i,i,i,i,h,i,i,i,i,i,h,i,i,i,i,i,i,h,i,i,i,i,i,h,i,i,i,h,i,i,i,h,i,h,i,i,h,h,i,i,i,h,i,i,i,h,i,i,i,h,i,i,i,h,i,i,i,i,i,h,i,i,h,i,i,i,i,i,i,i,i,h,i,i,i,i,i,h,i,i,i,i,h,i,h,i,i,h,i,i,i,i,i,i,i,i,i,i,i,i,i,i,i,i,i,i,i,h,i,i,i,i,i,i,i,i,i,i,i,h,i,h,i,h,i,i,h,h,i,i,i,h,i,i,i,i,h,i,i,i,i,i,i,i,h,h,i,i,i,h,i,i,i,h,i,i,i,i,i,h,i,i,i,h,i,i,i,i,i,i,h,i,i,i,i,i,i,i,i,h,i,h,i,h,i,i,i,i,i,i,i,i,i,i,h,i,i,i,i,i,i,h,i,i,i,i,i,i,h,i,i,i,i,i,i,i,i,i,h,i,i,i,i,i,i,i,i,h,i,i,i,i,i,i,i,i,h,i,i,h,i,i,i,i,i,i,i,i,i,i,i,i,i,h,i,i,i,i,i,i,i,i,i,h,i,i,h,i,i,i,i,i,i,i,h,i,i,i,i,i,i,i,i,i,i,i,h,i,i,i,i,i,i,i,i,i,i,i,h,i,i,i,h,i,i,i,h,i,i,i,i,i,i,i,i,i,i,i,i,i,i,h,i,i,i,i,h,i,i,h,i,i,i,h,i,i,i,i,i,i,i,H,I,H,I,I,i,h,i,h,i,i,i,i,i,i,i,i,i,i,i,i,i,i,i,i,i,h,i,i,i,i,i,i,i,h,h,h,i,i,h,i,h,i,i,i,i,i,i,h,i,i,h,i,i,i,i,h,i,i,i,h,i,h,i,i,i,i,i,i,i,h,i,i,i,i,i,i,i,h,i,i,i,i,i,i,i,i,i,i,h,i,i,i,i,i,i,i,i,i,h,i,i,i,i,i,i,h,i,i,i,i,i,i,h,i,h,i,i,i,i,i,i,i,i,i,i,h,i,i,h,i,i,h,i,h,i,i,i,i,i,i,i,i,i,i,h,h,i,i,i,h,h,i,i,i,i,i,h,i,i,h,i,i,i,i,h,i,i,h,i,i,h,i,i,i,i,i,i,i,i,i,h,i,i,i,i,i,i,i,h,i,i,i,i,i,i,h,i,h,i,i,i,i,i,i,i,i,i,i,i,i,i,i,i,i,i,i,i,i,i,i,i,i,i,i,h,i,i,h,i,i,i,i,h,i,i,i,i,i,h,i,i,i,i,i,i,h,i,i,i,i,i,i,i,i,i,i,i,h,h,i,i,i,i,h,i,i,h,i,i,i,i,i,i,i,i,h,i,h,h,i,i,h,i,i,i,i,h,h,i,i,i,i,i,h,i,i,h,i,i,h,i,i,i,i,i,h,i,h,i,h,i,i,i,h,i,h,i,i,h,i,i,h,i,i,i,i,i,i,i,i,i,i,i,i,i,h,i,i,i,i,h,i,i,i,i,i,i,i,i,i,i,i,i,i,i,i,i,i,i,i,i,i,i,i,i,h,i,i,i,h,i,i,i,i,i,h,i,h,i,i,i,i,i,i,i,h,i,i,h,i,i,i,h,h,i,i,h,i,i,i,i,i,i,i,i,i,i,i,i,i,i,h,h,i,i,i,i,i,i,i,i,i,i,i,h,i,i,i,i,i,h,i,h,i,i,h,i,i,i,i,i,h,i,i,i,i,i,h,h,i,i,i,i,i,i,i,i,i,i,h,i,i,i,i,i,i,i,h,i,i,i,i,h,i,i,i,i,i,i,i,i,i,i,h,h,i,i,i,i,i,i,i,i,h,i,i,i,h,i,i,i,i,i,i,i,i,h,i,i,h,i,i,i,i,i,i,i,i,i,i,i,i,i,i,i,i,i,i,i,i,h,i,h,i,i,i,i,i,i,i,i,i,i,i,i,i,i,h,i,i,i,i,i,i,i,i,i,i,h,i,i,i,i,i,i,i,i,i,h,i,i,h,i,h,i,i,i,i,i,h,i,h,i,i,i,i,i,h,i,i,i,i,i,i,i,i,i,h,i,i,h,h,i,h,i,i,h,i,i,i,i,h,h,i,h,i,i,h,i,i,i,h,I,h,i,h,i,i,i,i,i,i,i,i,i,i,i,i,i,i,h,x,H.Z.Z,i,i,i,i,h,h,i,i,h,i,i,i,i,i,h,i,i,h,i,i,i,h,h,i,i,i,i,i,i,i,i,i,i,i,i,i,h,i,h,i,i,i,i,i,i,i,i,i,i,i,i,i,i,h,i,i,h,h,i,i,i,i,h,i,h,i,h,h,i,i,h,i,h,h,h,i,i,i,i,i,i,i,i,i,i,i,i,i,h,i,i,h,i,h,i,i,i,i,i,i,h,i,i,i,h,i,i,i,i,i,i,i,i,i,i,i,i,i,h,i,i,i,i,i,i,i,i,i,i,i,i,i,i,i,i,i,i,i,h,h,i,i,i,i,i,i,i,i,i,i,i,i,i,i,h,i,h,i,i,i,h,i,i,i,h,i,i,h,h,i,i,i,i,i,i,i,i,i,i,i,i,h,i,i,i,h,i,h,i,h,i,i,i,i,h,h,X.y.Z,i,i,i,i,i,i,i,h,i,i,i,i,i,i,i,h,h,i,i,i,i,i,h,i,i,i,i,i,i,i,i,i,h,i,i,i,i,i,h,i,h,i,i,i,i,i,i,i,i,h,i,i,i,i,i,i,i,i,h,i,i,i,h,i,i,i,i,i,h,h,i,i,h,h,i,i,i,i,i,h,i,i,i,i,i,i,i,h,i,i,i,i,i,i,i,i,h,i,i,i,h,i,i,i,i,i,h,i,i,i,h,i,i,i,i,i,i,i,i,i,h,i,i,i,i,i,h,i,h,i,h,i,i,i,i,i,h,h,i,i,i,i,i,h,i,i,i,i,i,i,i,i,h,i,i,i,i,i,i,i,h,i,i,i,h,i,i,h,i,i,i,i,h,i,i,i,i,i,i,i,h,i,i,i,i,i,i,h,i,i,i,i,i,i,h,i,h,i,i,i,i,i,i,i,i,i,i,i,i,i,i,i,i,i,i,i,h,i,i,i,i,i,i,i,i,i,h,h,i,h,i,i,h,h,i,i,i,i,i,i,i,i,h,i,h,i,h,i,i,i,h,i,h,i,i,i,h,i,h,i,h,i,h,i,i,i,i,i,i,i,i,h,i,i,i,i,i,i,i,i,h,i,i,h,i,i,h,i,i,h,i,i,h,i,i,i,h,i,h,i,i,i,i,i,i,i,i,h,i,i,i,h,i,i,h,i,h,i,h,i,i,i,h,h,i,i,i,i,h,i,i,h,i,i,h,i,i,h,i,i,h,i,h,i,i,i,h,i,i,h,i,i,i,i,i,i,i,i,h,i,h,i,i,i,h,i,i,i,i,i,h,i,i,i,h,i,h,i,h,i,i,i,i,i,h,i,i,i,i,h,i,i,i,i,h,i,i,i,i,i,h,i,h,i,h,i,h,i,i,h,i,i,h,i,i,i,i,i,h,i,i,i,i,i,h,i,i,i,h,i,h,i,i,h,i,i,h,i,i,i,i,i,h,i,h,i,i,h,i,i,h,i,i,i,i,i,h,i,i,i,i,i,i,i,i,i,h,i,h,h,i,i,h,i,i,i,i,i,i,i,h,i,i,i,h,i,i,h,h,i,i,i,i,h,i,i,h,i,i,i,h,i,h,i,i,i,i,i,h,i,i,h,i,h,i,i,i,i,i,h,i,i,i,i,i,i,h,i,i,i,i,i,h,i,h,i,i,i,i,h,i,i,i,i,h,i,i,i,i,i,i,h,I,h,i,i,h,h,i,i,h,x.y,Z.Z,i,h,i,i,h,i,h,i,i,i,i,h,i,h,i,h,i,h,I,i,i,i,i,h,i,h,i,i,i,i,i,i,i,h,i,i,h,i,i,i,i,h,i,h,i,i,i,i,h,i,i,h,i,H,H,I,i,i,i,h,i,i,h,i,i,h,i,h,i,i,i,h,i,i,h,i,i,h,h,i,i,i,i,i,i,i,i,i,i,h,i,i,i,i,i,h,h,h,i,i,h,i,h,i,i,i,i,i,h,i,h,i,i,h,i,i,i,i,i,h,i,i,h,h,i,h,i,i,h,i,i,h,i,i,i,i,i,i,i,i,i,h,i,i,i,i,i,i,i,i,i,i,i,i,i,h,i,i,i,i,i,i,h,i,i,i,i,h,i,i,i,i,i,h,h,i,i,i,h,i,i,i,h,i,i,i,i,h,i,i,i,h,i,i,i,i,i,i,i,i,h,i,i,h,i,i,i,i,i,h,i,h,i,i,i,i,i,i,i,i,h,i,h,i,i,h,i,h,i,i,i,i,h,i,h,i,i,i,i,h,i,i,i,i,i,i,i,i,i,i,i,h,i,i,i,i,i,h,h,i,i,i,i,i,h,i,i,i,i,i,i,h,i,i,i,h,i,i,i,h,i,h,i,i,h,i,i,h,i,i,h,h,i,h,i,h,i,i,i,h,i,i,i,i,i,i,h,i,i,h,h,i,h,i,i,i,i,i,h,i,i,i,i,h,i,h,i,i,i,h,i,i,i,i,i,i,i,i,h,i,i,i,i,i,h,i,i,i,i,i,i,i,i,i,h,i,i,i,i,i,i,i,i,i,i,i,i,i,i,i,i,h,i,i,h,i,i,h,i,i,i,i,i,h,i,i,i,h,i,i,i,i,i,h,i,i,h,G,Y.y.Z,i,i,h,i,i,i,i,i,h,i,h,i,i,i,h,i,i,i,i,i,i,i,i,h,i,i,i,i,i,i,i,h,i,i,h,i,i,i,h,i,i,i,i,i,i,h,i,i,i,i,i,i,i,i,i,i,i,i,h,i,h,i,i,i,i,i,i,i,i,i,i,i,i,i,h,I,H,i,i,h,i,i,i,i,i,i,h,i,h,i,i,i,h,i,i,h,i,i,h,i,i,i,i,i,h,i,h,i,h,i,h,i,i,i,i,i,i,i,h,i,i,i,h,i,i,i,i,i,h,i,i,i,h,i,i,i,i,i,i,i,i,i,i,i,h,i,i,i,i,i,i,i,i,i,i,h,i,h,h,i,i,h,i,i,h,h,i,i,i,i,i,i,i,i,i,h,i,i,i,i,i,i,i,i,i,i,h,i,h,i,i,i,i,i,h,i,i,i,i,i,i,i,h,i,i,i,i,i,h,i,i,i,i,h,i,i,i,i,h,i,h,i,i,i,h,h,i,i,i,i,i,i,i,i,i,i,i,i,i,h,h,i,i,i,i,i,i,i,i,h,i,h,i,i,h,i,i,i,i,i,h,h,i,i,i,i,i,i,i,h,i,i,i,i,i,i,h,i,h,i,i,h,i,i,h,i,i,h,i,i,h,h,i,i,h,i,i,i,i,i,i,i,i,i,i,i,i,i,h,i,h,i,i,i,h,i,i,i,h,i,i,h,i,i,i,h,i,i,h,i,i,i,i,i,i,i,i,i,i,h,h,h,i,i,h,i,i,h,i,i,h,i,i,i,i,i,i,h,i,i,i,i,h,i,i,h,i,i,i,i,i,i,h,i,i,i,i,i,i,h,i,i,i,i,i,h,i,i,h,i,i,i,i,i,i,i,i,i,i,i,h,i,h,i,h,h,i,i,i,h,h,i,i,i,i,i,i,h,i,i,i,i,i,i,i,h,i,i,i,i,i,i,i,i,h,h,i,i,i,h,i,i,i,i,i,i,i,i,h,i,i,i,i,i,i,h,i,i,h,i,i,i,i,i,h,i,i,i,i,i,i,i,i,i,h,i,i,i,i,h,i,i,i,i,i,h,i,i,i,i,i,i,i,i,i,i,i,i,h,h,i,h,h,i,i,i,h,i,i,i,i,h,i,h,i,i,i,i,i,i,h,i,i,i,h,h,i,i,i,i,i,i,i,h,i,i,i,i,h,h,i,i,h,i,i,i,i,i,i,i,i,h,i,i,i,i,i,i,i,i,i,i,h,i,i,h,i,i,h,i,i,i,i,i,h,i,i,i,h,i,i,h,i,i,i,i,i,i,i,i,h,i,i,h,i,i,h,i,i,h,i,i,i,i,i,i,i,h,h,i,i,i,i,i,h,i,h,i,i,i,h,h,i,i,i,i,i,h,h,h,i,h,i,i,i,h,i,h,i,i,i,i,i,i,h,i,h,i,i,i,i,h,i,h,i,i,i,i,i,i,i,i,i,i,i,h,i,i,i,i,i,h,i,i,i,i,i,i,h,i,i,i,h,i,i,i,i,i,i,i,i,i,i,i,i,h,i,i,i,h,i,i,i,h,i,i,i,i,i,i,i,i,i,h,i,i,i,i,i,i,i,i,i,h,i,h,i,i,i,i,i,i,i,i,h,i,i,i,h,h,i,i,i,i,h,h,i,i,i,h,i,i,i,h,i,h,i,i,i,i,i,i,i,i,i,i,i,i,i,i,i,i,i,i,i,h,i,i,i,i,i,i,i,h,h,i,i,i,i,i,i,i,i,i,i,h,i,i,i,i,i,i,i,h,i,i,h,i,i,i,i,i,i,i,i,i,h,i,h,i,i,i,i,i,i,i,i,h,i,i,i,i,i,h,i,i,i,h,i,i,i,i,i,i,h,i,i,i,i,i,i,i,i,i,i,i,i,h,i,i,i,h,i,i,i,i,i,h,i,i,i,h,i,i,i,i,h,i,i,i,i,h,h,i,i,i,h,i,h,i,h,i,h,i,i,i,i,h,i,i,h,i,h,h,h,i,i,i,i,i,i,i,h,i,i,h,i,h,i,i,i,i,i,i,h,i,h,i,i,i,h,i,i,i,i,i,h,i,i,i,i,i,i,i,h,i,i,i,h,h,i,h,i,i,i,i,i,i,i,i,h,i,i,i,i,i,i,i,i,i,i,i,h,h,i,i,i,i,i,i,h,i,h,i,i,i,i,i,i,i,i,h,i,h,i,i,i,i,i,i,i,h,i,i,i,i,i,h,i,i,i,i,i,h,i,i,h,i,i,i,i,i,h,h,i,i,i,i,i,i,i,h,i,i,i,i,h,i,h,i,i,i,i,i,i,i,i,i,i,i,i,h,i,i,i,i,i,i,i,i,h,i,i,h,i,i,i,i,i,h,i,i,i,i,i,i,i,i,h,i,i,i,i,i,i,i,i,i,i,h,i,i,h,i,i,i,i,i,i,i,h,i,i,i,i,i,h,i,i,i,i,i,i,i,i,i,h,i,i,i,i,i,i,i,i,i,h,i,i,i,i,i,i,h,i,h,i,i,i,i,i,h,i,h,i,i,i,i,i,i,i,i,i,i,h,i,h,i,i,i,i,h,i,i,i,i,h,i,i,i,i,i,i,i,h,i,h,i,i,i,h,i,h,i,i,i,i,h,i,i,i,i,i,i,h,h,i,i,i,i,h,i,i,i,i,i,i,h,i,i,i,i,i,h,i,i,i,i,i,i,i,h,i,i,i,i,h,i,h,i,i,i,i,i,i,i,i,i,i,h,i,i,i,i,h,h,i,i,i,i,i,i,i,i,i,h,i,h,i,i,i,i,i,h,i,i,i,i,i,i,h,i,i,i,i,i,h,h,i,i,i,i,i,h,i,i,i,i,i,i,h,i,i,i,i,i,i,i,i,i,i,h,i,i,i,i,i,i,i,h,i,i,i,i,i,i,i,i,i,i,h,i,i,h,i,i,i,i,i,i,i,h,i,i,h,i,i,i,i,i,h,i,i,i,i,h,i,i,h,i,i,i,i,i,i,h,h,i,i,h,i,i,i,h,i,i,i,i,h,i,i,i,i,i,i,i,i,i,i,h,i,i,i,i,i,i,h,i,i,i,i,i,i,i,i,h,i,h,i,i,i,i,i,i,h,i,i,h,i,i,i,h,i,i,h,i,i,i,i,i,i,i,h,i,i,i,i,i,i,i,h,i,i,i,i,h,i,i,h,i,h,h,i,i,i,i,i,i,i,i,i,h,i,i,h,i,i,i,i,i,i,h,i,i,i,h,i,i,h,i,i,i,i,i,i,h,i,i,i,i,i,i,h,i,h,i,i,h,h,i,h,i,i,i,i,i,i,i,i,i,i,i,h,i,i,i,i,i,i,i,i,i,i,i,i,i,i,i,h,i,i,i,i,i,i,i,h,i,i,i,h,i,i,i,i,i,i,i,i,i,i,i,h,h,i,h,i,h,i,i,i,h,i,i,i,h,i,i,h,i,i,h,i,h,i,h,i,h,i,i,i,i,i,h,i,h,i,i,i,i,h,i,i,i,i,h,i,i,i,i,i,i,h,i,h,i,i,i,h,i,i,i,h,i,h,i,i,i,i,h,i,i,h,I,i,i,i,h,h,i,i,i,i,i,i,h,i,h,i,i,h,i,i,h,i,i,i,h,i,h,i,h,i,h,i,i,i,i,i,h,i,i,h,h,i,i,i,h,i,i,i,i,i,h,h,i,i,i,h,i,h,'
p1
.F-10197.354092647196
.S'From-Botnet-TCP-HTTP-Flu.CC-3'
p1
.F1.1000000000000001
.