ccopy_reg
_reconstructor
p1
(cpykov
Vector
p2
c__builtin__
dict
p3
(dp4
S'A'
F0.019131924614505996
sS'a'
F0.44660194174757284
sS'e'
F0.010850942318675044
sS'V'
F0.00028555111364934324
sS','
F0.4997144488863508
sS'1'
F0.00057110222729868647
sS'r'
F0.0099942889777270127
sS'U'
F0.00028555111364934324
sS'v'
F0.0019988577955454027
sS'u'
F0.0074243289548829245
sS'R'
F0.0011422044545973729
sS'E'
F0.0019988577955454027
stRp5
.ccopy_reg
_reconstructor
p1
(cpykov
Chain
p2
c__builtin__
dict
p3
(dp4
(S'u'
S','
tp5
F1
s(S'R'
S','
tp6
F1
s(S'1'
S'1'
tp7
F0.5
s(S','
S'e'
tp8
F0.02171428571428571
s(S'r'
S','
tp9
F1
s(S'A'
S','
tp10
F1
s(S'E'
S','
tp11
F1
s(S','
S'V'
tp12
F0.00057142857142857125
s(S','
S'r'
tp13
F0.019999999999999993
s(S','
S'U'
tp14
F0.00057142857142857125
s(S'V'
S','
tp15
F1
s(S','
S'A'
tp16
F0.038285714285714277
s(S'U'
S','
tp17
F1
s(S','
S'v'
tp18
F0.0039999999999999992
s(S','
S'E'
tp19
F0.0039999999999999992
s(S'a'
S','
tp20
F1
s(S'e'
S','
tp21
F1
s(S','
S'R'
tp22
F0.002285714285714285
s(S','
S'u'
tp23
F0.014857142857142853
s(S'v'
S','
tp24
F1
s(S'1'
S','
tp25
F0.5
s(S','
S'a'
tp26
F0.89371428571428546
stRp27
(dp28
S'_guess'
p29
g1
(cpykov
Vector
p30
g3
(dp31
S'A'
F0.019131924614505996
sS'a'
F0.44660194174757284
sS'e'
F0.010850942318675044
sS'V'
F0.00028555111364934324
sS','
F0.4997144488863508
sS'1'
F0.00057110222729868647
sS'r'
F0.0099942889777270127
sS'U'
F0.00028555111364934324
sS'v'
F0.0019988577955454027
sS'u'
F0.0074243289548829245
sS'R'
F0.0011422044545973729
sS'E'
F0.0019988577955454027
stRp32
sb.S'11,a,a,a,a,a,a,a,a,a,a,a,a,a,a,a,a,a,a,a,a,a,a,a,a,a,a,a,a,a,a,a,a,a,a,e,r,r,a,a,a,a,a,a,a,a,a,a,a,a,a,a,a,a,a,a,e,A,A,a,a,a,a,a,a,a,a,a,a,a,a,a,a,a,a,a,a,a,a,a,a,a,a,a,a,a,a,a,a,a,a,a,a,a,a,e,A,A,a,a,a,e,r,r,a,a,a,a,a,a,a,a,a,a,a,a,a,a,a,a,a,a,a,a,a,a,a,a,a,a,a,a,a,a,a,a,a,a,a,u,r,A,a,a,a,a,a,a,a,a,u,r,A,a,a,a,a,e,A,A,a,a,a,a,v,r,A,a,a,a,a,a,a,a,a,a,a,a,a,a,a,a,a,a,a,a,a,a,a,a,a,a,a,a,a,a,a,a,a,a,a,a,a,a,a,a,a,a,a,a,a,a,a,a,a,a,a,a,a,a,a,a,a,a,e,E,A,A,a,a,a,a,a,a,a,a,a,a,a,a,a,a,a,a,a,a,u,v,a,A,a,a,a,a,a,a,a,a,a,a,a,a,a,a,a,a,a,a,a,a,a,a,a,a,a,a,a,a,a,e,r,r,a,a,a,a,u,r,A,a,a,a,a,a,a,a,a,a,a,a,a,a,a,a,a,a,a,a,a,a,a,a,e,a,a,a,a,a,a,a,a,a,a,a,a,a,a,a,a,a,a,a,a,a,a,a,a,a,a,a,a,a,a,a,a,e,A,A,a,a,a,a,a,a,a,a,a,a,a,a,a,a,a,a,a,a,a,a,a,a,a,a,a,a,a,u,r,A,a,a,a,a,a,a,a,a,a,a,a,a,a,a,a,a,a,a,a,a,a,a,a,a,a,a,a,a,a,a,a,a,a,a,a,a,a,a,a,a,a,a,a,a,a,a,a,a,a,a,a,a,a,a,a,a,a,a,a,a,a,a,a,a,a,a,a,a,a,a,a,a,a,a,a,a,a,a,a,a,a,a,a,a,a,a,a,a,a,a,a,a,a,a,a,a,a,a,a,a,a,a,a,a,a,a,a,a,a,a,a,a,a,a,a,a,a,a,a,a,a,a,a,a,a,a,a,a,a,a,a,e,A,A,a,a,a,a,a,a,a,a,a,a,a,a,a,a,a,a,a,a,a,a,a,a,a,a,a,a,a,a,a,a,a,a,a,a,a,a,a,a,a,a,a,a,a,a,a,a,e,v,r,A,a,a,a,a,a,a,a,a,a,a,a,a,a,a,a,a,a,a,a,a,a,a,a,u,r,A,a,a,a,e,a,a,a,a,a,a,a,u,r,A,a,a,a,a,a,a,a,a,a,a,a,a,a,a,a,a,a,a,a,a,a,a,a,a,a,a,a,a,a,a,a,a,a,a,a,a,a,a,a,a,a,u,r,A,a,a,a,a,a,a,a,a,a,a,a,a,a,a,a,a,a,a,a,a,a,a,a,a,a,a,a,a,a,e,A,A,a,e,a,a,a,a,a,a,a,a,a,e,a,a,a,a,a,a,a,a,a,a,a,a,a,a,a,a,a,a,a,a,a,a,a,a,a,a,a,a,a,a,a,a,a,a,a,a,a,a,a,a,a,a,a,a,a,a,a,a,a,a,a,a,a,a,a,e,A,A,a,a,a,a,a,a,a,a,a,a,a,a,a,a,a,a,a,a,a,a,a,a,a,a,a,a,a,a,e,a,a,a,a,a,a,a,a,a,a,a,a,a,a,a,a,a,a,a,a,a,a,a,a,a,a,a,a,a,a,a,a,a,a,a,a,a,a,e,a,a,a,a,a,a,a,a,a,a,a,a,a,a,a,a,a,a,a,a,a,a,a,a,a,a,a,a,a,a,a,a,a,a,a,a,a,a,a,a,a,a,a,a,e,a,a,a,a,a,a,a,a,a,a,a,a,a,a,a,a,a,a,a,a,a,a,a,a,a,a,a,a,a,a,a,a,a,a,a,a,a,a,a,a,a,a,a,a,a,u,r,A,a,a,a,a,a,a,a,a,a,a,a,a,a,a,a,a,a,a,a,a,a,a,a,a,a,a,a,a,a,a,a,a,a,a,a,a,a,a,a,a,a,a,a,a,a,a,a,a,a,a,a,a,u,r,E,a,a,a,a,a,a,a,a,a,a,a,a,a,a,a,a,a,a,a,a,a,a,a,a,a,a,a,a,a,a,a,a,a,a,a,a,a,a,a,a,a,a,a,a,a,a,a,a,a,a,a,a,a,a,a,a,a,a,a,a,a,a,a,a,a,a,a,a,a,a,a,a,a,a,a,u,r,A,a,a,a,a,e,E,A,A,a,a,a,a,a,a,a,u,r,A,u,r,A,a,a,a,a,a,a,a,a,a,a,a,a,a,a,a,a,a,a,a,a,a,a,a,a,a,a,a,a,a,a,a,a,a,a,a,a,a,a,a,a,a,a,a,a,a,e,A,A,a,a,a,a,a,u,r,A,a,a,a,a,a,a,a,a,a,a,a,a,a,a,a,a,a,a,a,a,a,a,a,a,a,a,a,a,a,a,a,a,a,a,a,e,a,a,a,u,r,A,a,a,u,r,A,e,A,A,a,a,a,a,a,a,a,a,a,a,a,a,a,a,a,a,a,a,a,a,a,a,a,a,a,a,a,a,a,a,a,a,a,a,e,A,A,a,a,a,a,a,a,a,a,a,a,a,a,a,a,a,a,a,e,U,R,E,a,a,a,a,a,a,a,a,a,a,a,a,a,e,A,A,a,a,a,a,a,u,r,A,a,a,a,a,a,a,a,a,a,a,a,a,a,a,a,a,a,a,a,a,a,a,e,a,a,a,a,a,a,a,a,a,a,a,a,a,a,u,r,A,a,a,a,a,a,a,a,a,a,a,a,a,a,a,a,a,a,a,a,e,a,a,a,a,a,a,a,a,a,a,a,a,a,a,a,a,a,a,a,a,a,a,a,a,a,a,a,a,a,a,a,a,a,a,a,a,a,a,a,a,e,a,a,a,a,a,a,a,a,a,a,e,u,r,A,a,a,a,a,a,a,a,a,a,a,a,a,a,u,r,E,A,A,a,a,a,a,a,a,a,a,a,a,a,a,a,a,a,a,a,a,a,a,a,a,a,a,a,a,a,a,a,a,a,a,a,a,a,a,a,a,a,e,R,R,A,a,a,a,a,a,a,a,a,a,a,a,a,a,a,a,a,a,a,a,a,a,a,a,a,a,a,a,a,a,a,a,a,a,a,a,a,a,a,a,a,a,a,a,a,a,a,a,a,a,a,e,A,E,u,r,A,a,a,a,a,a,a,a,v,r,A,a,a,a,a,a,a,a,a,a,a,a,a,a,a,a,a,a,a,a,a,a,a,a,a,a,a,v,r,A,a,a,a,a,a,a,a,a,a,a,a,a,a,a,a,a,a,a,a,a,a,a,a,a,a,a,a,a,a,a,a,a,e,A,A,a,a,u,r,A,a,a,a,a,e,E,A,A,a,a,a,a,a,a,a,a,a,a,a,a,a,a,a,a,a,a,a,a,a,a,u,r,A,a,a,a,a,a,a,a,e,A,A,a,a,a,a,a,a,a,a,a,a,a,a,a,a,a,a,a,a,a,a,u,r,A,a,a,a,a,a,a,a,a,a,a,a,a,a,a,a,a,a,a,a,a,a,a,a,a,a,a,a,a,a,a,a,a,a,a,e,a,a,a,a,a,a,a,a,a,a,a,a,a,a,a,a,a,a,a,a,a,u,r,A,a,a,a,a,a,a,a,a,a,a,a,a,a,a,a,a,a,a,a,a,a,a,a,a,a,a,a,a,a,a,a,e,v,R,A,a,a,a,a,a,a,a,v,V,A,A,a,a,a,a,a,a,a,a,u,r,A,a,e,a,a,a,a,a,'
p1
.F-904.18436561747774
.S'From-Botnet-TCP-Unknown-CC-1'
p1
.F1.1000000000000001
.