(dp1
S'a'
F0.20405816544091224
sS'A'
F0.072610976690702628
sS'V'
F0.00033538557362911144
sS'b'
F0.022662482332367104
sS'e'
F0.063124356179479188
sS'f'
F2.395611240207939e-05
sS'+'
F0.49189085595189613
sS'*'
F7.1868337206238176e-05
sS'S'
F0.00035934168603119084
sS'.'
F0.0052224325036533074
sS'1'
F2.395611240207939e-05
sS'0'
F0.0049589152672304335
sS's'
F0.014828833576887144
sS'B'
F0.015763121960568238
sS'U'
F0.0049828713796325136
sS'v'
F0.031598112258342713
sS'2'
F2.395611240207939e-05
sS'R'
F0.0060608964377260859
sS'r'
F0.04175550391682438
sS'E'
F0.0196440121697051
s.ccopy_reg
_reconstructor
p1
(cstf.common.markov_chains
Matrix
p2
c__builtin__
dict
p3
(dp4
(S'+'
S'e'
tp5
F0.12833000535722983
s(S'+'
S'0'
tp6
F0.0012175522329907953
s(S'+'
S'r'
tp7
F0.084887741684118251
s(S'+'
S'a'
tp8
F0.41484439682462376
s(S'S'
S'R'
tp9
F0.066666666666666666
s(S'a'
S'+'
tp10
F1
s(S'.'
S'S'
tp11
F0.022935779816513763
s(S'0'
S'V'
tp12
F0.048309178743961352
s(S'+'
S'v'
tp13
F0.064238055812594355
s(S'+'
S'A'
tp14
F0.14761603272780402
s(S'*'
S'S'
tp15
F0.33333333333333331
s(S'1'
S'2'
tp16
F1
s(S'.'
S'0'
tp17
F0.0045871559633027525
s(S'R'
S'S'
tp18
F0.003952569169960474
s(S'0'
S'R'
tp19
F0.06280193236714976
s(S'v'
S'+'
tp20
F1
s(S'V'
S'+'
tp21
F0.2857142857142857
s(S'R'
S'.'
tp22
F0.039525691699604744
s(S'b'
S'+'
tp23
F1
s(S'R'
S'+'
tp24
F0.90118577075098816
s(S'+'
S'R'
tp25
F0.00048702089319631813
s(S'2'
S'*'
tp26
F1
s(S'A'
S'+'
tp27
F1
s(S'f'
S'+'
tp28
F1
s(S'0'
S'0'
tp29
F0.87439613526570048
s(S'*'
S'R'
tp30
F0.66666666666666663
s(S'0'
S'S'
tp31
F0.014492753623188406
s(S'e'
S'+'
tp32
F1
s(S'V'
S'R'
tp33
F0.42857142857142855
s(S'B'
S'+'
tp34
F1
s(S'R'
S'R'
tp35
F0.039525691699604744
s(S'+'
S'U'
tp36
F0.010130034578483417
s(S'.'
S'R'
tp37
F0.9678899082568807
s(S'U'
S'.'
tp38
F1
s(S'+'
S'b'
tp39
F0.046072176496371693
s(S's'
S'+'
tp40
F1
s(S'E'
S'+'
tp41
F1
s(S'+'
S'f'
tp42
F4.8702089319631812e-05
s(S'V'
S'V'
tp43
F0.071428571428571425
s(S'+'
S's'
tp44
F0.030146593288852091
s(S'.'
S'V'
tp45
F0.0045871559633027525
s(S'+'
S'E'
tp46
F0.039935713242098089
s(S'S'
S'S'
tp47
F0.13333333333333333
s(S'R'
S'V'
tp48
F0.0079051383399209481
s(S'r'
S'+'
tp49
F1
s(S'+'
S'B'
tp50
F0.032045974772317735
s(S'R'
S'*'
tp51
F0.0079051383399209481
s(S'V'
S'S'
tp52
F0.21428571428571427
s(S'S'
S'+'
tp53
F0.80000000000000004
stRp54
(dp55
S'itemlist'
p56
(lp57
sS'init_vector'
p58
(dp59
S'a'
F0.20405816544091224
sS'A'
F0.072610976690702628
sS'V'
F0.00033538557362911144
sS'b'
F0.022662482332367104
sS'e'
F0.063124356179479188
sS'f'
F2.395611240207939e-05
sS'+'
F0.49189085595189613
sS'*'
F7.1868337206238176e-05
sS'S'
F0.00035934168603119084
sS'.'
F0.0052224325036533074
sS'1'
F2.395611240207939e-05
sS'0'
F0.0049589152672304335
sS's'
F0.014828833576887144
sS'B'
F0.015763121960568238
sS'U'
F0.0049828713796325136
sS'v'
F0.031598112258342713
sS'2'
F2.395611240207939e-05
sS'R'
F0.0060608964377260859
sS'r'
F0.04175550391682438
sS'E'
F0.0196440121697051
ssb.S'12*S+b+b+b+a+b+b+a+a+a+00RR+A+00000000000SS+b+b+b+a+a+b+a+a+a+0RR+b+0000000000SR+a+a+a+B+b+b+b+b+a+A+b+A+a+a+000RR+a+R*R+a+a+a+b+B+b+b+b+a+a+b+a+a+b+R*R+a+000000SS+b+b+B+a+a+b+a+a+b+00000000000000000000000VR+B+e+E+a+a+e+A+B+a+a+a+a+a+a+a+a+a+e+v+v+e+a+v+r+A+a+a+a+a+a+a+a+a+a+E+A+B+E+e+A+a+e+A+A+a+a+a+a+a+a+a+a+a+e+s+v+E+a+v+r+A+a+a+a+a+a+a+a+a+a+e+A+B+E+e+a+A+e+a+a+a+a+a+a+a+a+a+a+a+e+s+v+e+A+v+r+A+b+a+a+a+a+b+a+a+a+e+B+B+e+e+A+a+E+A+A+a+a+a+a+a+A+a+a+a+e+s+v+e+a+v+r+A+a+a+a+a+a+a+a+a+a+e+B+B+e+e+a+A+e+A+A+a+a+a+a+a+a+a+a+a+e+s+v+E+a+v+r+A+a+a+a+a+a+a+a+a+a+e+E+b+e+e+a+a+e+A+B+a+a+a+a+a+a+a+a+A+e+a+b+e+e+a+v+r+A+a+a+a+a+a+a+a+a+a+e+s+v+e+a+A+E+A+A+a+a+a+a+a+a+a+a+a+e+A+B+e+E+a+v+r+a+a+a+b+a+a+a+a+a+a+e+s+v+E+a+A+e+a+a+a+a+a+a+a+a+a+a+b+E+A+E+R.R.V+E+a+v+r+a+a+a+a+a+a+a+A+A+A+e+s+v+e+a+a+E+A+A+a+a+a+a+b+a+a+b+a+e+a+B+E+e+a+v+r+A+a+a+a+a+a+a+a+a+a+e+s+v+E+a+A+e+A+A+a+a+a+a+a+a+a+a+a+e+A+b+e+E+a+v+r+A+a+a+a+a+a+a+b+a+a+e+s+v+e+a+a+e+A+A+a+a+a+a+a+a+a+a+a+e+B+B+e+e+a+v+r+A+a+a+a+A+A+a+a+a+A+e+s+v+E+a+A+e+A+A+a+a+a+a+a+a+a+a+a+e+A+E+E+e+a+v+r+A+A+a+a+a+a+a+a+A+A+e+s+v+e+a+A+e+a+a+a+a+a+a+a+a+a+a+a+e+E+b+e+e+a+v+r+A+a+a+a+b+a+b+a+A+b+e+s+v+E+a+a+e+A+A+a+a+A+a+a+e+a+a+b+E+a+B+e+e+a+v+r+A+b+A+a+a+a+b+a+a+b+e+v+v+e+a+a+e+A+A+a+a+a+a+A+b+a+A+B+e+a+b+e+e+a+v+r+a+a+a+a+A+a+b+a+a+a+e+s+v+E+a+A+e+A+A+a+a+a+A+a+b+a+a+b+E+b+B+e+E+a+v+r+A+a+b+a+a+A+a+a+a+b+e+s+v+E+a+A+e+b+a+a+a+a+a+a+b+a+a+b+e+a+E+e+e+a+v+r+A+a+a+A+a+a+b+a+A+b+e+s+v+E+a+A+e+A+A+A+a+a+a+a+b+a+a+b+E+a+B+e+e+A+v+r+A+a+a+a+a+a+b+A+a+b+e+v+v+E+A+A+e+A+A+A+a+a+a+a+a+a+a+b+e+a+B+E+e+A+v+s+A+b+a+a+a+A+r+r+b+e+s+v+e+a+a+e+A+A+a+a+a+a+a+A+a+a+B+e+A+B+e+e+a+v+r+A+a+a+A+A+a+0000000000VV+b+E+e+a+a+e+a+A+a+a+a+00000RR.00RR+b+a+a+a+e+A+B+e+E+a+A+e+A+A+a+a+a+00000000000000VS+B+e+e+A+A+e+A+a+a+a+B+a+a+a+a+a+a+e+s+v+E+a+v+r+A+a+a+b+a+a+a+a+a+a+e+a+e+E+e+a+A+e+A+A+a+a+b+a+b+a+a+a+a+e+s+v+e+a+v+r+A+A+a+b+a+a+a+a+a+a+e+A+b+e+e+a+A+e+A+a+a+a+b+a+a+a+a+A+a+e+s+v+e+a+v+r+A+a+a+b+A+A+a+a+a+a+e+a+b+e+E+a+A+e+A+A+a+a+b+A+a+a+a+a+a+e+s+v+e+a+v+r+A+b+a+E+A+a+a+a+a+a+e+A+b+e+e+a+A+e+A+A+a+a+b+a+a+A+a+a+A+e+s+v+e+a+v+r+A+b+a+b+a+a+a+a+a+a+e+B+b+e+e+A+a+e+A+A+a+a+B+a+a+a+a+a+a+e+s+v+e+a+v+r+A+A+a+b+a+a+a+A+a+a+E+A+B+e+e+a+A+E+A+A+a+a+b+a+a+a+a+a+a+e+s+v+e+a+v+r+A+a+a+b+a+a+B+a+a+a+e+a+b+e+E+A+A+e+A+A+a+b+b+a+a+a+a+a+a+e+s+v+E+A+v+r+B+a+a+b+a+A+a+a+a+a+e+A+B+e+E+a+A+e+A+A+a+a+b+a+A+a+a+a+a+e+s+v+e+a+v+r+A+a+a+B+a+a+a+a+a+a+e+A+B+e+E+a+B+e+a+A+a+a+b+a+a+a+a+a+a+e+s+v+e+a+v+r+a+a+a+b+a+a+a+a+a+A+e+A+B+e+E+a+A+e+A+A+a+a+b+a+a+a+a+a+a+e+s+v+a+a+v+r+a+a+a+b+a+a+a+a+a+a+e+A+B+A+e+A+A+e+A+A+a+a+b+a+a+a+a+a+a+E+s+v+E+a+v+r+a+a+a+B+a+a+a+a+a+a+e+a+B+E+e+a+B+e+A+A+a+a+b+a+a+a+a+a+a+e+v+v+e+a+v+r+A+a+a+b+a+a+a+a+a+a+e+A+b+a+e+a+A+e+a+A+a+a+b+A+A+a+a+a+a+a+s+v+e+B+v+s+a+A+a+b+a+a+a+a+a+a+a+a+b+a+a+a+A+e+A+A+a+A+b+A+A+a+a+a+a+e+s+v+e+a+v+r+a+a+a+b+A+a+a+a+a+a+e+B+B+e+E+A+a+e+A+a+a+a+b+a+a+a+a+a+a+e+s+v+e+a+v+r+A+a+a+A+000RR+a+a+a+a+e+a+B+e+E+a+A+E+A+A+a+a+a+000000000VR+B+E+e+a+a+e+a+A+a+a+A+a+a+a+a+a+a+e+s+v+E+a+v+r+a+A+a+a+a+a+a+a+a+v+s+b+e+E+a+A+e+A+A+a+a+a+a+a+a+a+a+a+e+s+v+E+a+v+r+A+A+a+a+A+A+a+a+a+v+r+B+e+E+a+A+e+A+A+a+a+a+a+a+a+A+b+a+e+s+v+E+a+v+r+A+a+a+A+a+a+a+a+a+v+r+B+e+E+a+A+e+A+A+a+a+A+a+a+a+a+a+a+e+s+v+e+a+v+r+A+a+a+a+a+a+a+a+a+v+r+B+e+E+a+A+e+A+a+a+a+a+a+a+a+a+a+a+e+s+v+e+a+v+r+a+a+a+a+a+a+a+b+a+v+r+B+E+e+a+A+E+A+A+a+a+a+a+a+a+a+a+a+e+s+v+E+a+v+r+A+b+A+a+a+A+A+a+a+v+s+B+e+e+a+a+e+A+A+A+A+a+a+b+a+a+a+a+E+s+v+e+a+v+r+A+a+a+a+a+a+a+a+a+v+r+b+e+e+a+A+e+A+A+a+a+a+a+a+a+a+a+a+e+s+v+e+a+v+r+A+a+a+a+a+a+a+a+a+v+r+b+e+e+a+a+e+A+a+a+a+a+a+a+a+A+a+a+E+s+v+e+a+v+r+A+a+a+a+A+A+A+a+a+v+s+b+E+E+a+a+E+A+a+a+a+a+a+a+A+a+a+a+e+s+v+E+a+v+s+A+a+a+a+a+a+a+a+a+v+r+B+e+e+a+a+e+a+a+a+a+a+a+a+a+a+a+a+e+s+r+e+a+v+r+A+A+a+a+a+a+a+A+a+v+v+b+e+e+a+A+e+A+a+a+a+a+a+a+a+a+a+a+e+s+v+E+a+v+r+A+a+a+a+A+a+a+a+a+v+r+B+e+E+a+A+e+A+A+a+a+a+a+a+a+a+a+a+e+s+v+E+a+v+r+A+a+a+a+a+a+a+a+a+v+r+b+e+e+a+A+E+a+a+a+a+a+a+a+a+a+a+a+e+s+v+e+a+v+r+a+a+a+a+a+a+a+a+a+v+r+b+e+E+a+A+e+A+A+a+A+A+a+a+a+a+a+a+e+s+v+e+a+v+r+A+a+b+a+a+A+a+a+a+v+s+B+e+A+A+a+e+A+a+a+a+a+a+a+a+a+a+A+e+v+v+e+a+v+r+A+a+a+a+A+a+a+a+r+r+b+e+E+a+B+e+A+a+a+a+a+a+a+a+a+b+a+e+s+v+e+a+v+r+A+a+a+a+a+a+a+a+b+r+r+b+a+E+a+A+e+A+a+a+a+a+a+a+a+a+b+a+E+s+v+e+a+v+r+A+a+a+a+a+a+a+a+b+v+r+b+e+e+a+A+e+A+A+a+a+a+a+a+a+a+b+a+e+s+r+e+a+v+r+a+a+a+a+a+a+a+a+b+v+r+b+e+e+a+A+e+A+A+a+a+a+a+a+a+a+b+a+e+s+v+E+a+v+r+a+a+a+a+a+a+a+A+b+v+r+b+e+e+a+A+e+A+A+a+a+a+a+a+a+a+b+A+e+s+r+e+a+v+r+A+a+a+a+a+a+a+a+b+v+r+B+e+e+a+A+e+A+a+A+a+a+a+a+a+a+a+0000RV+a+B+e+E+a+a+e+A+A+a+a+a+a+a+a+a+a+00RV+A+B+e+e+a+a+e+A+A+a+a+a+a+a+a+a+A+v+b+v+E+a+v+r+A+a+a+a+a+a+a+a+r+v+A+B+e+E+a+A+e+A+A+a+a+a+a+a+a+a+a+v+b+v+e+a+v+r+A+a+a+a+a+a+A+a+r+v+b+e+e+E+a+A+e+A+A+a+A+a+a+a+a+a+a+v+B+v+E+a+v+r+A+b+a+b+a+a+a+a+r+v+B+b+e+e+a+a+e+A+A+a+a+a+a+a+a+a+a+v+b+v+E+e+s+v+E+a+v+r+A+a+a+a+a+0RR+a+R.R+0000000VS+B+e+e+A+A+e+A+A+A+a+a+a+b+a+a+a+R.R+0000VS+B+E+e+a+A+e+A+A+a+A+a+a+b+a+a+a+R.R+000000000VR+B+e+e+a+a+e+a+a+b+b+a+a+A+R.S+00000000000000000000000VR+B+e+E+a+a+e+A+A+A+a+R.R+000000000000000000RR+b+A+A+a+e+A+b+e+E+a+A+e+A+a+b+a+R.R+0000VR+B+e+E+a+A+e+A+a+a+a+b+a+a+b+a+a+a+e+s+v+E+a+v+r+a+a+a+b+a+a+a+a+a+a+e+a+b+e+E+a+B+e+A+a+a+a+a+0000000000000000000RR+a+a+a+a+000VR+B+E+e+a+a+E+A+a+a+a+b+a+a+a+000RS+B+e+e+b+e+e+a+A+e+A+A+a+a+a+b+a+b+00000000000RR+b+e+A+B+e+e+a+A+e+A+A+a+a+a+a+A+a+a+a+b+E+s+v+e+a+v+r+a+a+a+a+a+a+r+r+b+e+a+B+E+E+a+A+e+A+a+a+a+a+a+a+a+a+a+b+e+s+v+e+a+v+r+A+b+a+a+a+a+r+r+b+e+a+B+e+e+a+A+e+A+B+a+A+a+a+a+a+a+A+b+E+s+v+E+A+v+r+a+a+a+a+A+a+r+r+b+e+B+E+e+E+a+A+e+a+a+A+A+a+A+a+a+A+A+b+e+s+v+E+a+v+r+A+a+a+a+a+a+r+r+b+e+A+B+E+e+A+A+e+A+A+a+a+a+a+a+a+A+a+b+e+s+v+E+a+v+r+A+a+a+a+a+a+r+r+b+e+a+B+e+E+a+A+e+A+A+a+a+a+a+a+a+A+A+b+E+s+v+E+a+v+r+A+a+a+a+A+a+r+r+B+E+B+B+e+E+a+A+e+A+A+a+a+a+a+a+a+A+A+b+e+s+v+e+a+v+r+A+a+a+a+a+a+r+r+b+e+b+b+e+E+a+A+e+A+A+a+a+a+a+a+A+a+a+b+e+s+v+e+a+v+r+B+a+a+a+a+a+r+r+b+e+b+B+e+E+a+a+e+A+b+a+a+a+b+a+a+a+a+b+e+s+v+e+a+v+r+A+a+a+a+a+a+r+r+e+e+b+b+e+e+a+A+E+a+A+a+a+b+a+a+a+a+a+b+e+s+v+E+a+v+r+A+a+a+a+a+a+r+r+b+E+a+b+e+E+a+a+E+A+A+a+a+a+a+a+a+A+A+B+e+s+v+E+a+v+r+A+a+a+a+a+a+r+r+b+e+A+b+e+e+a+A+e+a+a+a+A+A+A+a+a+a+a+b+E+s+v+e+A+v+s+A+a+a+a+a+a+r+r+b+E+a+B+e+E+a+A+e+A+A+a+a+a+a+a+a+a+a+b+E+s+v+e+a+v+r+a+A+a+r+s+b+A+B+A+e+A+B+e+E+a+A+e+A+a+a+a+a+A+a+b+a+B+a+e+s+v+E+a+v+r+A+a+A+r+r+b+A+b+a+E+A+B+e+E+a+a+e+a+A+a+a+a+a+a+b+A+B+A+e+s+v+e+a+v+r+A+a+a+r+r+b+a+b+a+e+A+B+E+e+a+A+e+A+A+a+a+A+a+a+b+a+b+a+e+s+v+e+a+v+r+A+a+a+r+r+b+A+b+a+e+b+B+e+E+a+A+e+A+A+a+a+a+a+a+b+a+b+a+e+s+v+e+a+v+r+A+a+a+r+r+b+A+B+A+E+A+B+E+E+a+A+e+A+B+A+a+a+a+a+b+A+b+a+e+s+v+e+a+v+r+A+a+a+r+r+b+A+b+a+e+A+B+e+E+a+a+e+A+A+a+a+a+a+a+b+a+b+a+e+s+v+e+A+v+r+A+a+a+r+r+b+A+b+a+e+A+B+E+e+a+A+e+A+A+A+a+a+a+a+b+a+B+A+e+s+v+e+a+v+r+A+a+a+r+r+b+a+b+a+e+B+b+e+e+a+A+E+a+a+a+a+b+a+A+b+a+b+a+e+s+s+E+b+s+r+A+a+a+r+s+b+a+b+A+E+A+B+e+E+a+a+e+A+A+a+a+a+a+A+b+A+B+A+E+s+v+e+a+v+r+A+a+A+r+r+b+a+b+a+e+A+B+e+e+a+A+e+A+A+a+A+a+r+r+b+A+b+a+e+s+v+E+a+v+r+A+a+a+r+r+b+A+b+a+e+A+B+e+e+a+A+e+A+a+a+a+a+a+a+b+a+b+a+e+s+v+e+a+v+r+A+a+a+r+r+b+A+b+a+E+A+B+E+e+a+A+e+A+A+a+a+A+a+a+b+a+B+a+e+s+v+e+a+v+r+a+a+a+r+r+b+a+B+A+E+A+B+e+E+a+A+E+A+A+a+a+a+a+a+B+a+b+a+e+s+v+e+a+v+r+A+a+a+r+r+b+a+b+a+e+A+B+E+e+a+a+e+A+A+A+a+a+b+a+b+a+b+a+e+s+v+e+a+v+r+A+a+a+r+r+b+a+b+a+e+b+B+E+E+a+A+e+a+A+a+a+a+a+A+B+a+b+A+e+s+v+e+A+v+r+A+a+a+r+r+b+a+b+a+e+a+b+e+e+a+a+E+a+A+a+a+a+A+a+b+a+B+a+e+s+v+E+a+v+r+A+a+a+r+r+b+A+B+a+e+A+B+e+e+A+A+e+A+B+A+a+a+a+a+b+a+b+a+e+s+v+e+a+v+r+A+b+a+r+r+b+a+b+a+e+b+b+e+e+a+a+e+A+A+A+a+a+r+r+b+A+B+A+e+s+v+E+a+v+r+A+a+a+r+r+b+A+b+a+e+A+B+e+E+a+A+e+A+A+a+a+a+a+a+b+a+b+a+e+s+v+e+a+v+r+A+a+a+r+r+b+a+b+a+e+A+B+e+E+a+A+e+a+A+a+a+a+a+a+B+a+b+a+e+s+v+e+A+v+r+b+A+a+r+r+b+a+b+a+e+A+B+E+E+a+A+e+A+A+a+a+a+A+a+b+a+b+a+e+v+v+e+a+v+r+A+a+a+r+r+b+a+b+a+e+A+B+e+e+a+A+e+A+A+a+a+a+a+A+b+a+b+A+e+s+v+E+a+v+r+A+a+a+r+r+b+A+B+a+e+A+b+e+E+a+B+E+a+b+a+a+a+a+a+b+a+b+A+E+s+v+E+a+v+r+A+a+a+r+r+b+a+b+a+E+A+B+E+e+a+B+e+A+A+a+a+a+a+a+b+A+b+a+e+s+v+e+a+v+r+A+a+a+r+r+b+a+B+a+e+a+b+e+E+a+A+e+A+B+a+a+a+a+a+b+a+b+a+E+s+v+e+a+v+r+A+b+a+r+r+b+a+b+a+E+A+B+e+E+a+A+e+a+A+a+a+a+a+A+b+A+B+a+E+s+v+e+a+v+r+A+a+a+r+r+b+A+b+a+e+a+B+E+e+a+A+e+a+A+a+a+a+a+a+b+a+b+a+e+s+v+e+a+v+r+A+a+a+r+r+b+a+b+A+E+B+b+e+e+a+B+e+a+a+a+a+a+A+a+b+a+b+A+e+s+v+e+a+v+r+A+a+a+r+r+b+a+b+a+E+B+b+e+e+a+B+E+B+A+a+a+a+a+a+b+a+b+a+e+s+v+e+a+v+r+A+a+a+r+r+e+A+b+a+e+A+B+E+e+a+b+e+A+A+a+a+a+a+a+b+a+B+a+e+s+v+e+a+v+r+A+a+a+r+r+b+A+b+a+e+b+b+e+E+a+A+E+A+A+a+a+a+b+a+b+a+e+A+e+s+v+e+a+v+r+A+a+a+r+r+b+a+b+A+e+A+B+e+e+a+A+e+A+A+a+a+a+A+A+b+a+b+a+e+s+v+E+a+v+r+a+a+a+r+r+b+a+B+a+e+A+B+e+E+a+A+e+A+A+a+a+a+A+a+b+a+b+a+e+s+v+e+A+v+r+a+a+a+r+r+b+A+B+a+e+A+B+E+e+a+A+e+A+A+a+a+a+a+a+b+a+b+a+e+s+v+e+a+v+r+a+a+a+r+r+b+a+b+A+E+A+B+e+E+a+B+s+v+e+a+a+e+A+A+a+a+B+a+b+a+a+a+a+e+s+v+e+a+v+r+A+a+A+b+a+b+a+r+r+e+A+B+e+E+a+A+e+a+A+a+a+b+a+b+A+a+a+a+E+s+v+e+a+v+r+A+a+A+b+a+b+a+r+r+e+b+B+e+E+a+a+e+a+A+a+a+b+A+B+a+a+A+a+e+s+v+e+A+v+r+A+A+a+b+a+r+a+r+e+A+B+e+e+a+A+e+A+A+a+a+b+a+b+a+a+b+a+e+s+v+e+a+v+r+a+a+a+b+a+r+a+r+e+A+B+e+E+a+A+e+A+A+a+a+b+a+a+A+a+a+a+e+s+v+E+a+v+r+A+a+a+b+A+r+a+r+e+a+b+e+e+A+A+e+A+A+a+a+b+B+a+a+a+a+a+e+s+v+e+a+v+r+a+a+a+b+a+r+a+r+e+a+B+e+E+a+A+e+A+A+A+a+e+A+a+a+b+a+a+e+s+v+e+A+v+r+A+a+a+B+a+r+a+r+e+A+B+e+e+a+A+e+A+a+a+a+b+A+a+a+a+A+a+e+s+v+e+a+s+r+A+a+a+b+A+r+a+r+b+A+B+e+e+a+A+e+A+A+a+a+b+a+a+A+a+a+a+e+s+v+e+a+v+r+a+a+a+b+a+r+a+r+E+A+B+E+e+A+A+e+A+A+a+a+b+a+a+a+a+a+a+e+s+v+e+a+s+r+A+a+a+b+A+r+a+r+e+B+E+e+E+a+a+e+A+A+a+a+b+A+a+b+a+a+a+e+s+v+e+a+v+r+A+a+a+b+a+r+a+r+e+B+B+e+E+a+A+e+A+A+a+a+b+A+a+a+a+a+a+e+s+v+E+a+v+r+a+a+a+b+A+r+a+r+e+b+b+e+e+a+A+e+A+A+a+b+b+a+a+a+a+A+a+e+s+v+e+a+v+r+A+A+a+b+a+r+a+r+e+A+B+e+e+a+A+e+A+A+a+a+b+A+a+a+a+a+a+e+s+v+e+a+v+r+A+a+a+b+a+r+A+r+E+A+B+e+e+a+A+e+A+A+a+a+b+a+a+a+a+a+A+e+s+v+e+a+v+r+A+a+A+B+a+r+a+r+e+B+B+e+E+a+a+e+A+A+a+a+e+A+a+a+a+a+a+e+s+v+e+a+v+r+a+a+a+b+a+r+a+r+e+A+B+e+e+a+a+e+A+A+a+a+b+A+a+a+a+A+A+e+s+v+e+A+v+r+A+a+a+e+A+s+a+r+e+A+B+E+e+a+A+e+a+A+a+a+b+a+A+A+a+a+a+e+s+v+e+a+v+r+A+A+A+B+a+r+a+r+e+A+B+e+E+a+A+e+a+a+a+a+b+a+a+a+a+a+b+e+s+v+e+a+v+r+A+A+a+b+A+r+a+r+e+b+B+e+e+a+a+e+A+A+a+a+b+A+a+a+a+A+a+e+s+v+e+a+v+r+A+a+a+b+a+r+a+r+e+B+B+e+e+A+A+e+A+a+b+a+b+A+A+A+a+b+a+e+s+v+E+a+v+r+A+a+a+B+A+r+a+r+e+A+b+e+e+a+a+e+A+A+a+a+b+a+a+a+a+a+a+e+s+v+E+a+v+r+A+a+a+b+a+r+a+r+e+B+b+e+e+a+A+e+A+A+a+a+B+A+a+a+A+a+a+E+s+v+e+a+v+r+A+a+a+b+a+s+a+r+e+a+b+e+E+a+a+e+a+a+a+a+b+a+a+a+b+a+b+e+s+v+e+a+v+r+A+b+a+b+a+r+a+r+e+B+B+e+E+a+A+e+A+A+a+a+b+a+a+a+B+a+a+e+s+v+e+a+v+r+a+a+a+b+a+r+a+r+e+A+B+e+E+a+a+e+A+a+a+a+b+A+a+a+a+a+a+e+s+v+e+a+v+r+A+a+b+b+a+r+a+r+e+b+b+e+E+a+a+e+B+A+a+a+b+a+b+a+a+a+a+e+s+v+e+a+v+r+A+a+A+b+A+r+a+r+e+B+B+e+e+a+A+E+a+A+a+a+b+a+A+a+a+A+a+e+s+v+E+a+v+r+A+a+a+b+A+r+a+r+e+A+B+a+e+a+A+e+a+a+a+a+b+a+a+a+a+a+a+e+s+v+e+a+v+r+A+A+a+b+a+r+a+r+e+A+B+e+E+a+B+e+A+B+A+a+b+a+b+A+A+a+a+e+s+v+E+a+v+r+A+a+a+b+a+r+a+r+E+a+b+e+e+a+A+E+a+A+a+a+b+A+a+a+a+a+a+E+s+v+E+a+v+r+A+a+a+b+a+r+a+r+e+A+B+e+E+a+A+E+A+A+a+a+b+A+a+a+A+A+B+e+s+v+e+a+v+r+A+a+a+b+a+r+a+r+e+A+B+e+e+a+A+e+A+A+a+a+b+a+a+A+a+a+a+b+v+v+E+a+v+r+b+A+A+b+a+r+a+r+E+A+B+e+e+a+A+e+A+A+a+a+b+a+a+a+A+A+a+e+s+v+E+a+v+r+A+a+a+b+a+r+a+r+e+A+B+e+E+a+A+E+A+B+a+a+b+a+a+a+a+a+A+e+s+v+E+A+v+v+s+v+E+a+v+r+A+a+r+a+r+a+a+a+e+a+b+E+e+B+a+e+A+A+a+A+a+b+A+A+a+a+a+e+v+v+e+A+v+r+a+A+r+a+r+b+a+a+e+B+e+e+E+a+A+e+A+A+a+a+a+a+A+a+a+a+a+e+B+B+e+E+a+v+r+A+A+r+a+r+a+a+a+e+s+v+e+A+A+e+A+A+a+a+A+a+a+a+a+a+a+e+A+B+E+e+a+v+r+A+a+r+a+r+a+a+a+e+s+v+E+a+A+e+A+A+a+a+a+a+a+A+a+a+a+e+A+B+e+E+a+v+r+a+a+r+a+r+a+a+a+e+s+v+e+A+A+e+A+A+a+b+a+a+a+A+a+a+a+e+A+B+E+e+a+v+r+A+a+r+a+s+a+b+b+e+s+v+E+a+A+e+A+A+a+a+a+b+a+a+a+a+a+e+A+B+E+e+a+v+r+A+a+r+a+r+a+a+a+e+s+v+e+a+a+e+A+A+a+a+a+a+a+a+a+a+a+e+B+b+e+e+b+v+r+a+b+s+A+r+A+a+a+e+s+v+e+a+A+e+A+A+a+a+a+b+r+r+a+a+b+e+A+B+e+e+a+v+r+A+a+r+A+s+a+a+a+e+s+v+e+a+A+e+A+A+A+A+A+a+a+a+a+a+a+e+A+B+e+E+a+v+r+A+a+r+a+r+A+A+A+E+s+v+E+a+A+e+a+a+a+a+a+a+a+a+a+A+a+e+A+B+e+E+a+v+r+A+a+r+A+r+a+a+a+e+s+v+E+a+a+e+A+a+a+a+A+A+A+a+a+a+a+e+B+B+e+E+a+v+r+A+a+r+a+r+a+a+a+e+s+v+e+a+a+e+A+A+a+a+a+a+a+a+a+a+a+e+B+b+e+e+a+v+r+A+A+r+a+r+a+a+A+e+s+v+E+a+A+e+A+a+a+a+a+A+A+A+a+a+a+e+A+B+e+e+a+v+r+A+a+s+a+r+a+a+a+e+s+v+e+a+A+E+A+A+a+A+a+a+a+a+a+a+a+E+A+B+E+e+a+v+r+a+a+r+a+r+a+b+a+e+s+v+e+a+A+e+a+A+a+A+A+a+a+a+a+b+a+e+B+b+e+e+a+v+r+B+a+r+a+r+a+A+a+e+B+b+e+e+A+a+e+A+A+a+a+a+b+a+a+a+a+a+e+s+v+E+a+v+r+a+a+r+a+r+a+a+a+e+A+B+e+E+a+A+e+A+A+a+a+a+a+a+a+a+a+a+e+s+v+e+a+v+r+a+a+r+a+r+A+a+a+e+a+b+e+e+a+A+e+A+A+a+a+a+a+A+A+a+a+a+e+s+v+E+a+v+r+A+a+r+A+r+a+a+a+e+B+B+e+e+a+A+e+a+A+a+a+a+a+a+a+a+a+a+e+s+v+e+a+v+r+A+a+r+a+r+a+a+a+e+A+B+e+e+a+A+E+A+A+a+a+a+a+a+a+a+a+a+e+s+v+E+a+v+r+A+A+s+a+r+a+a+a+e+A+B+e+E+a+A+e+A+A+a+a+a+a+a+a+a+a+a+e+s+v+e+a+v+r+A+a+r+a+r+a+a+a+e+b+b+e+e+a+A+e+A+A+a+a+a+A+a+a+a+a+a+e+s+v+E+a+v+r+A+a+r+A+r+A+A+a+e+B+b+e+E+a+A+e+A+A+a+b+a+a+a+a+a+a+a+e+s+v+e+A+v+r+a+a+r+A+r+a+a+a+e+B+b+e+e+a+A+e+A+A+a+a+a+b+A+A+a+a+a+E+s+v+E+a+v+r+A+a+r+a+r+a+a+B+E+A+B+e+e+a+a+e+A+A+a+a+a+a+a+a+a+B+A+e+s+v+e+a+v+r+A+a+r+a+r+a+a+a+e+A+b+e+e+a+B+e+A+A+a+a+a+a+a+a+a+a+a+E+s+v+E+a+v+r+A+a+r+A+r+a+a+a+e+b+B+e+e+a+a+e+A+a+A+a+A+A+a+a+a+a+A+e+s+v+e+a+v+r+a+a+r+a+r+A+a+a+e+A+B+E+e+a+A+e+A+A+a+a+a+a+a+a+a+a+b+e+s+v+e+a+v+r+A+a+r+a+r+a+a+a+e+A+B+e+E+a+a+e+a+a+a+b+a+a+a+a+a+a+a+e+s+v+E+a+v+r+A+A+r+a+r+a+a+a+e+B+B+e+e+a+a+e+a+a+a+a+a+b+a+a+a+a+a+e+s+v+e+a+v+r+A+a+r+a+r+a+a+a+E+a+B+e+E+a+A+E+A+A+a+a+a+b+a+a+a+a+a+e+s+v+E+a+v+r+A+a+r+a+r+a+a+a+E+A+B+e+E+a+B+e+A+A+a+a+a+b+a+a+A+a+a+e+s+v+E+a+v+r+A+b+s+a+r+a+a+a+e+b+b+e+e+a+A+e+a+a+a+a+a+a+a+a+a+a+A+e+s+v+e+a+v+r+A+a+r+a+r+a+a+a+e+B+B+E+e+A+A+e+A+a+a+a+a+b+a+a+a+a+a+e+s+v+E+a+v+r+A+a+r+a+r+a+a+A+e+A+B+e+e+a+a+E+A+E+s+v+e+a+v+r+A+a+a+a+a+a+a+a+a+U.R+e+B+b+e+E+a+A+e+A+a+r+r+a+a+a+a+r+v+s+v+e+a+v+r+a+a+a+a+A+a+a+a+a+U.R+e+a+b+e+E+A+A+e+A+A+r+r+A+a+a+a+r+v+s+v+e+a+v+r+A+A+a+a+a+a+a+a+a+U.R+E+A+B+e+e+a+A+e+A+a+r+r+a+a+a+a+r+v+s+v+e+a+v+r+A+a+a+a+A+A+a+a+a+U.R+e+A+B+e+e+a+A+e+a+A+r+r+a+a+a+a+r+v+s+v+e+a+v+r+A+a+a+a+a+A+a+a+a+U.R+e+A+B+e+e+a+B+e+A+a+r+r+a+a+a+a+r+v+s+v+e+a+v+r+A+b+a+a+a+a+a+a+a+U.R+E+a+E+e+E+a+A+E+a+a+r+r+a+A+a+a+r+v+s+v+e+a+v+r+A+a+a+a+A+A+a+a+A+U.R+e+A+B+e+e+a+A+e+A+a+r+r+a+a+a+a+r+v+s+v+e+a+v+r+a+a+a+a+a+a+a+a+b+U.R+e+A+B+E+e+a+A+E+A+A+r+r+a+A+A+a+r+v+s+v+e+a+v+r+A+a+a+a+a+a+a+a+a+U.S+e+A+B+e+e+A+A+e+A+A+r+r+a+a+a+a+r+v+s+v+e+a+v+r+A+a+a+a+a+b+a+a+a+U.R+e+A+B+e+e+a+A+E+A+A+r+r+a+a+a+a+r+v+s+v+E+a+v+r+A+a+a+a+a+a+a+a+b+U.R+e+A+B+e+e+a+A+e+A+A+r+r+a+a+a+A+r+v+s+v+e+a+v+r+A+a+a+a+a+a+a+a+a+U.R+e+A+B+e+E+a+A+e+a+A+r+r+a+a+a+a+r+v+s+v+e+a+v+r+a+a+a+a+a+a+a+a+a+U.R+e+A+B+e+E+a+A+e+A+A+r+r+A+a+a+a+r+v+s+v+e+b+v+s+a+a+a+a+a+a+a+a+b+U.R+e+A+B+e+e+a+A+e+A+a+r+r+a+a+a+b+r+v+s+v+e+a+v+r+a+a+a+a+a+a+a+a+B+U.R+e+A+B+E+e+A+A+E+a+a+r+r+a+a+A+a+r+v+s+v+E+b+v+s+A+a+a+a+a+b+a+A+a+U.R+e+A+B+E+e+A+A+e+A+A+r+r+a+a+A+a+r+v+s+v+E+a+v+r+a+A+A+A+a+a+a+a+a+U.R+e+a+b+e+e+a+B+E+A+A+r+r+a+a+a+a+r+v+s+v+E+a+v+r+A+a+a+a+a+a+a+A+b+U.R+e+A+B+e+e+a+A+e+A+A+r+r+a+a+a+a+r+v+s+v+E+a+v+r+A+a+a+a+a+A+a+a+a+U.R+E+a+B+e+E+a+A+E+A+A+r+r+b+a+a+a+r+v+s+v+E+a+v+r+A+b+a+a+a+a+a+a+b+U.R+e+A+B+e+E+a+B+e+a+A+r+r+a+a+a+a+r+v+s+v+E+a+v+r+A+a+a+a+a+a+a+a+a+U.R+e+a+b+e+e+a+A+e+a+A+r+r+a+a+a+a+s+v+s+v+e+a+v+r+A+a+a+a+A+a+a+a+a+U.R+e+A+B+E+e+a+A+e+A+A+r+r+a+a+a+a+r+v+s+v+e+a+v+r+a+a+A+A+a+a+a+a+a+U.R+E+B+B+E+e+a+A+e+a+a+r+r+a+a+a+a+r+v+s+v+E+A+v+r+A+a+a+a+a+a+a+A+A+U.R+e+a+b+E+e+a+A+e+A+A+r+r+a+A+a+a+r+v+s+v+e+A+v+r+A+a+a+a+a+a+a+a+a+U.R+e+A+B+e+E+a+a+E+A+A+r+r+a+a+a+A+r+v+s+v+E+a+v+r+A+a+a+a+a+a+a+a+a+U.R+e+b+b+e+E+a+A+E+A+A+r+r+a+a+a+a+r+v+s+v+e+a+v+r+A+a+a+a+a+a+a+a+a+U.R+e+B+b+e+e+A+A+e+A+a+r+r+a+a+A+a+r+v+s+v+e+a+v+r+A+a+a+A+a+a+a+a+a+U.R+e+B+B+e+e+a+A+e+A+A+r+r+a+a+a+a+r+v+s+v+e+a+v+r+A+a+A+a+a+a+A+A+A+U.R+e+A+B+e+E+A+B+E+A+A+r+r+a+a+a+a+r+v+s+v+E+a+v+r+A+b+a+a+A+a+a+a+a+U.R+E+A+B+e+E+a+A+E+A+A+r+r+a+a+a+a+r+v+s+v+E+A+v+r+A+a+a+a+a+a+a+a+a+U.R+e+a+E+E+e+a+A+e+A+A+r+r+a+a+a+a+r+s+s+v+e+a+v+r+A+a+a+a+a+a+a+a+a+U.R+E+A+B+e+E+a+A+e+a+a+r+r+a+a+a+a+r+v+s+v+e+a+v+r+A+a+a+A+a+a+a+a+a+U.R+E+a+B+e+e+a+a+E+A+A+r+r+a+a+a+b+r+v+s+v+E+a+v+r+a+b+a+a+a+a+a+a+a+U.R+e+B+B+e+E+a+A+e+a+A+r+r+a+a+a+a+r+v+s+v+e+a+v+r+a+a+a+A+a+a+a+a+a+U.R+E+B+B+e+E+a+A+E+a+a+e+s+v+e+a+v+r+A+a+a+a+a+r+r+a+a+e+A+B+e+e+a+A+e+A+a+a+a+A+a+a+U.R+a+a+a+e+s+v+E+a+v+r+A+a+a+a+A+r+r+a+a+e+A+B+E+e+a+A+E+a+a+a+a+a+a+a+U.R+a+a+a+e+s+v+E+a+v+r+A+a+a+a+a+r+r+a+a+e+A+b+e+e+a+A+e+A+A+a+a+a+A+a+U.R+A+a+a+e+s+v+E+a+v+r+a+a+a+a+a+r+r+a+a+e+A+B+e+e+A+A+e+A+a+a+a+a+a+a+U.R+a+a+a+e+s+v+E+a+v+r+a+a+a+A+a+r+r+a+a+e+A+B+e+E+a+A+e+A+a+a+a+a+a+a+U.R+a+a+a+e+s+v+e+a+v+r+A+a+a+a+a+r+r+a+a+e+A+B+e+E+a+a+e+A+a+a+a+a+a+a+U.R+a+a+a+e+s+v+e+a+v+r+a+a+a+a+a+r+r+A+a+e+A+B+e+E+A+A+E+a+a+a+a+a+a+b+U.R+a+a+a+e+s+v+E+a+v+r+A+a+a+a+a+r+r+a+A+E+A+B+e+e+a+a+e+A+A+A+a+a+a+A+U.R+a+a+a+e+s+v+e+a+v+r+A+a+a+a+A+r+r+a+a+e+b+b+E+E+a+A+e+A+A+a+a+a+a+a+U.R+a+a+a+e+s+v+E+a+v+r+A+a+a+A+a+r+r+a+a+e+a+b+e+e+a+A+E+A+A+a+a+a+a+a+U.R+a+a+a+E+s+v+e+a+v+r+a+A+a+a+a+r+r+a+a+e+A+B+e+e+a+A+E+a+A+A+a+a+a+a+U.R+a+A+a+e+s+v+e+a+v+r+a+a+a+a+a+r+r+a+a+e+A+B+e+E+A+a+e+A+A+a+a+a+a+a+U.R+a+a+a+e+s+v+E+a+v+r+A+a+a+b+A+r+r+A+a+e+B+B+e+e+a+A+e+A+A+a+a+a+a+a+U.R+a+a+a+e+s+v+e+a+v+r+B+a+b+a+a+r+r+A+a+e+A+B+e+e+a+B+E+A+A+b+a+a+a+b+U.R+a+a+a+e+s+v+e+a+v+r+A+a+a+a+a+r+r+A+a+e+A+E+E+e+a+A+e+A+A+a+A+a+a+a+U.R+A+a+a+e+s+v+E+a+v+r+A+a+a+a+A+r+r+a+a+e+A+B+e+e+a+a+e+A+A+a+a+a+a+a+U.R+a+a+A+E+s+v+e+a+v+r+A+a+A+a+a+r+r+A+A+e+A+B+e+e+a+A+e+A+A+a+a+a+a+a+U.R+a+a+a+e+s+v+E+a+v+r+A+a+a+a+a+r+r+A+a+e+A+B+e+E+b+A+e+A+A+a+a+a+a+a+U.R+a+a+a+e+s+v+e+a+v+r+A+a+a+a+a+r+r+a+a+e+A+B+e+e+a+b+E+A+A+a+a+a+A+a+U.R+A+A+a+e+s+v+e+b+v+r+A+a+a+a+a+r+r+a+a+e+a+b+e+e+a+A+E+a+a+a+a+a+a+a+U.R+a+a+a+e+v+v+e+A+v+r+a+a+a+a+a+r+r+a+a+E+b+b+e+B+a+A+e+A+A+A+A+a+a+a+U.R+a+a+a+e+s+v+E+a+v+r+A+a+a+a+a+r+r+a+a+e+A+B+E+e+a+A+e+A+A+a+a+a+A+A+U.S+a+a+a+e+s+v+E+a+v+r+a+A+a+a+a+r+r+a+a+e+B+b+e+E+a+a+e+A+A+a+a+a+a+a+U.R+a+a+a+e+s+v+E+a+v+r+A+A+A+a+a+r+r+a+a+e+B+b+e+e+a+A+E+A+A+a+a+a+a+a+U.R+a+a+a+e+s+v+E+a+v+r+B+A+A+a+a+r+r+a+a+e+A+B+e+e+a+a+e+a+a+a+a+a+a+b+U.R+b+a+a+e+s+v+E+a+v+r+A+a+a+A+A+r+r+a+a+e+a+b+e+E+a+A+e+A+A+a+a+a+a+a+U.R+a+a+a+E+s+v+E+a+v+r+A+a+a+a+a+r+r+a+a+e+B+B+E+e+a+A+e+A+A+a+a+a+a+a+U.R+a+a+A+e+s+v+E+a+v+r+A+a+A+a+a+r+r+a+a+e+B+B+E+e+A+A+e+a+a+a+a+a+a+a+U.R+a+a+a+e+s+v+E+a+v+r+a+a+a+a+a+r+r+a+A+e+B+b+E+E+a+A+e+A+A+a+a+a+a+a+U.R+a+A+a+e+s+v+e+a+v+r+A+a+a+a+a+r+r+a+a+e+A+B+e+E+a+A+e+A+a+a+a+a+a+a+U.R+a+a+a+e+s+v+E+A+v+r+a+a+A+A+a+r+r+a+a+E+A+B+e+E+a+a+e+A+A+a+a+a+a+a+U.R+a+b+a+e+s+v+e+a+v+r+A+a+b+a+a+r+r+a+a+e+B+b+E+b+a+A+e+a+a+a+a+a+a+a+U.R+a+a+a+e+s+v+E+a+v+r+A+a+A+a+a+r+r+a+a+e+b+b+e+e+a+A+e+B+a+a+a+a+a+b+U.R+A+a+a+e+s+v+e+a+v+r+a+a+A+a+a+r+r+a+a+e+A+b+e+e+a+A+e+A+A+a+a+a+a+a+U.R+a+a+a+e+s+v+e+b+v+r+a+a+a+a+a+r+r+a+a+E+a+B+e+E+a+A+e+A+A+a+E+s+v+e+a+v+r+a+a+a+U.R+a+a+a+a+a+a+e+a+B+e+E+a+a+e+A+A+a+r+r+a+a+a+a+a+e+s+v+E+a+v+r+a+a+a+U.R+a+A+a+a+A+a+e+A+b+e+e+A+A+e+A+A+a+r+r+a+a+a+a+a+e+s+v+e+a+v+r+A+a+a+U.R+a+a+a+a+a+a+e+A+B+E+E+a+B+e+A+a+a+r+r+A+A+a+b+a+e+s+v+e+a+v+r+A+a+a+U.R+a+a+a+A+a+a+e+B+b+e+e+a+A+e+A+A+a+r+r+a+a+a+a+A+e+s+v+e+a+v+r+A+a+a+U.R+a+a+a+b+A+A+E+A+B+e+E+a+A+e+A+A+A+r+r+a+a+a+a+a+e+s+v+e+a+v+r+A+a+a+U.R+a+a+a+a+a+a+e+A+B+e+E+a+A+e+A+A+a+r+r+a+a+a+a+a+e+s+v+E+a+v+r+A+a+a+U.R+a+a+a+a+A+a+e+A+B+e+e+a+a+e+A+A+a+r+r+a+a+a+a+a+e+s+v+e+A+v+r+a+A+b+U.R+a+a+a+a+a+a+e+A+B+E+e+a+A+e+a+b+a+r+r+a+a+a+a+A+e+s+v+E+a+v+r+A+a+A+U.R+a+a+a+a+a+a+e+A+B+e+E+a+a+e+a+A+A+r+r+a+a+a+a+A+e+s+v+E+A+v+r+A+a+a+U.R+a+b+a+a+A+a+e+A+b+e+e+A+A+e+A+A+a+r+r+a+a+a+a+a+e+s+v+e+a+v+r+A+a+a+U.R+a+a+a+a+a+a+e+B+B+e+e+a+A+e+a+A+a+r+r+a+a+a+a+a+e+s+v+e+a+v+r+A+a+a+U.R+a+a+a+a+b+A+e+B+b+e+e+a+B+e+A+A+a+r+r+a+a+a+a+b+e+s+v+e+A+v+r+A+a+A+U.R+a+a+A+A+a+a+e+A+B+E+e+a+A+e+A+A+a+r+r+a+a+a+a+a+e+s+v+E+a+v+r+A+a+a+U.R+a+a+a+a+a+a+e+A+b+e+e+a+B+e+A+A+A+r+r+A+a+a+a+A+e+s+v+E+a+v+r+a+a+a+U.R+a+a+a+A+a+a+E+a+B+e+E+a+A+E+A+A+a+r+r+a+a+a+a+a+e+s+v+E+a+v+r+A+a+a+U.R+a+a+a+a+a+A+e+A+B+e+e+a+A+e+A+A+a+r+r+a+a+a+a+a+e+s+v+e+a+v+r+a+a+a+U.R+a+b+a+a+a+a+e+A+b+e+E+b+A+e+A+A+a+r+r+a+a+a+A+a+e+s+v+e+a+v+r+A+a+a+U.R+a+a+a+a+a+A+e+B+B+e+e+a+A+e+A+A+a+r+r+a+a+a+a+a+E+s+v+e+A+v+r+A+a+a+U.R+a+a+a+A+a+a+e+A+B+e+e+A+A+e+A+A+A+r+r+a+a+a+a+A+e+s+v+e+a+v+r+A+a+a+U.R+a+a+a+a+a+a+e+A+B+E+e+a+A+e+A+a+a+r+r+a+a+a+a+a+e+s+v+e+a+v+r+A+a+A+U.R+a+a+a+a+a+a+e+A+B+e+e+a+a+e+a+a+a+r+r+a+a+a+a+a+e+s+v+e+a+v+r+A+A+a+U.R+a+a+a+a+a+a+e+A+B+e+E+a+A+e+A+A+a+r+r+a+a+a+a+a+e+s+v+e+a+v+r+A+a+a+U.R+a+a+a+a+a+a+e+A+b+e+e+A+A+e+A+A+a+r+r+a+a+a+a+A+e+s+v+e+a+v+r+A+a+b+U.R+a+a+a+a+a+a+e+B+b+e+E+A+A+E+a+a+a+r+r+a+a+a+a+a+e+s+v+e+a+v+r+A+a+a+U.R+a+a+a+a+a+a+e+B+B+e+E+a+B+e+A+A+a+r+r+a+a+a+a+a+e+s+v+E+a+v+r+A+a+a+U.R+a+a+a+a+a+a+e+A+B+E+e+a+A+e+A+a+a+r+r+a+a+a+a+a+e+s+v+E+a+v+r+A+a+a+U.R+a+a+a+a+a+a+e+a+b+e+e+a+A+e+A+a+a+r+s+a+a+a+a+a+e+s+v+e+a+v+s+A+A+a+U.R+a+a+A+a+a+a+e+B+B+e+e+A+A+e+A+A+a+r+r+a+a+a+a+a+e+s+v+e+a+v+r+A+a+a+U.R+a+a+a+A+A+a+e+A+B+e+E+A+a+e+A+A+a+r+r+a+a+a+a+A+E+s+v+E+a+v+r+A+a+a+U.R+a+a+a+a+a+a+e+A+B+e+e+a+A+e+A+A+a+r+r+A+a+a+a+a+e+s+v+E+a+v+r+a+a+a+U.R+a+A+a+a+a+a+e+A+B+e+e+a+a+e+a+A+a+r+r+a+a+A+A+a+e+s+v+e+b+v+r+A+a+a+U.R+A+a+a+a+a+a+e+A+B+e+E+a+A+e+A+A+A+r+r+A+a+a+a+a+e+s+v+E+a+v+r+A+a+b+U.R+B+A+a+a+a+a+E+A+B+E+e+a+A+e+A+A+a+r+r+a+a+a+a+a+e+s+v+E+a+v+r+A+a+a+U.R+a+a+a+A+a+a+e+A+B+E+e+a+a+E+A+A+A+r+r+a+a+a+a+a+e+s+v+e+a+v+r+A+a+A+U.R+a+a+a+a+a+a+e+A+B+e+E+a+A+e+a+a+a+e+s+v+E+a+v+r+A+a+a+a+a+a+a+a+a+A+e+A+B+e+E+a+A+E+A+A+a+A+a+a+a+a+a+a+a+e+s+v+e+a+v+r+A+a+A+a+a+a+a+a+a+A+E+A+B+e+e+a+b+e+b+A+a+a+a+a+a+a+a+a+a+e+s+v+E+a+v+r+A+a+a+a+a+a+a+a+a+a+e+B+B+e+E+a+A+e+A+A+a+a+a+a+a+a+a+a+a+e+s+v+e+a+v+r+a+a+a+a+a+a+a+a+a+a+e+a+B+e+e+a+A+e+A+A+a+A+A+A+A+A+A+a+a+e+s+v+e+A+v+r+A+a+a+a+a+a+a+a+a+a+e+B+b+e+e+a+A+e+A+a+a+a+a+a+a+a+a+a+a+e+s+v+e+a+v+r+a+a+a+a+a+a+a+a+a+a+e+a+B+E+e+a+A+E+A+A+a+a+a+a+a+a+a+a+a+e+s+v+e+a+v+r+a+a+A+a+b+a+a+a+a+a+e+B+B+e+e+a+a+e+A+A+a+a+a+a+a+a+a+A+a+e+s+v+e+a+v+r+A+a+A+a+a+a+a+A+a+a+e+A+B+e+E+a+A+e+a+a+A+a+a+a+a+a+a+a+a+e+s+v+E+a+v+r+A+a+a+a+a+a+a+a+a+a+e+a+B+e+E+a+a+e+A+A+a+a+a+a+a+a+a+a+a+e+s+v+E+A+v+r+A+a+a+a+a+a+A+a+a+a+e+b+b+e+E+a+a+e+a+a+a+A+a+a+a+a+a+a+a+e+s+v+e+A+v+r+A+A+a+a+a+a+a+a+a+a+e+A+B+E+e+a+A+e+A+A+a+a+a+a+a+a+a+a+a+e+v+v+e+a+v+r+A+a+a+a+a+a+a+a+a+a+e+A+B+E+e+a+A+E+a+A+a+a+a+a+A+B+A+a+a+e+s+v+e+a+v+r+A+a+a+b+a+a+b+a+a+a+e+A+B+E+e+a+A+e+A+A+a+a+a+a+a+e+a+a+a+e+s+v+e+a+v+r+A+a+a+a+a+a+b+a+a+a+e+a+b+e+e+a+A+e+A+A+a+a+a+a+a+e+a+a+a+e+s+v+E+a+v+r+b+a+A+a+a+a+b+b+a+a+e+B+B+e+e+a+A+e+A+A+a+a+a+a+a+b+a+a+a+e+s+v+e+a+v+r+A+a+a+a+a+a+b+a+a+b+e+A+B+e+e+a+A+e+A+A+a+a+a+a+a+b+a+A+a+e+s+v+e+a+v+r+a+a+a+a+a+a+b+a+a+a+e+b+b+e+E+a+a+e+a+A+a+a+a+a+a+e+a+A+a+e+s+v+e+a+v+r+a+a+a+a+a+a+B+A+a+a+e+A+B+e+e+a+A+E+A+A+a+a+a+a+a+b+a+a+a+e+s+v+E+A+v+r+A+A+a+A+a+a+b+a+a+a+e+A+B+e+E+a+A+e+A+A+A+A+a+a+A+b+a+a+a+e+s+v+e+a+v+r+a+a+a+a+a+A+a+a+a+a+e+B+b+e+e+a+a+e+a+a+a+a+a+a+a+r+r+a+e+s+v+e+a+v+r+A+a+a+a+a+a+a+a+a+a+e+b+b+e+e+a+A+e+A+A+a+a+a+a+a+r+r+A+e+s+v+e+a+v+r+A+b+a+a+a+a+a+a+a+a+e+A+B+e+E+a+A+e+A+A+a+a+A+a+a+r+r+a+e+s+v+e+A+v+r+A+a+a+a+b+a+a+a+a+a+e+A+B+e+E+a+A+e+a+a+a+a+a+a+a+r+r+a+e+s+v+E+a+v+r+A+a+a+a+b+a+a+a+a+a+e+E+B+e+e+A+A+e+A+A+a+a+a+a+a+r+r+a+e+s+v+e+a+v+r+A+a+a+a+a+a+a+A+A+a+e+b+b+e+E+a+A+e+a+A+a+a+a+a+a+r+r+a+e+s+v+E+a+v+r+a+a+A+a+a+a+a+a+a+b+E+b+b+e+E+a+A+e+a+a+A+A+A+A+a+r+r+a+e+s+v+e+a+v+r+A+a+a+a+a+a+a+a+a+a+e+a+b+e+E+a+A+e+A+A+a+a+a+b+a+r+r+a+e+s+v+e+a+v+r+A+a+a+a+a+a+b+A+A+a+e+a+B+e+E+a+a+e+A+A+a+a+a+a+a+r+r+a+e+s+v+e+a+v+r+A+a+A+A+a+a+a+A+a+a+e+a+b+e+e+A+A+e+A+A+a+a+a+a+a+r+r+a+e+s+v+E+a+v+r+a+a+a+a+a+a+a+a+a+a+e+B+b+e+e+a+a+e+A+A+a+a+a+a+a+r+r+a+e+s+v+e+a+v+r+a+a+a+a+A+a+a+a+A+a+e+A+B+e+E+a+A+E+A+A+a+A+a+a+a+r+r+a+e+s+v+E+a+v+r+a+a+a+a+a+a+b+a+a+a+E+B+b+e+e+A+A+e+A+A+a+a+a+a+A+r+r+a+e+s+v+e+a+v+r+A+a+a+a+a+a+a+a+a+a+e+A+B+e+e+a+A+e+B+A+a+a+a+a+a+r+r+a+e+s+v+E+a+v+r+A+a+a+a+a+A+a+a+a+a+e+A+b+e+e+a+A+e+A+A+a+a+a+a+a+r+r+b+e+s+v+e+a+v+r+A+a+a+A+A+a+a+a+a+b+e+A+B+e+E+a+A+e+A+A+e+s+v+e+a+v+s+A+a+a+s+r+a+b+a+U.R+b+A+B+e+E+a+A+E+a+A+a+a+b+a+a+A+b+r+v+s+v+E+a+v+r+A+a+a+r+r+a+e+a+U.R+e+a+b+e+e+a+A+e+A+A+a+a+a+a+A+a+b+r+v+s+v+e+a+v+r+A+a+a+r+s+a+b+a+U.R+e+a+B+E+e+a+A+e+A+a+A+A+a+a+a+a+b+r+v+s+v+e+a+v+r+B+a+A+s+s+a+b+A+U.R+e+B+b+E+E+a+a+e+a+a+a+a+a+a+a+A+b+r+v+s+s+e+a+v+r+A+a+a+r+r+a+b+a+U.R+e+a+B+E+e+a+A+E+A+A+a+a+a+a+a+a+b+r+v+s+v+e+a+v+r+a+b+a+r+r+a+b+a+U.R+E+A+b+e+e+a+A+e+A+A+b+a+B+A+a+a+b+r+v+s+v+e+a+v+r+A+a+a+s+r+a+b+a+U.R+e+A+B+e+e+a+A+e+A+A+a+a+a+A+A+a+e+r+v+s+v+e+a+v+r+A+a+A+r+r+a+b+A+U.R+e+a+B+E+e+a+A+e+A+A+a+a+a+a+a+a+b+r+v+s+v+e+a+v+r+A+a+a+r+r+a+b+a+U.R+e+a+B+E+e+a+a+e+A+A+a+a+a+a+A+a+b+r+v+s+v+E+a+v+r+A+a+a+r+r+a+b+A+U.R+e+A+B+E+e+a+A+E+A+A+a+b+a+a+b+a+b+r+v+s+v+E+a+v+r+a+a+a+r+r+a+B+A+U.R+e+B+b+E+B+a+A+e+B+A+A+a+a+a+a+a+b+r+v+s+v+e+a+v+r+A+a+a+r+r+a+b+a+U.R+e+B+b+e+E+a+A+e+A+a+A+A+a+a+a+a+b+r+v+s+v+e+A+v+r+A+a+a+r+r+a+b+a+U.R+e+B+B+e+E+a+A+e+A+A+a+a+b+A+a+a+b+r+v+s+v+e+a+v+r+A+a+a+r+r+a+b+a+U.R+e+B+B+E+e+a+A+e+A+a+a+a+a+a+a+a+b+r+v+s+v+e+a+v+r+A+A+a+r+r+a+E+A+U.R+e+B+B+e+E+b+A+e+A+A+a+A+a+a+a+a+b+s+v+s+v+E+a+v+r+A+a+a+r+r+a+b+a+U.R+e+A+B+e+E+a+a+e+A+A+a+a+a+a+a+a+b+r+v+s+v+E+a+v+r+A+A+a+r+r+a+b+A+U.R+E+A+b+e+E+a+a+e+A+a+a+a+a+a+a+a+b+r+v+s+v+e+a+v+r+A+a+a+r+r+a+B+A+U.R+e+A+B+e+E+a+A+E+A+A+a+a+a+A+a+a+b+r+v+s+v+e+a+v+r+a+a+a+r+r+A+b+b+U.R+e+A+B+e+e+a+A+e+A+A+a+a+a+a+A+a+b+r+v+s+v+e+a+v+r+A+a+a+r+r+a+B+a+U.R+e+B+B+e+e+a+B+e+A+A+a+a+a+a+a+a+b+r+v+s+v+e+a+v+r+A+A+a+r+r+a+b+a+U.R+E+A+B+E+e+a+a+e+A+A+a+a+a+r+r+a+b+r+v+s+v+E+A+v+r+A+a+a+r+r+a+b+A+U.R+E+B+b+e+e+a+B+e+A+A+a+a+a+a+a+a+b+r+v+s+v+e+a+v+r+a+a+a+r+r+a+b+a+U.R+e+a+B+E+E+a+A+E+A+A+A+A+A+a+a+A+b+r+v+v+v+e+a+v+r+a+a+a+r+r+a+B+A+U.R+e+A+B+E+e+a+A+e+A+A+a+a+a+a+a+a+b+r+v+s+v+E+a+v+r+A+a+a+r+r+a+b+a+U.R+e+a+b+e+E+a+A+e+A+A+a+a+a+a+a+a+b+r+v+v+v+E+A+v+r+A+a+a+r+r+a+b+a+U.R+e+b+B+e+E+a+A+e+A+a+a+A+a+a+B+a+b+r+v+s+v+e+a+v+s+A+a+a+r+r+A+b+a+U.R+e+A+b+e+E+a+A+E+A+A+A+b+a+a+a+a+B+r+v+s+v+E+a+v+r+A+a+a+r+r+a+b+a+U.R+e+A+B+e+e+a+A+e+A+a+a+A+a+a+a+a+b+r+v+s+v+E+a+v+r+A+a+a+r+r+a+b+b+U.R+e+B+B+e+e+A+A+e+A+a+a+a+a+a+a+A+b+r+v+s+v+e+a+v+r+A+a+a+r+r+a+b+a+U.R+e+B+B+e+E+A+a+e+a+a+a+a+a+a+a+a+b+r+v+s+v+E+a+v+r+A+a+a+r+r+a+b+A+U.R+e+A+B+E+e+a+A+e+A+A+a+a+a+a+a+a+b+r+v+v+v+E+a+v+r+A+a+a+r+r+a+b+a+U.R+e+A+B+e+E+a+B+E+a+A+a+a+a+a+a+a+b+r+v+s+v+E+a+v+r+A+a+a+r+r+a+B+a+U.R+e+A+b+e+e+a+A+e+A+A+a+a+a+a+a+a+b+r+v+s+v+e+a+v+r+A+a+a+r+r+a+a+a+U.R+e+a+b+e+E+A+a+e+A+A+a+a+b+a+a+a+r+v+s+v+E+a+v+r+b+a+a+b+a+a+a+b+a+U.R+e+A+B+E+e+a+a+e+s+v+E+a+v+r+A+A+A+a+r+r+A+a+E+s+v+E+a+v+r+a+a+a+a+b+a+U.R+A+a+a+e+A+B+e+E+a+A+e+A+A+a+a+a+r+s+A+a+e+s+v+e+a+v+r+a+a+a+a+a+A+U.R+A+a+a+E+a+B+e+E+a+A+E+A+A+a+a+A+r+r+a+a+e+s+v+E+a+v+r+a+a+a+a+a+a+U.R+a+a+a+e+A+E+E+e+a+A+e+a+A+a+a+a+r+r+a+a+E+s+v+e+a+v+r+A+a+a+a+a+a+U.R+a+a+a+e+a+B+E+e+a+A+e+A+a+A+a+a+r+r+a+a+e+s+v+e+a+v+r+A+a+a+a+a+a+U.R+a+a+a+e+B+B+e+e+A+A+e+A+A+a+a+A+r+r+a+a+e+s+v+E+a+v+r+a+a+a+a+a+a+U.R+a+a+a+e+B+B+e+e+a+A+e+A+A+a+a+a+r+r+a+a+e+s+v+E+A+v+r+a+a+a+a+a+r+U.R+a+a+a+e+B+B+e+e+a+a+e+A+A+a+a+a+r+r+a+a+e+s+v+E+a+v+r+A+a+a+a+a+a+U.R+a+a+a+e+B+B+e+e+a+A+E+a+a+a+a+a+r+r+a+a+e+s+v+e+a+v+r+A+a+a+a+a+A+U.R+a+a+a+e+a+b+e+E+a+A+E+a+A+a+a+a+r+r+a+a+e+s+v+e+a+v+r+A+a+a+a+a+r+U.R+a+a+a+e+A+b+E+e+a+A+e+A+A+a+a+a+r+r+A+A+e+s+v+e+a+v+r+a+A+a+a+a+r+U.R+a+a+a+e+a+B+e+e+a+A+e+a+a+a+a+a+r+r+a+a+e+s+v+E+a+v+r+A+a+a+a+a+r+U.R+a+b+A+e+a+B+E+e+a+A+e+A+A+a+a+a+r+r+a+A+e+s+v+e+A+v+r+B+A+a+a+a+r+U.R+a+a+a+e+a+b+e+e+a+A+e+A+A+a+A+a+r+r+a+a+e+s+v+e+b+v+r+A+a+a+a+a+r+U.R+a+a+a+e+A+B+e+e+A+A+e+A+A+a+a+a+r+r+a+a+e+s+v+e+a+v+r+A+a+a+a+A+r+U.R+a+a+a+e+a+b+e+E+a+A+e+A+A+a+A+a+r+r+a+a+e+s+v+e+a+v+r+A+a+a+a+a+r+U.R+a+a+a+e+b+b+e+e+a+A+E+A+A+a+a+a+r+r+a+a+e+s+v+E+a+v+r+A+a+a+a+a+r+U.R+a+a+a+e+a+B+e+E+a+a+e+a+A+a+a+a+r+r+a+a+e+s+v+e+a+v+r+a+a+a+a+a+r+U.R+a+a+a+E+a+B+e+e+a+A+e+A+a+a+a+a+r+r+a+a+e+s+v+E+a+v+r+A+a+a+a+a+r+U.R+A+a+a+e+A+B+e+E+a+A+e+A+A+a+a+a+r+r+a+a+e+s+v+e+A+v+r+A+a+a+a+a+a+U.R+a+a+a+e+a+B+e+E+a+A+e+A+a+a+a+a+r+r+a+a+e+s+v+e+a+v+r+A+a+a+a+a+r+U.R+A+a+a+e+A+B+e+e+a+A+e+A+a+a+a+a+r+r+a+a+e+s+v+e+A+v+r+A+a+a+a+a+r+U.R+a+a+A+e+A+b+e+e+a+A+e+A+A+a+a+a+r+r+a+a+e+s+v+E+a+v+r+A+a+a+a+a+r+U.R+a+a+a+e+A+B+e+E+a+A+e+A+a+a+a+a+r+r+a+a+e+s+v+e+A+v+r+A+a+a+a+a+a+U.R+a+a+a+e+A+b+e+E+a+A+e+A+A+a+a+a+r+r+a+a+e+s+v+e+a+v+r+A+a+a+a+a+a+U.R+a+a+A+e+A+B+e+E+a+a+e+a+A+b+a+b+r+r+a+a+e+s+v+e+a+v+r+A+b+a+A+a+a+U.R+a+a+a+e+B+B+e+e+a+A+e+A+A+a+a+a+r+r+a+a+e+s+v+E+a+v+r+A+a+a+a+a+a+U.R+a+a+a+e+B+b+E+E+a+A+e+A+A+a+a+a+r+r+a+a+e+s+v+e+a+v+r+A+a+a+A+a+a+U.R+a+A+b+e+A+B+e+E+a+A+e+a+a+a+a+a+r+r+A+a+e+s+v+E+a+v+r+A+A+a+a+a+a+U.R+a+A+a+e+A+b+e+e+a+A+b+A+a+A+a+a+r+r+a+A+e+s+v+B+a+v+r+A+A+a+a+a+a+U.R+a+a+a+e+A+B+e+E+a+A+E+A+A+a+a+a+r+r+a+a+e+s+v+E+a+v+r+A+a+a+a+a+a+U.R+A+a+a+e+a+b+e+E+a+B+E+A+A+a+a+a+r+r+a+a+e+s+v+e+a+v+r+A+a+a+a+a+a+U.R+a+A+A+e+A+B+e+e+a+A+e+A+A+a+a+a+r+r+b+a+E+s+v+e+a+v+r+A+a+a+a+a+a+U.R+a+a+a+e+a+B+e+e+a+A+e+A+A+a+a+a+r+r+a+a+e+s+v+e+a+s+s+A+a+a+a+b+a+U.R+a+a+a+e+A+b+e+e+a+A+e+A+A+a+a+a+r+s+a+e+s+v+e+a+v+r+A+a+a+U.R+a+a+a+a+a+a+E+A+B+e+E+a+A+e+A+A+r+r+a+a+a+a+a+e+s+v+e+a+v+r+A+a+a+U.R+a+a+a+a+a+a+e+A+b+e+E+a+B+e+A+A+r+r+a+a+a+a+a+e+s+v+e+A+v+r+A+a+a+U.R+a+a+a+a+a+a+e+a+B+e+E+a+a+e+A+A+r+r+a+A+a+A+A+e+s+v+E+A+v+r+A+b+A+U.R+a+b+a+a+b+b+e+b+B+e+e+a+A+e+A+A+r+r+a+a+a+a+a+e+s+v+E+a+v+r+A+a+a+U.R+a+a+a+a+a+a+e+A+B+e+B+a+B+e+A+A+r+r+a+a+a+a+a+e+s+v+e+a+v+r+A+a+b+U.R+a+a+a+a+a+a+e+A+B+e+e+a+A+e+A+A+r+r+a+a+a+a+b+e+s+v+E+a+v+r+A+a+A+U.R+a+a+a+a+a+a+e+a+b+e+e+a+B+E+a+a+r+r+A+a+a+a+a+e+s+v+E+a+v+r+A+a+a+U.R+A+a+a+a+b+a+e+a+b+e+E+a+A+e+A+A+r+r+a+A+a+a+a+e+s+v+E+a+v+r+A+a+a+U.R+a+a+a+a+a+a+e+A+B+e+E+a+A+e+a+A+r+r+a+a+a+a+a+e+s+v+E+a+v+r+a+a+a+U.R+a+a+a+a+A+A+e+A+B+e+e+a+A+E+a+a+r+r+a+a+a+a+a+e+v+v+e+a+v+r+A+a+a+U.R+a+a+a+a+a+a+e+A+B+e+E+a+A+e+A+A+r+r+a+a+a+a+a+e+s+v+E+A+v+r+A+a+a+U.R+a+a+a+a+a+a+E+A+b+e+E+a+A+E+A+A+r+r+a+a+a+a+a+E+s+v+e+a+v+r+A+a+a+U.R+a+a+a+A+a+a+e+A+B+E+E+a+A+e+A+A+s+r+a+a+a+a+a+E+s+v+E+a+v+r+a+a+a+U.R+a+A+a+a+a+a+E+a+b+e+e+a+A+E+A+A+r+r+a+a+a+a+a+E+s+v+E+a+v+r+A+a+a+U.R+a+a+a+A+A+a+e+A+B+e+E+a+B+e+A+A+r+r+a+a+A+a+a+e+s+v+E+a+v+r+a+b+a+U.R+a+a+a+a+a+a+e+A+b+e+e+A+A+E+A+A+r+r+a+a+A+a+a+e+s+v+e+a+v+r+A+a+a+U.R+a+a+a+a+a+a+e+A+B+e+e+a+A+e+a+A+r+r+a+a+a+A+a+e+s+v+e+a+v+r+A+a+a+U.R+a+b+a+A+a+a+e+A+B+e+e+a+A+e+a+a+r+r+a+a+a+a+a+e+s+v+e+a+v+r+A+a+a+U.R+a+A+a+a+a+a+e+A+B+e+E+a+a+e+A+A+r+r+a+a+a+a+a+e+s+v+e+a+v+r+A+a+a+U.R+a+a+a+a+a+a+e+a+B+e+E+a+A+e+A+a+r+r+A+a+a+a+a+e+s+v+e+a+v+s+A+a+a+U.R+a+a+a+a+a+a+e+B+b+e+e+a+A+e+a+A+r+r+A+a+a+a+a+e+s+v+E+a+v+r+A+b+a+U.R+a+a+a+a+a+a+e+B+B+e+e+a+A+e+A+A+r+r+A+a+a+a+a+e+s+v+e+a+v+r+A+a+a+U.R+a+a+a+a+a+a+e+B+E+e+e+a+a+e+A+A+r+r+a+a+a+a+a+e+s+v+e+a+v+r+A+a+a+U.R+a+a+a+a+a+A+e+A+B+e+e+a+A+e+A+A+r+r+a+a+a+a+a+e+s+v+e+a+v+r+A+a+a+U.R+a+a+a+a+A+A+e+b+b+e+e+a+A+e+A+A+r+r+a+a+a+a+A+e+s+v+E+a+v+r+A+a+a+U.R+a+a+a+A+a+a+e+B+B+e+e+a+A+e+A+A+r+r+a+a+a+a+a+e+s+v+e+a+v+r+A+a+a+U.R+a+A+a+a+a+a+e+A+b+e+e+a+A+E+A+A+r+r+a+a+a+a+a+e+s+v+E+a+v+r+A+a+b+U.R+a+a+a+a+a+a+e+B+b+e+e+a+a+e+a+A+r+r+a+a+a+A+a+e+s+v+e+a+v+r+B+a+a+U.S+a+a+a+b+a+a+e+b+b+e+E+a+A+E+A+A+r+r+a+a+a+a+a+e+s+v+e+b+v+r+a+a+A+U.S+a+a+a+a+a+a+e+B+b+e+e+a+A+e+A+A+r+r+a+a+a+a+a+e+B+b+E+E+a+v+r+A+a+a+U.R+A+a+a+a+a+a+e+s+v+e+a+A+e+A+A+r+r+a+a+a+a+a+e+B+b+e+E+a+v+r+a+a+a+U.R+a+a+a+a+a+a+e+s+v+E+a+A+e+a+a+r+r+a+a+a+a+a+e+b+b+e+E+a+v+r+A+a+A+U.R+a+a+a+a+a+a+e+v+v+e+a+B+e+A+A+r+r+a+a+a+a+a+e+A+b+e+e+a+v+r+A+b+b+U.R+A+a+a+a+A+a+e+s+v+E+a+A+E+a+A+r+r+a+a+a+a+a+e+A+B+E+e+a+v+r+a+b+A+U.R+a+a+a+A+a+a+e+s+v+E+a+A+e+A+E+A+B+e+E+a+v+r+a+a+a+a+a+a+a+a+a+r+v+s+v+e+a+a+e+A+A+a+a+a+a+a+a+a+r+v+A+B+e+E+a+v+r+A+a+A+a+a+a+a+a+a+a+e+s+v+E+a+a+e+A+A+a+A+a+a+a+A+a+r+v+B+B+e+E+a+v+r+A+A+a+a+a+a+a+a+a+b+e+s+v+E+a+A+e+a+a+a+a+a+a+a+a+A+r+v+A+B+e+e+a+v+r+A+a+a+a+a+a+a+a+a+a+e+s+v+e+a+A+e+A+A+a+a+a+a+a+a+a+r+v+A+b+e+e+A+v+r+a+a+a+a+a+a+A+A+a+a+e+s+v+e+a+A+e+A+A+a+a+a+a+a+a+b+r+v+b+B+E+e+a+v+r+A+a+a+a+a+a+a+B+A+a+E+s+v+E+a+A+e+a+A+a+A+a+a+a+a+a+r+v+B+B+e+e+a+v+r+A+a+a+a+a+A+a+a+a+a+e+s+v+e+a+A+e+a+a+a+a+a+a+a+a+a+r+v+B+b+e+e+a+s+r+A+a+a+a+a+a+a+a+a+A+e+s+v+E+a+A+e+a+A+a+a+a+a+a+a+a+r+v+b+b+e+E+a+v+r+A+A+A+a+a+a+a+a+a+b+e+s+v+e+a+a+e+A+A+a+a+a+a+a+a+a+r+v+a+B+e+E+a+v+r+A+A+a+a+a+a+a+a+a+a+e+s+v+e+a+A+e+A+A+A+a+a+a+a+a+a+r+v+A+b+e+e+a+v+r+A+a+a+A+a+a+a+a+A+a+E+s+v+e+a+A+e+A+A+a+a+a+a+a+A+a+r+v+a+B+e+e+a+v+r+A+a+a+a+a+a+a+B+a+a+e+v+v+e+a+A+e+a+a+a+a+a+a+a+a+a+r+v+A+B+E+e+a+v+r+A+a+a+a+a+a+a+a+a+a+e+s+v+E+a+A+E+a+A+a+a+a+a+a+a+a+r+v+A+B+e+e+a+v+r+a+A+a+a+a+a+A+B+A+A+e+s+v+e+a+A+e+A+A+a+A+a+a+a+a+a+r+v+A+B+b+e+a+v+r+A+a+a+a+a+A+A+a+a+a+e+s+v+e+a+A+e+A+a+a+a+a+a+a+a+A+r+v+A+B+e+e+a+v+r+a+b+A+a+a+a+a+a+a+A+e+s+v+e+a+A+e+A+A+a+a+a+a+a+a+a+r+v+A+B+e+E+a+v+r+A+a+A+A+a+a+a+a+a+a+E+s+v+E+a+A+E+a+a+a+A+A+a+a+a+a+r+v+a+B+e+e+a+v+r+A+a+a+a+a+a+a+a+a+a+e+s+v+e+a+A+e+a+A+a+a+a+a+a+a+a+r+v+A+B+E+e+a+v+r+a+a+a+a+a+a+a+a+a+A+E+s+v+e+a+a+e+a+A+a+a+a+a+a+a+a+r+v+A+B+E+e+a+v+r+A+a+a+a+a+a+a+a+a+a+E+s+v+E+a+A+e+A+a+a+a+a+a+a+a+a+r+v+A+B+e+E+a+v+r+A+a+a+a+a+a+a+a+A+a+e+s+v+e+a+a+e+A+A+a+a+a+a+a+a+a+r+v+b+b+e+e+a+v+r+A+a+a+a+a+a+a+a+a+a+E+s+v+e+a+A+E+A+A+a+a+a+a+A+a+a+r+v+A+B+e+e+a+v+r+A+a+a+a+a+a+a+a+a+a+e+s+v+e+a+a+e+A+A+a+B+A+A+A+a+a+r+v+B+B+e+E+a+v+r+A+a+a+a+a+a+a+a+a+A+e+s+v+e+a+a+e+A+A+a+a+a+a+a+a+a+r+v+B+B+e+E+a+v+r+A+a+a+a+a+a+a+a+a+a+e+s+v+E+a+A+e+a+A+a+a+a+a+a+a+a+r+v+A+B+e+e+a+v+r+A+a+a+a+a+a+a+a+a+a+e+s+v+E+a+A+e+A+A+A+a+b+a+a+a+a+r+v+A+B+e+E+a+v+r+A+a+a+a+a+a+a+A+a+a+e+s+v+e+a+A+E+a+A+b+a+A+A+a+a+a+r+v+B+b+e+e+a+v+r+A+a+a+a+a+a+a+a+A+a+e+s+v+e+a+A+E+a+a+a+a+a+a+a+a+a+r+v+a+B+e+E+A+v+r+A+a+a+A+B+a+b+a+A+a+e+s+v+E+A+A+E+A+A+a+a+a+a+a+a+a+r+v+B+B+e+e+a+v+r+A+a+a+a+A+a+a+a+a+a+e+s+v+E+a+A+e+A+A+a+a+a+a+a+a+a+r+v+A+B+E+e+a+v+r+A+a+a+a+a+a+a+a+a+a+e+v+v+e+a+a+e+a+a+A+a+a+b+a+a+a+r+v+B+B+e+E+a+v+r+A+a+a+a+a+a+a+a+a+a+e+s+v+e+a+a+e+A+A+a+a+a+a+a+a+a+r+v+A+B+E+e+a+v+r+A+a+a+a+a+a+a+a+a+A+e+s+v+e+a+A+e+A+A+a+a+a+a+a+a+a+r+v+A+B+E+e+a+v+r+A+a+a+a+a+a+a+a+a+a+e+s+v+e+a+a+e+A+a+a+a+a+a+b+a+a+r+v+A+b+e+e+a+v+r+A+a+a+a+a+a+b+a+A+A+E+s+v+E+a+A+e+A+a+b+e+A+E+E+e+a+v+r+A+a+a+a+a+r+r+a+a+e+s+v+E+a+a+e+a+A+A+a+a+a+a+a+a+a+a+e+B+b+e+e+a+v+r+A+A+a+a+a+r+r+a+a+e+s+v+e+a+A+e+A+A+a+a+a+a+a+a+a+a+a+e+A+B+e+e+a+v+r+a+a+a+a+a+s+s+a+A+e+s+v+e+A+A+e+A+B+a+a+a+a+a+a+a+A+a+e+A+b+e+E+a+v+r+A+A+A+a+a+r+r+a+a+e+s+v+e+a+A+e+A+a+a+a+a+a+a+a+a+a+a+e+B+b+e+e+a+v+r+A+A+a+a+a+r+r+a+A+e+s+v+e+a+A+e+A+A+a+a+a+a+a+a+a+a+a+e+b+b+e+E+a+v+r+A+a+a+a+a+r+r+a+a+e+s+v+e+b+A+e+A+A+a+a+a+a+A+a+a+a+a+e+b+b+e+E+a+v+r+A+a+a+a+a+r+r+a+a+e+s+v+e+a+a+e+A+A+a+a+a+a+a+A+a+a+a+e+A+b+e+e+A+v+r+A+a+a+a+a+r+r+a+a+e+s+v+E+a+A+e+a+a+a+a+A+a+a+a+a+a+a+e+A+B+e+E+a+v+r+A+a+a+a+a+r+r+a+a+e+s+v+E+A+A+e+A+A+a+a+a+a+a+a+A+a+a+E+A+B+e+E+a+v+r+A+a+a+a+a+r+r+a+a+e+s+v+e+a+a+e+a+a+a+a+A+a+a+a+a+a+a+e+A+B+e+E+a+v+r+A+A+a+a+a+r+r+a+a+e+s+v+E+a+A+e+A+A+A+A+a+a+a+a+a+a+a+e+B+b+e+e+a+v+r+A+a+a+A+a+r+r+a+a+e+s+v+e+a+a+e+a+A+a+a+a+a+a+a+a+a+a+e+A+E+E+e+b+v+r+A+a+a+a+a+r+r+a+a+e+s+v+e+a+A+E+a+A+a+a+a+a+a+a+a+a+b+e+A+B+e+e+a+v+r+A+a+a+a+a+r+r+A+A+e+v+v+e+a+A+e+A+A+a+a+a+a+a+a+a+a+a+e+a+b+e+E+a+v+s+A+a+A+b+a+r+r+a+a+e+s+v+e+a+A+e+a+A+a+a+a+a+a+a+a+a+a+e+a+B+e+e+a+v+r+A+a+a+a+a+r+r+a+a+e+s+v+E+A+A+e+A+A+a+a+a+a+a+a+a+A+A+e+A+B+e+E+a+v+r+A+a+a+a+a+r+R.R+a+a+a+e+s+v+e+a+A+e+a+A+A+A+a+a+a+a+a+a+a+e+B+b+e+e+a+v+r+A+a+a+a+a+r+r+a+a+e+s+v+E+a+A+e+A+A+a+a+a+a+a+a+a+a+A+e+A+B+E+E+a+v+r+a+a+A+a+a+r+r+a+a+e+s+v+e+a+a+e+a+A+a+a+a+a+a+a+a+A+A+e+A+b+e+E+a+v+r+B+a+a+a+a+r+r+a+a+e+s+v+e+a+A+e+A+A+a+a+a+a+a+a+a+a+a+e+b+b+e+E+a+v+r+A+a+a+a+a+r+r+b+a+e+s+v+e+a+A+e+a+A+b+a+b+a+a+a+a+a+a+e+A+B+E+e+a+v+r+A+a+a+a+a+r+r+a+a+e+s+v+E+a+a+e+a+a+a+a+a+a+a+a+a+a+a+E+b+b+e+e+a+v+r+A+a+a+a+a+r+s+a+a+e+s+v+e+a+A+e+A+A+a+a+a+a+a+a+a+a+a+e+A+B+e+e+a+v+r+A+a+a+a+a+r+r+a+a+e+s+v+e+a+A+e+A+A+a+a+a+A+a+a+a+a+a+e+a+b+e+e+a+v+r+a+a+a+a+a+r+r+a+a+e+s+v+e+a+a+e+a+a+A+a+a+a+a+a+a+a+a+e+B+b+e+e+a+v+r+A+b+a+a+a+r+r+a+a+e+s+v+e+A+B+e+A+A+a+a+a+a+a+a+a+a+a+e+a+B+E+e+a+v+r+a+a+a+a+a+r+r+a+a+e+s+v+e+a+A+e+A+A+a+a+a+A+a+a+A+a+A+e+A+b+E+E+a+v+r+A+a+a+a+a+r+r+a+a+e+s+v+E+A+A+E+A+A+a+a+a+a+a+a+a+A+a+e+A+B+e+e+a+v+r+A+a+a+a+a+r+r+a+a+e+s+v+e+a+A+e+B+A+a+a+a+a+a+a+a+a+a+e+B+B+e+e+a+v+r+a+a+a+a+a+r+r+a+a+e+s+v+E+a+A+e+a+a+a+a+a+a+a+a+a+a+A+E+a+e+e+e+a+v+r+A+a+a+a+a+r+r+a+a+e+s+v+e+A+A+e+A+A+a+a+a+a+a+a+A+a+a+e+A+B+e+e+a+v+r+A+a+a+a+a+r+r+a+a+e+s+v+e+A+b+e+A+A+a+a+a+a+a+a+A+b+a+e+b+e+e+E+a+v+r+A+a+a+A+a+r+r+a+a+e+s+v+e+a+A+E+a+A+A+a+A+A+a+a+a+a+A+e+a+B+e+e+a+v+r+A+a+b+a+A+r+r+A+a+e+s+v+e+B+A+e+A+A+a+a+a+a+a+a+a+a+a+e+A+B+e+E+a+v+r+A+a+A+A+a+r+r+a+A+e+s+v+E+a+B+B+a+A+a+b+e+A+B+e+E+a+v+r+a+a+a+a+A+a+a+b+b+a+e+v+v+e+a+a+e+a+A+a+r+r+a+a+b+a+a+e+A+B+e+E+a+v+r+a+a+a+A+a+a+a+b+a+A+e+s+v+E+a+A+E+a+A+a+s+r+a+a+b+a+a+e+A+B+e+e+a+v+r+A+a+a+a+a+a+a+b+A+a+e+s+v+E+a+A+e+A+A+a+r+r+a+a+b+a+a+e+B+B+e+E+a+v+r+a+a+a+b+A+a+A+b+a+a+e+s+v+e+a+A+e+A+A+a+r+r+a+a+b+a+a+e+B+b+e+e+a+v+r+A+a+a+a+A+a+b+b+a+a+e+s+v+E+a+a+e+b+A+a+r+r+a+a+b+A+A+e+B+b+E+E+a+v+r+A+a+a+a+a+a+a+b+a+a+e+s+v+e+a+A+e+A+A+a+r+r+a+a+b+A+A+e+A+B+e+E+a+v+r+A+a+a+a+a+a+a+B+a+a+e+s+v+e+a+A+E+a+a+a+r+r+A+a+b+A+a+e+A+B+e+e+a+v+r+A+a+a+a+a+a+a+b+A+a+e+s+v+E+a+a+e+A+A+a+r+r+a+a+b+A+A+e+b+B+e+e+A+v+r+A+a+a+a+a+a+b+b+a+a+e+s+v+E+a+B+e+A+a+A+r+r+a+a+b+a+a+e+A+b+E+e+a+v+r+A+a+a+a+a+a+a+b+A+A+e+s+v+e+a+a+E+A+A+a+r+r+a+a+b+A+a+e+A+B+e+e+a+v+r+A+a+a+a+a+a+a+b+a+a+e+s+v+e+a+A+e+A+A+A+r+r+a+a+e+a+a+e+a+b+e+E+a+v+r+a+a+a+a+a+a+a+b+a+a+e+v+v+e+a+A+e+A+A+a+r+r+a+a+b+a+a+e+a+b+e+e+a+v+r+a+a+b+a+A+a+a+b+a+a+e+s+v+e+a+a+e+a+a+a+r+r+a+a+b+a+a+e+a+B+e+e+a+v+r+A+a+a+a+a+a+a+b+a+A+e+s+v+e+B+A+e+A+A+a+r+r+a+a+a+A+a+e+A+B+e+e+a+v+r+A+a+a+a+a+a+A+b+a+a+e+v+v+E+a+a+E+A+A+a+r+r+a+a+b+a+a+e+A+B+e+E+a+v+r+A+a+a+a+a+a+a+b+a+a+e+s+v+e+a+A+e+a+a+A+r+r+a+a+b+a+A+e+A+B+E+e+a+v+r+A+a+a+a+a+A+a+b+a+a+e+s+v+e+a+A+e+A+A+a+r+r+a+a+b+a+a+e+a+b+e+e+a+v+r+A+a+a+a+a+a+a+b+a+a+e+s+v+e+a+B+e+A+A+a+r+r+A+a+b+A+a+e+A+B+e+e+a+v+r+A+a+a+a+A+A+a+b+a+A+e+s+v+e+a+a+e+A+A+a+r+s+a+a+b+a+a+E+B+B+e+e+a+v+r+A+a+a+a+a+A+a+b+a+a+E+s+v+e+a+A+e+A+A+a+r+r+a+a+b+a+a+E+A+B+E+e+a+v+r+a+a+a+A+a+a+a+e+A+A+E+s+v+e+a+b+e+A+A+a+r+r+a+a+b+a+a+e+b+b+e+e+a+v+r+A+a+a+a+a+a+a+B+a+A+e+s+v+e+a+A+e+A+A+a+r+r+A+a+b+a+a+e+A+B+e+e+a+v+r+A+a+a+A+a+A+A+b+a+a+e+s+v+e+a+A+e+A+A+a+r+r+a+a+b+a+A+f+A+B+e+E+a+v+s+A+a+b+a+a+a+a+b+a+a+e+s+v+E+a+A+E+a+a+b+r+r+a+a+b+a+a+e+A+b+e+e+a+v+r+a+a+a+a+a+a+a+b+a+a+e+s+v+e+A+A+e+A+A+a+r+r+a+a+B+A+a+e+A+B+E+e+a+v+r+A+a+a+a+a+a+a+b+A+A+e+s+v+E+a+A+E+a+A+a+r+r+a+a+b+a+a+E+B+B+e+e+a+v+r+A+a+a+a+a+a+a+b+a+a+e+s+v+e+a+A+e+a+a+a+r+r+a+a+b+a+a+e+A+B+e+e+a+v+r+a+a+a+a+a+a+a+B+a+a+e+s+v+e+a+A+E+a+a+a+r+r+a+a+b+a+a+e+a+B+e+E+a+v+r+a+a+A+A+a+a+a+b+a+a+e+s+v+e+a+A+e+A+A+a+r+r+a+A+b+a+a+e+B+b+e+e+a+v+r+B+a+A+a+a+a+a+b+a+a+e+s+v+e+A+A+e+A+A+a+r+r+a+a+b+a+a+e+B+B+e+E+a+v+r+A+a+A+A+A+a+a+b+a+a+e+s+v+e+a+B+e+A+a+a+r+r+a+a+b+a+A+e+A+b+e+E+a+v+r+A+a+a+a+a+A+a+b+A+A+e+s+v+e+a+a+e+A+A+a+r+r+a+A+B+a+a+e+A+b+e+e+a+v+r+A+a+a+a+a+a+a+b+A+a+e+s+v+E+a+A+e+A+a+A+r+r+a+a+b+a+a+e+a+B+E+e+a+v+r+A+a+a+a+a+a+a+a+a+a+e+s+v+E+a+A+e+A+A+a+r+r+a+a+r+r+e+A+b+e+e+a+v+r+A+B+b+a+a+a+a+b+a+a+e+s+v+e+a+A+e+A+A+a+r+s+e+E+a+v+r+A+a+a+a+r+r+a+b+a+e+s+v+E+a+a+e+A+A+a+a+a+b+a+a+r+r+e+A+B+e+E+a+v+r+A+a+a+a+r+r+a+a+A+e+s+v+e+a+A+e+B+A+a+a+a+a+a+A+r+r+e+B+b+E+E+a+v+r+A+a+a+A+r+r+a+a+a+e+s+v+E+a+A+e+a+A+a+a+a+b+a+A+s+s+e+A+B+e+E+a+v+r+A+a+a+a+r+r+A+A+a+e+s+v+E+a+a+E+A+A+a+a+a+b+a+a+r+r+e+A+B+E+e+a+v+r+A+a+a+b+r+r+a+a+a+e+v+v+e+a+a+e+A+a+a+b+a+b+a+a+r+r+e+A+B+e+E+a+v+r+A+a+a+a+r+r+a+a+a+e+s+v+E+a+A+e+A+A+a+a+a+a+a+A+r+r+e+B+B+E+e+a+v+r+A+a+a+a+r+r+a+a+A+e+s+v+e+a+A+e+b+A+a+a+a+b+a+a+r+r+e+B+B+E+e+a+v+r+a+a+a+a+r+r+a+a+a+e+s+v+E+A+A+e+A+A+A+a+a+b+a+a+s+r+e+A+E+E+e+a+v+r+A+a+a+a+r+r+a+a+A+e+s+v+e+a+A+e+A+A+a+a+a+b+a+a+r+r+E+A+B+E+E+a+v+r+A+a+a+a+r+r+a+a+A+e+s+v+e+A+A+e+A+A+a+a+a+a+A+A+r+r+e+B+b+e+e+a+v+r+A+b+a+a+r+r+a+a+A+e+s+v+e+a+a+e+A+A+a+A+A+a+r+r+r+r+E+B+B+E+e+a+v+r+A+a+a+a+r+r+a+a+a+e+s+v+E+a+a+e+B+A+a+a+a+A+a+a+r+r+e+A+B+e+E+a+v+r+a+a+a+a+r+r+A+a+a+E+s+v+e+a+a+e+a+a+a+a+a+a+b+a+r+r+e+b+b+E+E+a+v+r+A+a+a+a+r+r+a+a+a+e+s+v+e+A+A+E+a+A+a+a+a+a+a+a+r+r+E+A+B+E+e+a+v+s+A+a+a+a+r+r+a+a+a+e+s+v+E+a+A+e+A+A+a+a+a+a+a+a+r+r+e+a+B+e+E+a+v+r+a+a+a+a+r+r+a+a+a+e+s+v+E+a+A+e+A+A+a+a+a+a+a+a+r+r+e+B+b+E+e+a+v+r+A+a+a+A+r+r+a+a+A+e+s+v+e+a+A+e+A+A+a+a+a+a+a+a+r+r+e+a+b+e+E+a+v+r+A+a+a+a+r+r+a+a+a+e+s+v+e+a+A+e+A+A+a+a+a+a+a+a+r+r+E+a+b+e+E+a+v+r+A+a+a+a+r+r+a+a+a+E+s+v+E+A+a+e+a+a+a+a+a+a+a+a+r+r+e+A+B+E+e+a+v+r+A+a+a+a+r+r+a+a+a+e+s+v+e+A+A+e+A+A+A+a+a+A+a+a+r+r+e+a+b+e+E+a+v+r+A+a+A+A+r+r+a+a+a+e+s+v+E+a+A+e+a+A+a+A+a+a+a+a+r+r+e+a+b+e+E+a+v+r+A+a+a+a+r+r+a+A+A+e+s+v+e+a+B+e+A+A+a+a+a+a+A+A+r+r+e+A+B+E+E+a+v+r+A+a+a+a+r+r+a+a+a+e+s+v+e+A+A+E+A+A+a+A+a+a+a+a+r+r+e+A+B+e+e+a+v+r+A+a+a+a+r+r+a+A+a+E+s+v+e+a+A+e+A+A+a+a+a+b+a+a+s+r+e+b+b+e+e+a+v+r+A+a+a+a+r+r+A+b+a+B+s+v+E+a+A+e+a+a+a+a+a+a+a+a+r+r+e+B+B+e+E+a+v+r+A+a+a+a+r+r+a+a+a+e+s+v+e+a+A+e+a+A+a+a+a+a+a+a+r+r+e+A+B+E+E+A+v+r+A+a+a+a+r+r+a+A+a+e+s+v+e+a+a+e+A+A+a+a+a+a+A+A+r+r+e+B+B+e+E+a+v+r+B+A+a+a+r+r+a+a+A+e+s+v+e+a+B+e+A+A+a+a+a+a+a+a+r+r+e+A+B+e+e+A+v+r+A+a+a+a+r+r+a+a+A+e+s+v+e+A+A+e+a+A+a+a+a+a+a+a+r+r+e+A+B+E+e+a+v+r+a+a+a+a+r+r+a+a+a+e+s+v+e+a+a+e+A+A+a+A+a+a+a+a+r+r+e+a+b+e+e+A+v+r+a+a+a+a+r+r+a+a+a+e+s+v+e+a+A+e+A+A+a+a+a+a+a+a+r+r+e+A+B+E+e+a+v+r+A+a+a+a+r+r+a+A+a+e+s+v+e+A+A+e+A+a+a+b+a+a+a+A+r+r+e+b+b+e+e+a+v+r+a+a+a+A+r+r+a+b+a+e+s+v+e+a+A+e+A+A+a+a+a+a+a+a+r+r+e+a+b+e+e+a+v+r+B+b+a+a+r+r+a+a+a+e+v+v+e+a+B+e+A+a+a+a+a+a+b+a+r+r+e+b+b+e+E+a+v+r+a+a+a+a+r+s+a+a+a+e+s+v+B+a+A+E+A+A+a+e+b+b+e+E+A+v+r+A+b+a+a+r+r+B+B+a+e+s+v+e+a+A+E+a+a+r+r+a+a+a+b+a+a+e+A+B+e+E+a+v+r+A+a+a+a+r+r+b+A+a+e+s+v+E+a+A+E+A+A+r+r+a+A+A+b+a+A+e+b+b+e+e+a+v+r+a+a+a+a+r+r+b+A+a+e+B+B+E+e+a+A+e+A+a+r+r+a+a+a+b+a+a+e+s+v+e+a+v+r+A+B+a+a+r+r+b+A+a+e+A+B+e+E+A+a+e+A+A+r+r+a+a+a+b+a+a+e+s+v+E+a+v+r+A+a+a+a+r+r+b+a+a+e+A+B+e+E+a+a+e+A+A+r+r+a+a+b+b+A+A+E+s+v+E+a+v+r+A+b+A+A+r+r+b+a+a+e+b+b+e+e+a+a+e+A+A+r+r+a+a+a+b+A+a+e+s+v+E+a+v+r+A+b+a+a+r+r+b+A+A+e+A+b+e+e+a+A+e+A+A+r+r+a+a+a+b+a+a+e+s+v+e+a+v+r+A+a+a+a+r+r+b+A+a+e+A+B+e+e+a+a+e+A+A+r+r+a+A+A+b+b+a+e+s+v+E+a+v+r+A+a+a+a+r+r+b+A+B+e+A+B+e+e+A+A+e+A+A+r+r+a+A+a+b+A+a+e+s+v+E+A+v+r+a+a+a+A+r+r+b+a+a+e+a+E+E+e+a+A+e+A+a+r+r+a+a+a+b+A+A+e+s+v+e+a+v+r+a+a+a+a+r+r+b+a+a+e+a+B+E+e+a+A+E+a+A+r+r+a+a+a+b+a+a+e+s+v+E+a+v+r+A+a+a+a+r+r+b+A+a+E+A+e+e+e+a+A+E+A+A+r+r+a+A+a+b+a+a+e+s+v+E+a+v+r+A+b+A+a+r+r+b+A+a+e+B+B+E+e+a+a+e+a+A+r+r+a+a+a+b+a+a+e+s+v+E+a+v+r+A+a+a+A+r+r+b+A+A+e+A+B+E+e+a+A+E+A+A+r+r+a+a+a+b+a+a+e+s+v+E+a+v+r+A+a+a+A+r+r+b+a+A+e+A+b+e+E+a+A+e+A+A+r+r+a+A+A+b+a+a+e+s+v+e+a+v+r+A+a+a+a+r+r+b+a+a+e+A+B+e+e+a+a+e+A+A+r+r+a+A+A+b+a+a+e+s+v+E+a+v+r+a+a+a+a+r+r+b+a+a+e+a+B+e+e+a+A+e+B+a+r+r+a+a+a+b+a+a+e+s+v+e+a+v+r+A+a+a+a+r+r+b+a+a+e+a+B+E+e+a+A+E+a+A+r+r+a+a+a+b+a+a+e+s+v+e+a+v+r+A+a+b+a+r+r+b+a+a+e+A+b+e+E+a+A+e+A+a+r+r+a+a+a+b+A+a+e+s+v+E+a+v+r+a+a+a+a+r+r+e+A+A+e+a+b+E+e+A+a+E+A+A+r+r+a+a+A+b+a+a+e+s+v+e+a+v+r+A+a+A+a+r+r+b+a+a+e+A+B+E+e+a+A+e+A+A+r+r+a+a+a+b+A+A+e+s+v+e+a+v+r+A+a+a+A+r+r+e+a+a+e+B+B+e+E+a+A+e+A+A+r+r+a+a+b+B+A+A+e+s+v+E+a+v+r+A+a+a+A+r+r+b+a+a+E+B+B+e+e+a+A+e+A+a+r+r+a+a+a+b+a+a+e+s+v+E+a+v+r+A+a+a+a+r+r+b+a+a+e+B+B+e+E+A+A+E+A+A+r+r+A+a+a+b+A+a+e+s+v+e+a+'
p1
.F-38097.689644569487
.S'From-Botnet-UDP-DNS-DGA-1'
p1
.F1.1000000000000001
.