(dp1
S'a'
F0.27056404230317271
sS'A'
F0.00014688601645123384
sS'b'
F0.074838425381903648
sS'e'
F0.00029377203290246768
sS'd'
F0.00014688601645123384
sS'*'
F0.35663924794359575
sS'S'
F0.033490011750881316
sS'.'
F0.075940070505287893
sS's'
F0.00058754406580493535
sS'R'
F0.11846357226792009
sS'4'
F7.3443008225616919e-05
sS'v'
F0.00014688601645123384
sS'2'
F7.3443008225616919e-05
sS'r'
F0.0012485311398354876
sS','
F0.067347238542890722
s.ccopy_reg
_reconstructor
p1
(cstf.common.markov_chains
Matrix
p2
c__builtin__
dict
p3
(dp4
(S'*'
S'e'
tp5
F0.00041186161449752884
s(S'r'
S','
tp6
F0.17647058823529413
s(S'A'
S','
tp7
F1
s(S'b'
S'*'
tp8
F0.92345436702649653
s(S'*'
S'b'
tp9
F0.1937808896210873
s(S'*'
S'a'
tp10
F0.62644151565074135
s(S'.'
S'S'
tp11
F0.20212765957446807
s(S','
S'r'
tp12
F0.0032715376226826608
s(S'*'
S'S'
tp13
F0.04715815485996705
s(S'S'
S'*'
tp14
F0.41228070175438597
s(S','
S'v'
tp15
F0.0021810250817884407
s(S'S'
S'.'
tp16
F0.54166666666666663
s(S'b'
S','
tp17
F0.076545632973503433
s(S','
S'd'
tp18
F0.0010905125408942203
s(S'*'
S'r'
tp19
F0.002883031301482702
s(S'e'
S','
tp20
F0.5
s(S'a'
S'*'
tp21
F0.82573289902280134
s(S'e'
S'*'
tp22
F0.5
s(S'R'
S','
tp23
F0.10291382517048978
s(S'v'
S','
tp24
F1
s(S','
S'a'
tp25
F0.7001090512540894
s(S'2'
S'4'
tp26
F1
s(S'd'
S'*'
tp27
F0.5
s(S','
S'e'
tp28
F0.0021810250817884407
s(S','
S'R'
tp29
F0.18429661941112324
s(S'd'
S','
tp30
F0.5
s(S','
S'S'
tp31
F0.019629225736095966
s(S'r'
S'*'
tp32
F0.82352941176470584
s(S','
S'A'
tp33
F0.0021810250817884407
s(S'S'
S','
tp34
F0.046052631578947366
s(S'4'
S'.'
tp35
F1
s(S'*'
S'd'
tp36
F0.00020593080724876442
s(S','
S'b'
tp37
F0.085059978189749183
s(S'a'
S','
tp38
F0.17426710097719869
s(S'*'
S'R'
tp39
F0.12747116968698519
s(S'R'
S'.'
tp40
F0.48729076255424675
s(S'.'
S'R'
tp41
F0.7978723404255319
s(S'*'
S's'
tp42
F0.0016474464579901153
s(S's'
S'*'
tp43
F1
s(S'R'
S'*'
tp44
F0.4097954122752635
stRp45
(dp46
S'itemlist'
p47
(lp48
sS'init_vector'
p49
(dp50
S'a'
F0.27056404230317271
sS'A'
F0.00014688601645123384
sS'b'
F0.074838425381903648
sS'e'
F0.00029377203290246768
sS'd'
F0.00014688601645123384
sS'*'
F0.35663924794359575
sS'S'
F0.033490011750881316
sS'.'
F0.075940070505287893
sS's'
F0.00058754406580493535
sS'R'
F0.11846357226792009
sS'4'
F7.3443008225616919e-05
sS'v'
F0.00014688601645123384
sS'2'
F7.3443008225616919e-05
sS'r'
F0.0012485311398354876
sS','
F0.067347238542890722
ssb.S'24.R*R.R.R*a*b*a*a*b*b*a*R.R*R.R*a*a*R.R*R.R*b*a*a*a*a*R.R*a*a*a*a*R.R*a*a*a*a*a*b*b*a*a*a*a*a*a*a*a*a*a*a*a*R.R*S.R*a*b*a*a*a*b*b*a*a*a*a*a*a*b*a*R.R*R.R*a*a*a*a*a*a*R.R*a*a*a*R.R*a*a*a*R.R*a*a*a*a*R.R*b*a*a*a*a*a*a*a*a*a*a*a*a*a*a*b*a*R.R*b*a*R.R*a*a*a*a*a*a*a*a*a*a*a*b*a*R.R*b*a*R.R*a*a*a*b*a*a*a*a*R.R*R.R*a*a*a*a*a*a*a*a*a*a*a*R.R*a*R.R*a*a*a*a*a*a*a*S.R*a*a*a*a*b*a*R.S*b*a*a*a*b*a*R.R*a*a*b*b*a*a*a*a*a*a*a*a*a*a*a*a*a*a*R.R*a*R.R*a*b*a*a*a*R.R*a*a*a*a*a*a*a*a*R.R*a*a*a*R.R*a*a*a*a*a*a*b*a*a*a*R.R*a*a*R.R*a*R.R*R.R*R.R*b*a*a*a*a*a*a*b*a*R.R*a*a*a*a*a*a*a*a*a*b*a*a*a*a*b*a*R.R*S.R*R.R*a*a*a*a*b*a*R.R*R.R*a*a*R.R*a*b*a*R.R*b*b*a*S.R*a*a*a*a*a*a*R.R*b*a*a*R.S*a*a*a*a*a*a*a*a*a*R.R*a*b*a*a*a*a*a*R.R*a*a*a*R.R*a*a*a*b*b*a*a*R.R*a*a*a*a*a*a*a*a*R.S*R.R*R.R*a*R.R*a*a*a*a*a*a*a*a*a*a*R.R*R.R*a*R.R*R.R*a*a*a*R.R*a*b*a*R.S*a*a*a*b*a*a*a*a*a*a*a*a*b*a*a*b*a*S.S*a*a*R.R*a*a*a*a*b*a*a*b*a*a*b*a*R.R*R.R*a*b*a*a*a*b*b*a*R.R*a*b*a*a*a*a*a*a*a*a*a*S.R*a*a*a*b*a*a*R.S*a*R.R*b*a*a*R.S*a*b*a*a*b*a*a*a*a*a*a*a*a*R.R*b*a*a*b*R.R*b*a*a*b*a*a*a*a*a*b*a*a*R.R*a*a*b*a*a*a*a*R.R*b*R.R*R.R*R.R*R.R*a*a*a*a*a*b*a*a*a*S.S*a*a*a*S.R*R.R*a*a*a*a*a*a*a*a*R.S*b*b*b*b*a*a*b*a*a*a*a*S.S*a*a*R.S*a*R.R*a*S.R*S.R*a*a*b*a*a*R.R*a*r*R.R*b*a*a*a*S.R*S.R*b*a*a*a*b*a*R.R*R.R*R.R*a*a*a*b*a*a*b*b*a*a*a*R.R*a*a*a*a*a*a*a*a*a*a*a*R.R*a*a*a*a*a*b*a*b*a*a*R.R*a*b*a*a*a*a*a*R.R*a*a*a*a*a*R.R*S.R*a*a*a*a*b*a*a*a*a*R.R*b*a*b*a*a*R.S*R.R*b*a*a*R.R*a*a*a*a*a*R.R*a*a*a*R.S*a*R.R*b*b*a*R.S*a*a*a*a*a*R.R*a*a*R.R*a*a*b*a*a*R.R*a*a*a*R.R*R.R*a*a*R.R*R.R*S.R*R.R*b*a*b*a*a*a*R.R*a*a*a*a*a*a*R.R*a*R.R*R.R*R.R*a*a*a*R.R*a*a*a*a*a*a*a*a*a*a*a*R.R*a*a*R.R*a*R.R*a*a*a*a*a*a*b*a*S.R*a*a*a*a*R.R*a*b*a*a*b*a*R.R*a*a*R.R*a*R.R*a*a*a*R.R*a*a*a*a*a*a*a*a*a*a*a*a*a*b*a*a*a*a*a*a*a*a*a*a*a*a*a*b*a*a*a*a*a*b*a*a*a*b*a*a*R.R*a*R.R*R.R*a*a*S.R*a*a*a*b*a*R.R*a*a*a*a*a*a*a*a*a*a*a*a*R.R*R.R*R.R*a*a*R.R*a*a*R.R*a*a*a*a*b*a*R.R*S.R*R.R*a*a*b*a*a*a*a*a*a*R.R*a*a*a*a*a*R.R*R.R*a*a*a*R.R*a*a*a*a*a*a*b*a*a*a*a*a*a*b*b*a*R.R*a*a*a*a*R.R*a*a*a*a*a*a*b*a*b*a*a*a*a*a*a*R.R*a*R.R*a*a*R.R*a*a*a*a*a*R.R*a*a*a*a*a*R.R*a*a*a*a*R.R*R.R*a*R.R*a*a*a*a*a*S.S*a*R.R*a*a*a*a*a*a*a*R.R*a*a*a*a*a*a*a*R.R*a*a*a*a*a*a*a*R.R*a*a*R.R*a*a*a*a*a*a*a*a*a*R.R*a*R.R*S.R*a*a*a*a*a*a*a*a*a*a*a*R.R*a*R.R*R.R*a*a*a*a*a*a*a*a*a*a*a*a*a*a*a*a*a*R.R*a*a*a*b*a*a*a*S.R*a*a*a*b*a*a*b*a*a*b*a*a*a*a*b*R.R*a*a*a*R.R*R.R*a*a*a*a*R.R*a*a*a*a*a*R.R*R.R*R.S*a*a*a*a*a*a*a*a*a*a*a*a*a*a*a*a*a*a*R.R*a*a*a*a*a*a*a*a*a*R.R*R.R*a*R.R*a*a*R.R*a*a*a*a*a*a*a*a*a*a*a*a*R.R*a*a*a*R.R*a*a*a*a*R.R*a*a*a*a*a*a*b*R.R*R.R*R.R*R.R*S.S*a*S.R*a*R.R*a*a*R.R*a*a*s*r*b*a*R.R*a*a*a*a*a*a*a*a*b*a*a*a*a*a*a*a*a*a*a*a*b*a*b*a*a*a*a*a*a*a*a*b*a*R.R*S.R*a*a*a*R.R*R.R*a*R.R*b*a*b*a*R.R*a*a*a*a*R.R*a*a*a*a*a*a*b*a*a*b*a*R.R*a*a*a*a*R.R*R.R*b*R.R*a*a*a*S.R*a*a*b*S.R*R.R*a*b*R.R*a*a*a*a*S.R*a*R.R*S.R*a*R.R*a*a*a*a*a*R.R*R.R*a*R.R*a*a*a*a*R.R*a*R.R*a*b*a*a*a*a*a*S.R*a*a*R.R*a*a*b*a*a*b*a*a*b*a*a*a*a*R.R*b*a*b*a*a*a*b*a*a*a*R.R*S.R*s*r*a*R.R*a*b*a*a*a*a*a*a*a*a*a*a*a*a*R.R*a*S.R*R.R*a*a*R.R*a*R.R*R.R*R.R*R.R*R.R*b*S.R*a*a*a*a*R.R*R.R*S.R*R.R*b*b*a*S.R*a*a*a*a*a*a*a*a*a*a*b*a*b*b*a*a*b*a*b*a*a*a*a*R.R*R.R*a*R.R*a*b*a*a*a*b*R.S*a*a*R.R*a*a*a*a*a*a*a*a*a*b*b*a*a*b*S.R*a*a*a*S.R*S.R*a*a*a*a*a*a*a*a*a*a*S.R*R.R*a*a*b*a*R.R*a*a*R.R*R.R*a*a*R.R*a*a*a*a*R.R*b*b*a*a*a*a*R.R*a*a*a*R.R*a*a*a*a*a*a*a*a*a*a*a*a*a*R.R*a*a*R.R*a*a*a*R.R*a*a*R.S*a*R.R*b*a*a*a*a*a*b*a*a*a*b*b*b*a*R.R*a*b*a*a*b*a*R.R*a*a*a*a*a*a*a*a*a*a*a*a*a*a*a*R.R*a*a*S.R*a*a*a*a*b*a*a*a*R.R*a*a*a*a*b*b*a*a*a*a*a*R.R*a*R.R*a*a*a*a*a*a*a*a*a*R.R*a*a*a*a*a*a*a*a*a*a*a*a*a*a*a*a*a*a*a*a*R.R*a*a*a*a*a*a*R.R*R.R*R.R*a*a*a*a*a*a*a*a*a*a*R.R*R.R*a*a*b*a*a*a*b*a*S.S*a*b*b*a*a*a*a*a*a*a*R.S*a*R.R*R.R*R.R*a*a*a*a*R.R*S.R*a*a*b*a*a*a*a*a*a*b*R.S*a*a*a*a*R.R*a*a*a*R.R*a*a*a*a*R.R*a*a*a*a*a*a*a*S.R*R.R*a*a*b*b*a*a*a*a*a*R.R*a*a*a*R.R*R.R*a*a*a*a*R.R*a*a*a*R.R*R.R*a*a*a*b*a*a*R.R*a*a*a*a*a*b*a*R.R*R.R*a*S.R*a*b*a*R.R*a*a*a*R.R*b*a*R.S*a*b*a*R.R*R.R*a*a*a*b*a*a*a*a*a*R.S*a*R.R*a*a*b*a*b*b*a*R.R*b*a*R.R*a*a*a*a*b*a*a*b*a*R.R*a*a*a*a*R.S*b*a*R.R*a*a*b*a*a*R.R*a*a*R.R*s*R.R*R.R*a*a*a*a*a*a*a*a*R.R*a*R.R*a*R.R*a*a*a*a*a*a*a*a*a*a*a*a*S.R*a*a*a*b*a*a*a*a*a*a*R.R*a*R.R*a*a*a*a*a*a*a*a*a*a*a*a*a*R.R*a*a*R.S*a*a*a*a*b*a*a*R.R*a*a*a*a*a*a*a*a*a*a*a*a*R.R*R.R*a*b*a*a*a*b*b*a*R.R*b*a*b*b*b*a*a*a*a*b*a*a*R.S*b*a*S.R*a*b*b*a*a*R.S*b*b*S.S*S.R*a*S.R*a*b*a*a*a*a*a*R.S*R.R*a*a*a*a*a*a*a*a*b*b*a*R.R*b*a*a*a*R,R.R.R.R,a,b,a,a,R.R,a,a,a,a,R.R,a,a,a,a,R.R,a,a,a,a,R.R,b,a,a,b,R.R,a,b,a,b,R.R,a,b,a,a,R.R,a,a,a,a,R.R,a,a,a,a,R.R,b,a,a,a,R.R,a,a,a,a,R.R,a,a,a,a,R.R,a,a,a,a,R.R,a,a,a,a,R.R,b,a,a,a,R.R,a,a,a,a,R.R,a,a,a,a,R.R,a,a,a,a,R.R,a,a,a,a,R.R,a,a,b,a,R.R,a,a,a,a,R.R,a,a,a,a,R.R,a,a,a,a,R.R,a,a,a,a,R.R,a,a,a,a,R.R,a,a,a,a,R.R,a,a,a,a,R.R,b,a,a,a,R.R,a,a,b,a,R.R,a,a,a,a,R.R,a,a,a,a,R.R,a,a,a,a,R.R,b,a,a,a,S.R,a,b,a,a,R.R,a,a,a,a,R.R,a,a,a,a,S.S,a,a,a,a,R.R,a,a,a,a,S.R,a,a,a,a,R.R,a,a,a,a,R.R,a,a,a,a,R.S,a,a,a,a,R.R,b,a,b,a,R.R,a,b,a,a,R.R,a,a,a,a,R.R,a,a,R.R,a,a,a,a,R.R,a,a,a,a,R.R,a,a,a,a,R.R,a,a,b,a,R.R,a,a,a,a,R.R,a,a,a,a,S.R,a,a,a,a,R.R,a,a,a,a,R.R,a,a,a,a,R.R,a,a,a,a,R.R,a,a,a,a,R.R,a,b,a,a,R.R,b,a,a,a,R.R,a,a,a,a,R.R,a,b,a,a,R.R,a,a,a,a,R.R,a,a,a,a,R.R,a,a,a,a,R.R,a,a,a,a,R.R,a,a,a,a,R.R,a,b,a,a,R.R,a,a,a,a,R.R,a,a,a,a,R.R,a,a,a,a,R.R,a,a,a,r,R.R,a,a,a,a,R.R,a,a,a,a,R.R,a,b,a,a,R.R,a,a,a,a,R.R,a,a,a,a,R.R,a,a,a,a,S.R,b,a,a,a,R.R,a,a,a,a,R.R,b,A,A,a,R.R,a,a,a,a,R.R,a,a,a,a,R.R,a,a,a,d,R.R,a,a,a,a,R.R,b,a,a,a,R.R,a,a,a,a,R.R,a,a,a,a,S.R,b,a,a,a,R.R,a,a,a,a,R.R,a,a,a,a,R.R,a,a,a,a,S.R,a,a,a,a,R.R,a,a,a,b,R.R,a,a,a,a,R.R,a,a,a,a,R.R,a,a,a,a,R.R,a,b,a,a,R.R,a,a,a,a,R.R,a,a,a,a,R.S,a,a,a,a,R.R,a,b,b,a,R.R,a,b,a,a,R.R,a,a,a,a,R.R,a,a,a,a,R.R,a,a,a,a,R.R,a,a,b,a,R.R,a,b,a,a,R.R,a,a,b,a,R.R,a,a,a,b,R.R,a,a,a,a,S.R,b,b,a,a,R.R,a,a,a,a,R.S,a,a,a,a,R.S,a,a,a,b,R.R,a,a,a,a,S.R,a,a,a,a,R.R,a,a,a,a,S.R,a,a,a,a,R.R,r,r,a,a,R.R,b,a,a,a,R.R,a,a,a,a,R.R,a,b,a,b,R.R,a,a,a,b,R.S,a,a,a,a,R.S,a,a,b,a,R.S,a,b,a,a,R.S,a,b,b,a,R.R,a,b,a,a,R.R,a,b,a,b,R.R,a,a,a,b,R.R,a,a,a,a,R.R,a,a,a,a,R.S,a,a,a,a,R.R,b,a,a,a,R.R,a,a,a,a,R.R,b,a,a,a,R.S,a,a,a,b,S.R,a,a,a,a,R.R,a,a,a,a,R.S,b,a,a,a,R.R,R*R.S.S*a*a*b*a*b*a*a*b*a*a*b*S.R*a*R.R*b*a*R.R*S.R*b*b*b*a*a*a*b*b*a*R.R*a*a*a*b*a*a*a*a*a*a*a*b*a*a*a*a*R.R*a*a*b*a*a*R.S*a*a*a*a*S.R*a*b*b*b*a*a*a*a*a*R.R*a*a*a*a*S.R*S.S*a*a*R.R*a*a*a*S.S*b*a*b*a*a*b*a*a*S.R*R.R*a*b*a*b*a*b*a*a*b*a*a*a*R.R*a*a*S.R*a*b*a*b*a*a*a*a*a*a*a*a*a*a*S.S*b*a*R.S*a*a*S.S*a*a*b*a*a*a*b*a*a*R.S*a*S.R*a*R.R*a*a*a*b*a*S.R*a*b*a*a*R.R*a*S.R*b*b*a*a*a*R.S*a*b*a*b*a*R.R*R.R*b*R.R*S.S*a*b*b*a*a*S.S*a*b*a*a*S.S*b*a*b*b*R.R*a*a*a*a*a*a*a*a*a*b*b*a*a*R.R*R.R*R.R*a*a*a*a*b*a*a*a*a*a*b*a*a*S.R*b*R.R*R.R*a*R.R*a*a*R.S*a*S.S*b*a*b*a*a*a*a*R.S*b*a*b*a*S.R*r*a*a*a*a*R.R*b*b*b*b*b*b*b*a*a*a*a*a*a*S.R*R.S*a*a*a*R.R*a*a*a*R.R*a*a*a*R.R*a*b*b*a*b*a*a*R.R*b*a*a*a*a*S.R*b*a*b*a*S.R*a*a*a*a*b*b*b*a*a*b*a*R.R*a*a*R.S*a*a*a*a*b*a*a*a*a*a*a*a*a*a*a*a*a*R.R*a*a*a*a*R.R*a*a*a*a*a*a*R.R*a*a*a*a*R.S*a*a*a*a*R.R*R.R*a*a*a*a*a*a*a*a*a*R.R*a*a*a*b*a*R.R*a*a*R.R*S.S*a*a*a*a*a*b*b*a*R.S*R.R*a*R.S*S.R*R.S*a*a*S.R*b*b*a*R.S*b*a*S.R*a*S.S*b*a*b*b*a*b*b*a*a*R.S*b*a*a*S.R*a*b*b*b*a*a*R.R*a*a*a*b*a*b*a*b*a*a*a*a*a*a*a*a*a*b*a*a*R.R*a*R.R*a*a*a*b*a*a*a*R.R*a*a*R.R*a*R.R*b*a*a*a*a*a*a*a*a*a*a*a*a*a*a*a*a*a*a*a*a*a*a*a*a*a*R.R*a*R.R*a*R.S*a*S.S*a*b*b*a*S.R*b*a*a*a*b*a*a*b*S.S*a*a*b*a*S.R*S.R*a*b*a*a*a*S.S*R.R*a*R.R*b*a*R.R*a*a*b*a*b*a*R.R*b*b*a*a*b*b*a*b*a*b*a*S.S*a*b*b*b*a*a*a*R.R*S.R*a*a*b*a*a*a*b*b*a*a*a*a*a*a*a*R.R*R.R*R.R*a*R.R*b*a*R.R*a*a*a*a*a*a*a*a*b*R.R*a*a*a*a*a*b*a*a*b*a*a*a*a*b*b*a*a*a*R.R*b*a*R.R*R.S*a*a*S.R*a*b*a*a*a*a*a*a*b*b*a*S.R*b*a*a*a*a*a*b*b*b*a*a*a*b*b*a*R.R*d*R.S*b*a*b*a*b*a*a*R.R*a*R.R*S.R*b*a*b*a*R.R*R.S*b*a*R.S*a*a*a*a*R.R*b*a*R.R*b*a*R.S*a*a*a*a*a*a*a*a*S.R*b*b*b*a*R.R*a*a*b*a*a*S.S*a*a*a*b*R.R*b*a*a*a*a*b*S.R*a*a*a*a*a*a*b*S.R*a*a*a*a*b*a*b*a*R.R*R.R*a*a*b*b*a*a*R.R*b*a*b*a*a*R.S*b*S.R*b*a*a*a*a*b*a*b*b*a*a*a*a*a*b*b*a*a*b*a*a*b*b*R.R*b*a*a*b*a*b*a*R.S*b*b*a*a*a*a*b*a*a*b*R.S*a*a*R.R*a*s*r*a*a*a*a*R.R*a*a*b*a*a*a*R.R*R.R*a*a*a*a*a*a*a*a*a*a*a*a*a*a*a*a*a*a*a*a*b*a*a*a*a*S.R*a*a*a*R.S*b*R.R*a*a*b*a*R.R*a*a*b*a*a*a*R.S*a*a*b*a*S.R*b*a*a*S.S*a*a*b*b*b*a*R.S*b*a*b*a*a*a*b*b*b*a*b*b*b*a*a*a*a*a*b*b*a*a*a*S.S*a*b*b*a*b*b*a*a*a*b*a*b*a*b*a*a*b*b*b*a*a*a*b*a*a*a*a*a*a*a*R.R*S.R*R.R*a*a*a*a*a*R.R*a*R.S*a*b*b*b*S.R*a*R.R*b*b*a*b*a*b*b*b*a*b*b*S.R*a*a*a*a*a*b*b*b*b*b*R.R*S.S*a*a*S.R*a*R.S*a*b*b*b*r*r*b*b*b*a*R.S*a*a*a*R.S*b*b*b*a*a*a*S.R*b*b*b*a*a*b*a*b*a*a*a*a*b*a*b*a*a*a*a*b*b*b*a*a*R.R*S.R*a*b*a*a*a*a*a*a*S.R*a*S.R*b*a*a*a*a*a*R.S*b*a*e*S,v,v,e,e,a,R*R.R.S*a*b*a*a*a*a*a*S.S*b*a*R.S*a*a*a*a*b*b*b*R.S*R.R*b*b*a*S.S*b*a*b*S.R*a*a*b*R.R*b*b*a*a*a*a*a*b*b*b*b*b*a*a*a*S.R*a*b*b*a*a*b*a*a*b*a*a*R.R*a*b*a*b*R.S*b*b*b*b*b*b*b*b*b*a*a*R.R*S.R*b*a*a*R.R*a*b*R.R*b*a*b*b*R.S*b*a*a*b*a*S.R*a*b*b*a*a*a*S.R*a*a*a*a*b*b*a*a*b*a*a*a*a*a*R.R*R.R*a*a*b*a*a*R.R*a*a*a*a*a*b*R.R*a*b*a*b*a*a*a*a*R.R*a*a*a*a*a*a*S.S*a*b*R.R*a*a*a*a*a*a*S.R*R.R*b*b*a*a*a*a*a*b*a*a*R.S*a*a*b*b*a*S.R*b*a*R.S*s*a*R.S*b*a*a*a*b*a*a*b*a*a*a*a*b*a*b*a*b*b*b*a*b*R.S*a*R.S*a*a*R.S*a*a*b*a*a*b*a*S.R*a*a*a*a*a*a*R.R*a*a*R.R*a*a*R.R*a*a*a*a*a*b*b*b*a*a*a*a*b*b*a*a*b*a*a*a*a*a*b*a*b*R.R*b*b*a*a*a*b*a*a*R.R*b*b*R.S*b*S.R*b*a*b*a*b*a*S.S*a*b*R.S*a*b*b*S.R*R.S*R.R*b*a*b*a*R.R*b*a*a*S.S*b*a*b*b*b*a*a*S.S*a*b*a*a*a*b*b*b*R.R*a*b*S.S*S.S*b*a*a*a*a*a*S.R*a*R.R*b*a*b*a*a*b*a*a*a*a*a*a*a*a*b*a*a*R.R*a*a*R.R*a*a*R.R*b*R.S*a*a*a*b*a*a*a*b*a*a*b*a*a*a*a*a*a*a*a*a*a*a*b*a*a*R.R*R.R*b*b*a*a*R.S*a*a*a*a*a*S.S*a*a*b*a*a*b*a*S.R*R.R*S.S*a*a*b*b*S.R*a*R.R*a*b*a*a*S.R*b*a*a*a*a*b*a*a*S.R*b*b*a*b*a*R.R*a*R.R*b*a*a*a*b*b*a*b*b*a*R.R*b*b*a*b*a*b*b*a*a*a*R.R*a*a*a*a*a*a*a*a*R.R*b*a*a*a*a*b*a*a*a*a*R.S*a*a*a*a*a*R.R*S.R*a*a*a*a*R.R*R.R*R.R*a*b*a*S.S*b*a*S.R*a*a*S.S*a*a*S.R*a*a*b*b*a*a*a*a*a*a*a*a*S.R*S.S*a*R.R*b*a*a*a*a*a*a*S.R*b*a*a*a*a*a*R.R*a*a*a*a*a*a*b*a*S.S*b*a*b*b*a*a*b*b*a*R.S*b*b*R.S*b*a*a*a*b*b*b*a*a*a*a*R.R*a*b*a*b*b*a*S.S*a*a*a*a*a*a*b*b*a*a*a*a*a*a*a*a*S.R*a*a*a*a*a*b*a*a*a*a*a*a*a*a*R.R*a*a*a*a*a*a*a*R.S*a*b*a*R.S*b*a*a*b*S.S*a*a*a*a*a*S.S*b*b*a*a*a*a*b*a*a*b*a*S.S*a*a*R.R*a*b*b*b*b*a*a*b*b*a*a*a*a*a*a*b*b*b*a*b*b*a*a*a*b*S.S*a*R.R*a*R.R*b*a*a*a*b*a*b*a*b*a*b*b*b*a*a*S.S*a*a*a*b*a*R.R*a*b*a*b*a*R.R*a*a*a*R.R*b*a*a*R.R*a*a*b*b*a*a*a*b*b*a*a*b*b*a*a*a*S.R*a*S.R*a*a*b*a*a*b*a*R.S*R.R*b*b*R.S*a*a*a*a*a*b*a*b*a*a*a*a*a*a*R.S*a*b*b*b*b*b*a*a*b*b*b*R.R*b*b*b*b*b*a*a*a*b*a*S.S*b*a*b*b*b*a*b*a*b*b*b*a*b*a*a*b*a*S.S*a*a*b*a*R.R*a*b*b*a*b*a*S.R*a*b*a*a*b*b*a*b*a*a*a*a*R.S*a*b*a*b*a*R.S*a*b*a*b*b*b*R.R*R.S*b*R,a,a,a,R.R,a,a,a,a,R.S,a,a,a,a,R.R,a,a,a,a,R.R,a,a,b,a,R.S,a,a,a,a,R.R,a,a,a,a,R.S,a,a,a,a,R.R,a,a,a,a,S.R,a,a,a,a,R.R,b,a,a,a,R.R,a,a,a,a,R.R,a,a,a,a,R.R,a,a,a,a,R.R,a,a,a,a,S.S,a,b,a,a,R.R,a,a,a,a,R.R,a,b,a,a,S.R,a,b,a,a,R.R,a,a,a,a,R.R,a,b,b,a,R.S,b,a,b,a,R.R,a,a,a,a,R.S,a,a,a,b,S.R,a,a,b,a,R.R,b,a,a,a,R.R,a,a,a,a,R.R,a,a,a,a,R.R,a,a,b,a,R.R,a,b,a,a,S.R,b,a,b,a,R.R,a,b,a,a,R.R,a,a,a,a,R.R,a,a,a,a,R.R,a,a,a,a,S.R,a,b,a,a,R.R,b,a,b,a,R.R,b,a,a,a,R.S,a,a,a,a,R.R,b,a,b,a,S.R,a,a,a,a,R.R,b,a,a,a,R.S,R*R.R.S*b*b*a*b*b*a*a*S.R*a*b*b*a*a*a*a*a*a*R.R*a*a*a*b*a*a*b*b*a*a*b*b*a*R.S*a*b*a*S.R*b*b*b*a*S.R*b*b*R.S*b*b*b*b*a*a*a*b*b*b*b*b*a*R.R*b*a*b*a*a*b*S.S*a*S.R*a*a*S.R*a*a*a*a*a*a*b*b*a*b*a*a*R.R*S.R*a*a*a*R.R*b*a*a*a*S.S*a*a*a*R.R*a*a*a*a*b*R.R*R.S*a*a*a*a*a*R.R*S.R*b*b*a*a*a*a*a*a*b*a*R.R*a*a*b*a*a*b*R.S*a*a*a*a*a*a*a*S.S*a*S.R*a*a*a*a*a*a*a*b*a*a*S.R*b*a*a*a*a*b*a*a*a*R.S*b*a*b*S.R*b*a*S.S*a*S.R*b*a*b*a*b*a*a*S.R*R.R*a*a*a*a*a*b*a*a*R.S*b*b*S.R*a*a*R.R*b*a*R.R*R.R*a*b*b*a*a*a*a*a*b*b*a*a*a*b*a*a*a*b*a*a*R.S*a*a*R.R*R.R*a*R.R*b*a*a*a*S.R*S.R*b*a*a*a*R.S*a*a*R.R*a*R.S*a*a*a*b*b*a*b*b*a*b*a*R.R*b*a*a*a*a*a*R.R*R.R*R.R*b*b*b*a*b*b*a*a*R.S*a*a*a*a*a*b*b*b*a*R.S*a*b*a*a*R.R*a*b*a*b*b*b*a*R.R*a*a*a*a*a*a*a*b*a*b*b*a*a*a*a*a*a*a*a*R.R*b*r*r*a*a*a*R.R*a*a*a*a*b*b*a*a*b*a*a*a*a*a*R.R*a*a*a*a*a*R.R*b*a*a*a*b*a*S.R*a*R.R*a*a*R.S*a*b*a*a*R.R*a*a*a*R.R*a*a*b*a*a*b*b*b*S.R*a*a*a*S.R*a*a*S.S*a*S.S*a*a*a*b*a*a*b*a*S.R*R.R*S.R*a*b*a*a*b*b*a*a*R.S*a*a*a*a*b*a*a*b*a*a*S.R*b*S.S*a*b*a*a*a*a*a*a*a*b*a*a*a*a*a*a*R.R*a*b*a*a*R.R*a*S.R*a*a*S.R*b*a*a*R.S*a*R.R*R.R*a*a*a*a*R.R*R.R*a*a*a*a*a*R.R*b*a*a*a*S.R*R.R*R.S*b*a*a*a*S.R*S.R*S.R*a*R.R*b*a*b*a*a*R.R*a*b*b*a*R.R*b*b*b*a*b*a*a*a*a*b*R.R*a*a*a*R.S*a*a*R.R*a*b*b*b*a*a*b*S.R*a*a*b*a*S.R*a*b*a*S.S*a*a*b*a*a*a*b*S.S*a*S.S*a*R.R*a*a*a*b*a*a*R.R*a*b*a*R.R*R.R*a*a*a*a*a*a*a*a*a*R.S*b*b*a*R.R*a*a*a*a*b*a*b*a*a*a*b*a*a*a*a*a*a*a*a*a*a*S.R*R.R*b*R.R*R.R*a*a*R.R*S.S*a*R.R*R.R*b*a*S.R*R.S*b*b*a*a*a*b*b*S.S*a*S.S*a*b*a*a*a*a*a*S.R*R.S*a*a*b*a*a*a*a*S.R*a*a*a*S.R*a*b*a*R.S*b*a*a*a*b*a*S.R*a*b*S.R*a*a*R.S*b*R.S*R.R*R.R*b*a*a*b*a*b*a*R.S*a*a*b*a*b*R.R*b*a*S.R*b*a*S.S*R.R*a*a*a*a*b*a*a*a*a*a*S.R*b*a*R.R*b*a*b*a*a*a*S.R*b*b*a*a*a*S.R*a*b*a*a*a*b*a*b*a*S.R*a*b*b*b*a*S.R*b*S.R*b*b*a*a*S.S*b*R.R*R.S*a*R.R*a*a*b*a*R.R*b*a*a*a*a*a*b*b*b*b*a*a*a*a*a*a*S.R*a*S.R*a*b*a*R.S*b*b*b*s*r*a*a*S.R*r*a*a*a*a*S.R*b*b*a*R.S*a*a*a*a*a*b*R.R*a*a*a*a*b*a*a*b*a*a*b*a*a*a*a*a*a*a*a*a*b*a*r*s*a*a*R.R*R.R*b*a*b*a*R.R*b*a*b*b*b*S.R*a*a*a*a*a*a*a*b*a*R.S*b*b*b*a*a*R.R*e*R,R*s*a*a*R.S*b*a*b*R.R*a*S.R*R.R*b*b*b*a*a*S.R*R.S*b*b*b*b*a*b*a*a*a*b*a*b*b*b*R.R*a*a*a*a*b*b*a*R.S*b*a*b*b*a*b*b*a*a*b*a*a*a*b*a*a*R.R*b*a*R.R*a*a*a*a*a*a*a*a*a*a*a*a*a*a*R.R*a*a*a*a*a*a*a*a*a*a*a*a*b*b*a*b*R.S*a*a*S.S*a*a*a*a*b*a*a*a*R.S*R.S*b*b*a*b*a*a*a*R.R*b*b*a*b*a*a*a*b*a*b*a*b*b*a*b*a*b*b*a*r*r*a*R.R*a*b*b*a*a*R.R*b*R.S*b*b*b*a*S.R*a*R.R*a*S.S*R.R*b*b*a*a*a*a*R.R*a*b*a*R.R*a*a*a*a*a*a*b*a*a*a*a*b*a*S.R*a*a*a*a*a*a*a*b*a*R.R*b*a*a*S.R*a*b*a*b*a*a*a*a*b*a*a*S.R*a*S.R*S.R*a*a*R.R*a*a*a*R.S*a*a*b*a*a*a*a*a*a*a*R.R*a*a*a*R.R*a*a*a*R.S*a*b*a*R.R*b*a*S.S*a*b*S.R*a*S.R*b*b*b*a*a*b*b*b*b*a*R.S*a*R.R*a*a*a*a*R.S*b*b*b*a*b*a*a*b*b*a*R.S*b*a*a*R.R*a*a*a*R.R*b*a*a*a*a*a*R.R*R.R*a*R.R*a*a*b*b*b*a*R.R*a*a*a*a*a*a*a*R.R*b*a*a*a*S.S*a*a*b*a*a*a*R.R*a*a*a*a*a*b*b*b*b*a*'
p1
.F-10364.024220014004
.S'From-Botnet-UDP-DNS-DGA-18'
p1
.F1.1000000000000001
.