(dp1
S'V'
F0.010416666666666666
sS'e'
F0.083333333333333329
sS'h'
F0.17708333333333334
sS'+'
F0.41666666666666669
sS'*'
F0.072916666666666671
sS'Y'
F0.041666666666666664
sS'H'
F0.041666666666666664
sS'v'
F0.010416666666666666
sS'y'
F0.072916666666666671
sS'8'
F0.020833333333333332
sS'E'
F0.052083333333333336
s.ccopy_reg
_reconstructor
p1
(cstf.common.markov_chains
Matrix
p2
c__builtin__
dict
p3
(dp4
(S'e'
S'+'
tp5
F0.875
s(S'*'
S'e'
tp6
F0.14285714285714285
s(S'+'
S'e'
tp7
F0.17499999999999999
s(S'v'
S'+'
tp8
F1
s(S'8'
S'8'
tp9
F0.5
s(S'h'
S'+'
tp10
F1
s(S'+'
S'y'
tp11
F0.125
s(S'H'
S'*'
tp12
F0.25
s(S'*'
S'y'
tp13
F0.2857142857142857
s(S'+'
S'v'
tp14
F0.025000000000000001
s(S'y'
S'*'
tp15
F0.42857142857142855
s(S'Y'
S'+'
tp16
F0.5
s(S'+'
S'H'
tp17
F0.074999999999999997
s(S'8'
S'+'
tp18
F0.5
s(S'E'
S'+'
tp19
F1
s(S'+'
S'E'
tp20
F0.125
s(S'V'
S'+'
tp21
F1
s(S'*'
S'V'
tp22
F0.14285714285714285
s(S'*'
S'H'
tp23
F0.14285714285714285
s(S'H'
S'+'
tp24
F0.75
s(S'+'
S'Y'
tp25
F0.050000000000000003
s(S'e'
S'*'
tp26
F0.125
s(S'*'
S'Y'
tp27
F0.2857142857142857
s(S'Y'
S'*'
tp28
F0.5
s(S'y'
S'+'
tp29
F0.5714285714285714
s(S'+'
S'h'
tp30
F0.42499999999999999
stRp31
(dp32
S'itemlist'
p33
(lp34
sS'init_vector'
p35
(dp36
S'V'
F0.010416666666666666
sS'e'
F0.083333333333333329
sS'h'
F0.17708333333333334
sS'+'
F0.41666666666666669
sS'*'
F0.072916666666666671
sS'Y'
F0.041666666666666664
sS'H'
F0.041666666666666664
sS'v'
F0.010416666666666666
sS'y'
F0.072916666666666671
sS'8'
F0.020833333333333332
sS'E'
F0.052083333333333336
ssb.S'88+h+h+h+h+Y*y*e*V+v+e+e+e+E+e+E+E+E+e+e+e+E+h+h+h+H+H+y+h+y+Y*H*y*Y+h+y*Y+h+h+H+h+h+y+y+h+h+h+h+'
p1
.F-90.044193926686518
.S'From-Botnet-TCP-HTTP-CC-25'
p1
.F1.1000000000000001
.