ccopy_reg
_reconstructor
p1
(cpykov
Vector
p2
c__builtin__
dict
p3
(dp4
S's'
F0.089999999999999997
sS'2'
F0.02
sS'B'
F0.40000000000000002
sS'+'
F0.48999999999999999
stRp5
.ccopy_reg
_reconstructor
p1
(cpykov
Chain
p2
c__builtin__
dict
p3
(dp4
(S'2'
S'2'
tp5
F0.5
s(S'B'
S'+'
tp6
F1
s(S'+'
S's'
tp7
F0.18367346938775511
s(S'+'
S'B'
tp8
F0.81632653061224492
s(S'2'
S'+'
tp9
F0.5
s(S's'
S'+'
tp10
F1
stRp11
(dp12
S'_guess'
p13
g1
(cpykov
Vector
p14
g3
(dp15
S's'
F0.089999999999999997
sS'2'
F0.02
sS'B'
F0.40000000000000002
sS'+'
F0.48999999999999999
stRp16
sb.S'22+B+B+B+B+B+B+B+B+B+B+B+B+s+B+B+B+s+B+B+B+B+B+B+B+s+B+B+B+s+B+B+B+s+B+B+B+s+B+B+B+s+B+B+B+s+B+B+B+s+B+B+B+B+B+B+B+s+B+B+B+s+B+B+B+s+B+s+B+s+B+B+B+s+B+B+B+s+B+B+B+s+B+B+B+s+B+B+B+s+B+B+B+s+B+B+B+s+B+B+B+s+B+B+B+s+B+B+B+s+B+B+B+s+B+B+B+B+B+B+B+B+B+B+B+s+B+B+B+s+B+B+B+B+B+B+B+B+B+B+B+B+B+B+B+s+B+B+B+s+B+B+B+s+B+B+B+s+B+B+B+s+B+B+B+s+B+B+B+s+B+B+B+B+B+B+B+s+B+B+B+s+B+B+B+s+B+B+B+s+B+s+B+B+B+B+B+s+B+B+B+s+B+B+B+s+B+B+B+s+B+B+B+s+B+B+B+s+B+B+B+s+B+B+B+s+B+B+B+B+B+B+B+B+B+B+B+s+B+B+B+s+B+B+B+s+B+B+B+s+B+B+B+B+B+B+B+s+B+B+B+s+B+B+B+s+B+B+B+s+B+B+B+B+B+B+B+B+B+B+B+s+B+B+B+s+B+B+B+s+B+B+B+B+B+B+B+s+B+B+B+s+B+B+B+s+B+B+B+s+B+B+B+s+B+B+B+s+B+B+B+s+B+B+B+s+B+B+B+s+B+B+B+s+B+B+B+s+B+B+B+s+B+B+B+s+B+B+B+s+B+B+B+s+B+B+B+s+B+s+B+s+B+B+B+s+B+B+B+s+B+B+B+s+B+B+B+s+B+s+B+s+B+B+B+B+B+B+B+B+B+B+B+B+B+B+B+s+B+B+B+s+B+B+B+s+B+B+B+s+B+B+B+s+B+B+B+s+B+B+B+s+B+B+B+s+B+B+B+s+B+B+B+s+B+B+B+s+B+B+B+s+B+B+B+s+B+B+B+B+B+B+B+s+B+B+B+B+B+B+B+s+B+B+B+s+B+B+B+s+B+B+B+B+B+B+B+s+B+B+B+s+B+B+B+s+B+B+B+s+B+B+B+s+B+B+B+s+B+s+B+s+B+B+B+s+B+B+B+s+B+B+B+s+B+B+B+s+B+B+B+s+B+B+B+s+B+B+B+s+B+B+B+s+B+B+B+s+B+B+B+s+B+B+B+s+B+B+B+s+B+B+B+s+B+B+B+B+B+B+B+s+B+B+B+s+B+B+B+B+B+B+B+s+B+B+B+s+B+B+B+s+B+B+B+s+B+B+B+s+B+B+B+s+B+B+B+s+B+B+B+B+B+B+B+s+B+B+B+s+B+B+B+s+B+B+B+s+B+B+B+s+B+B+B+s+B+B+B+B+B+B+B+s+B+B+B+s+B+B+B+s+B+B+B+s+B+B+B+s+B+B+B+s+B+B+B+s+B+B+B+s+B+B+B+s+B+B+B+B+B+B+B+s+B+B+B+s+B+B+B+B+B+B+B+s+B+B+B+B+B+B+B+s+B+B+B+B+B+B+B+B+B+B+B+s+B+B+B+B+B+B+B+s+B+B+B+s+B+B+B+s+B+B+B+B+B+B+B+s+B+B+B+s+B+B+B+s+B+s+B+B+B+B+B+B+B+B+B+B+B+B+B+s+B+B+B+B+B+B+B+B+B+B+B+s+B+B+B+B+B+B+B+s+B+B+B+s+B+B+B+s+B+B+B+s+B+B+B+s+B+B+B+B+B+B+B+B+b+B+B+s+B+B+B+s+B+B+b+s+B+B+B+B+B+B+B+B+B+B+B+s+B+B+B+s+B+B+B+s+B+B+B+s+B+B+B+s+B+B+B+s+B+B+B+s+B+s+B+s+B+B+B+s+B+B+B+s+B+B+B+s+B+B+B+s+B+B+B+s+B+B+B+s+B+B+B+s+B+B+B+s+B+B+B+s+B+B+B+s+B+B+B+s+B+B+B+s+B+B+B+s+B+B+B+s+B+B+B+s+B+B+B+B+B+B+B+s+B+B+B+s+B+B+B+s+B+B+B+s+B+B+B+s+B+B+B+s+B+B+B+s+B+B+B+s+B+B+B+s+B+B+B+s+B+B+B+B+B+B+B+B+B+B+B+s+B+B+B+s+B+B+B+s+B+B+B+s+B+B+B+s+B+B+B+s+B+B+B+B+B+B+B+s+B+B+B+s+B+B+B+B+B+B+B+s+B+B+B+s+B+B+B+s+B+B+B+s+B+B+B+s+B+B+B+s+B+B+B+s+B+B+B+s+B+B+B+s+B+B+B+s+B+B+B+s+B+B+B+s+B+B+B+s+B+B+B+s+B+B+B+s+B+B+B+s+B+B+B+s+B+B+B+s+B+B+B+s+B+B+B+s+B+B+B+s+B+B+B+s+B+B+B+s+B+B+B+s+B+B+B+s+B+B+B+s+B+B+B+s+B+B+B+B+B+B+B+s+B+B+B+s+B+B+B+B+B+B+B+s+B+B+B+s+B+B+B+s+B+B+B+s+B+B+B+B+B+B+B+s+B+B+B+s+B+B+B+s+B+B+B+s+B+B+B+s+B+B+B+s+B+B+B+s+B+B+B+s+B+B+B+s+B+B+B+s+B+B+B+s+B+B+B+s+B+B+B+s+B+B+B+s+B+B+B+s+B+B+B+s+B+B+B+s+B+B+B+s+B+B+B+s+B+B+B+s+B+B+B+s+B+B+B+s+B+B+B+s+B+B+B+s+B+B+B+s+B+B+B+s+B+B+B+s+B+B+B+s+B+B+B+B+B+B+B+s+B+B+B+s+B+B+B+s+B+B+B+s+B+B+B+s+B+B+B+s+B+B+B+s+B+B+B+s+B+B+B+s+B+B+B+s+B+B+B+B+B+B+B+s+B+B+B+s+B+B+B+s+B+B+B+s+B+B+B+s+B+B+B+s+B+B+B+B+B+B+B+s+B+B+B+s+B+B+B+s+B+B+B+s+B+B+B+s+B+B+B+s+B+B+B+s+B+B+B+s+B+B+B+B+B+B+B+s+B+B+B+s+B+B+B+B+B+B+B+s+B+B+B+s+B+B+B+B+B+B+B+s+B+B+B+s+B+B+B+s+B+B+B+s+B+B+B+s+B+B+B+s+B+B+B+s+B+B+B+s+B+B+B+s+B+B+B+s+B+B+B+s+B+B+B+s+B+B+B+s+B+B+B+s+B+B+B+s+B+B+B+s+B+B+B+s+B+B+B+B+B+B+B+s+B+B+B+B+B+s+B+B+B+B+B+B+B+B+B+s+B+B+B+s+B+s+B+s+B+B+B+s+B+B+B+B+B+B+B+s+B+B+B+B+B+B+B+s+B+B+B+s+B+B+B+s+B+B+B+s+B+B+B+s+B+B+B+s+B+B+B+s+B+B+B+s+B+B+B+B+B+B+B+s+B+B+B+B+B+B+B+s+B+B+B+s+s+b+B+s+B+B+B+s+B+B+B+s+B+B+B+B+B+s+B+s+s+S,S+B+s+s*s+s*s+s*s+s*s+s*s+0000000000000000000SS+s+B+B+B+s+B+B+B+s+B+B+B+s+B+B+B+s+B+B+B+s+B+B+B+s+B+B+B+s+B+s+B+s+B+B+B+s+B+B+B+s+B+B+B+s+B+B+B+s+B+B+B+s+B+B+B+s+B+B+B+s+B+B+B+s+B+B+B+s+B+B+B+s+B+B+B+s+B+B+B+s+B+B+B+B+B+B+B+s+B+B+B+s+B+B+B+s+B+B+B+s+B+B+B+s+B+B+B+b+B+B+B+s+B+B+B+s+B+B+B+s+B+B+B+s+B+B+B+s+B+B+B+s+B+B+B+s+B+B+B+s+B+B+B+s+B+B+B+s+B+B+B+s+B+B+B+s+B+B+B+s+B+B+B+B+B+B+B+s+B+B+B+B+B+B+B+B+B+B+B+s+B+B+B+s+B+B+B+s+B+B+B+s+B+B+B+B+B+B+B+s+B+B+B+B+B+B+B+s+B+B+B+s+B+B+B+b+C+B+B+s+s+B+B+B+B+s+B+s+B+B+B+s+B+B+B+s+B+C+B+s+B+B+B+s+B+B+B+s+B+B+B+B+B+B+B+s+B+B+B+B+B+B+B+B+B+B+B+B+B+B+B+B+B+B+B+s+B+B+B+s+B+B+B+B+B+B+B+s+B+B+B+s+B+B+B+s+B+B+B+s+B+B+B+s+B+s+B+s+B+B+B+s+B+B+B+s+B+B+B+s+B+B+B+s+B+B+B+s+B+B+B+s+B+B+B+B+B+B+B+s+B+B+B+s+B+B+B+s+B+B+B+s+B+B+B+s+B+B+B+s+B+B+B+s+B+B+s+s+B+B+B+s+B+B+B+s+B+B+B+B+B+B+B+s+B+B+B+B+B+B+B+s+B+B+B+B+B+B+B+s+B+B+B+s+B+B+B+s+B+B+B+s+B+B+B+s+B+B+B+s+B+B+B+B+B+B+B+B+B+B+B+s+B+B+B+s+B+B+B+s+B+B+B+B+B+B+B+B+B+B+B+B+B+B+B+B+B+B+B+s+B+B+B+B+B+B+B+s+B+B+B+s+B+B+B+s+B+B+B+s+B+B+B+s+B+B+B+s+B+B+B+B+B+B+B+s+B+B+B+s+B+B+B+s+B+B+B+s+B+B+B+s+B+B+B+s+B+B+B+s+B+B+B+s+B+B+B+s+B+B+B+s+B+B+B+s+B+B+B+s+B+B+B+s+B+B+B+s+B+B+B+s+B+B+B+s+B+B+B+s+B+B+B+s+B+B+B+s+B+B+B+s+B+B+B+B+B+B+B+B+B+B+B+s+B+B+B+s+B+B+B+s+B+B+B+s+B+B+B+s+B+B+B+s+B+B+B+s+B+B+B+s+B+B+B+s+B+B+B+s+B+B+B+s+B+B+B+s+B+B+B+s+B+B+B+s+B+B+B+B+B+B+B+s+B+B+B+s+B+B+B+s+B+B+B+s+B+B+B+s+B+B+B+s+B+B+B+s+B+B+B+s+B+B+B+s+B+B+B+s+B+B+B+s+B+B+B+s+B+B+B+s+B+B+B+s+B+B+B+s+B+B+B+s+B+B+B+s+B+B+B+s+B+B+B+s+B+s+B+s+B+B+B+B+B+B+B+s+B+B+B+B+B+B+B+s+B+B+B+B+B+B+B+s+B+B+B+s+B+B+B+s+B+B+B+B+B+B+B+s+B+B+B+s+B+B+B+s+B+B+B+s+B+B+B+s+B+B+B+s+B+B+B+B+B+B+B+B+B+B+B+s+B+B+B+s+B+B+B+s+B+B+B+s+B+B+B+s+B+B+B+s+B+B+B+s+B+B+B+s+B+B+B+s+B+B+B+s+B+B+B+s+B+B+B+s+B+B+B+s+B+B+B+s+B+B+B+s+B+B+B+s+B+B+B+s+B+B+B+s+B+B+B+s+B+B+B+s+B+B+B+s+B+B+B+s+B+B+B+s+B+B+B+s+B+B+B+B+B+B+B+s+B+B+B+s+B+B+B+s+B+B+B+s+B+B+B+s+B+B+B+s+B+B+B+s+B+B+B+s+B+B+B+s+B+B+B+s+B+B+B+s+B+B+B+s+B+B+B+s+B+B+B+B+B+B+B+s+B+B+B+s+B+B+B+s+B+B+B+s+B+B+B+s+B+B+B+s+B+B+B+B+B+B+B+s+B+B+B+s+B+B+B+s+B+B+B+s+B+B+B+s+B+B+B+s+B+B+B+s+B+B+B+s+B+B+B+s+B+B+B+s+B+B+B+s+B+B+B+s+B+B+B+B+B+B+B+B+B+B+B+s+B+B+B+B+B+B+B+s+B+B+B+B+B+B+B+s+B+B+B+B+B+B+B+s+B+B+B+s+B+B+B+B+B+B+B+B+B+B+B+s+B+B+B+s+B+B+B+s+B+B+B+s+B+B+B+s+B+B+B+B+B+B+B+s+B+B+B+s+B+B+B+s+B+B+B+s+B+B+B+s+B+B+B+B+B+B+B+B+B+B+B+s+B+B+B+s+B+B+B+s+B+B+B+s+B+B+B+s+B+B+B+s+B+B+B+s+B+B+B+s+B+B+B+s+B+B+B+s+B+B+B+s+B+B+B+s+B+B+B+s+B+B+B+s+B+B+B+s+B+B+B+s+B+B+B+s+B+B+B+s+B+B+B+s+B+B+B+s+B+B+B+s+B+B+B+s+B+B+B+s+B+B+B+s+B+B+B+s+B+B+B+s+B+B+B+s+B+B+B+s+B+B+B+s+B+B+B+s+B+B+B+B+B+B+B+s+B+B+B+s+B+B+B+s+B+B+B+s+B+B+B+s+B+B+B+s+B+B+B+s+B+B+B+B+B+B+B+s+B+s+B+s+B+B+B+s+B+B+B+s+B+B+B+s+B+B+B+s+B+B+B+s+B+B+B+s+B+B+B+s+B+B+B+s+B+B+B+s+B+B+B+s+B+B+B+s+B+B+B+s+B+B+B+s+B+B+B+s+B+B+B+s+B+B+B+s+B+B+B+s+B+B+B+s+B+B+B+s+B+B+B+s+B+B+B+s+B+B+B+s+B+B+B+s+B+B+B+s+B+B+B+s+B+B+B+s+B+B+B+s+B+B+B+s+B+B+B+s+B+B+B+s+B+B+B+B+B+B+B+s+B+B+B+s+B+B+B+s+B+B+B+s+B+B+B+s+B+B+B+s+B+B+B+s+B+B+B+s+B+B+B+s+B+B+B+s+B+B+B+s+B+B+B+s+B+B+B+s+B+B+B+B+b+B+B+B+B+B+B+s+B+B+B+s+B+B+B+s+B+B+B+s+B+B+B+s+B+B+B+s+B+B+B+B+B+B+B+s+B+B+B+B+B+B+B+s+B+B+B+s+B+B+B+s+B+B+B+s+B+B+B+B+B+B+B+s+B+B+B+s+B+B+B+s+B+B+B+s+B+B+B+s+B+B+B+s+B+B+B+s+B+B+B+s+B+B+B+s+B+B+B+s+B+B+B+s+B+B+B+s+s+b+B+s+B+B+S,S+s+s*s+000000000000000000000000000000000000000000000000SS+s+B+B+B+B+B+B+B+B+B+B+B+b+B+B+B+s+B+B+B+s+B+B+B+s+B+B+B+B+B+B+B+B+B+B+B+B+B+B+B+s+B+B+B+B+B+B+B+B+B+B+B+s+B+B+B+s+B+B+B+s+B+B+B+s+B+B+B+B+B+B+B+B+B+B+B+B+B+B+B+B+B+B+B+s+B+B+B+s+B+B+B+B+B+B+B+B+B+B+B+s+B+B+B+s+B+B+B+s+B+B+B+s+B+B+B+B+B+B+B+s+B+B+B+s+B+B+B+s+B+B+B+s+B+B+B+B+B+B+B+s+B+B+B+s+B+B+B+B+B+B+B+B+B+B+B+s+B+B+B+s+B+B+B+s+B+B+B+s+B+B+B+B+B+B+B+B+B+B+B+B+B+B+B+s+B+B+B+B+B+B+B+B+B+B+B+B+B+B+B+s+B+B+B+s+B+B+B+s+B+B+B+B+B+B+B+s+B+B+B+B+B+B+B+s+B+B+B+s+B+B+B+s+B+B+B+s+B+B+B+B+B+s+B+s+B+s+B+s+B+B+B+B+B+B+B+s+B+B+B+B+B+B+B+s+B+B+B+s+B+B+B+s+B+B+B+B+B+B+B+s+B+B+B+s+B+B+B+s+B+B+B+s+B+B+B+s+B+B+B+s+B+B+B+s+B+B+B+B+B+B+B+s+B+B+B+s+B+B+B+s+B+B+B+s+B+B+B+B+B+B+B+s+B+B+B+s+B+B+B+B+B+B+B+s+B+B+B+s+B+B+B+B+B+B+B+s+B+B+B+s+s+B+B+s+B+B+B+B+B+B+B+s+B+B+B+B+B+B+B+s+B+B+B+s+B+B+B+s+B+B+B+s+B+B+B+B+B+B+B+s+B+B+B+s+B+B+B+s+B+B+B+B+B+B+B+s+B+B+B+B+B+B+B+B+B+B+B+B+B+B+B+s+B+B+B+B+B+B+B+B+B+B+B+s+B+B+B+s+B+B+B+B+B+B+B+s+B+B+B+s+B+B+B+B+B+B+B+B+B+B+B+B+B+B+B+B+B+B+B+s+B+B+B+s+B+B+B+s+B+B+B+s+B+B+B+s+B+B+B+s+B+B+B+s+B+B+B+s+B+B+B+s+B+B+B+B+B+B+B+B+B+B+B+B+B+B+B+s+B+B+B+s+B+B+B+B+B+B+B+s+B+B+B+s+B+B+B+B+B+B+B+s+B+B+B+B+B+B+B+s+B+B+B+s+B+B+B+s+B+B+B+s+B+B+B+s+B+B+B+s+B+B+B+s+B+B+B+B+B+B+B+s+B+B+B+s+B+B+B+s+B+B+B+s+B+B+B+B+B+B+B+B+B+B+B+s+B+B+B+B+B+B+B+B+B+B+B+B+B+s+B+s+B+s+s+B+B+s+B+s+s+B+B+s+B+b+s+s+s+B+b+s*s+s*s+s+s+B+s*s+b+s*s+B+s*s+B+B+s*s+s+B+s+s*s+s*s+s+s+s+B+B+B+s+B+B+B+s+B+B+B+B+B+B+B+s+B+B+B+B+B+B+B+B+B+B+B+s+B+B+B+s+B+B+B+s+B+B+B+s+B+B+B+B+B+B+B+s+B+B+B+s+B+B+B+s+B+B+B+s+B+B+B+s+B+B+B+s+B+B+B+s+B+B+B+s+B+B+B+s+B+B+B+B+B+B+B+s+B+B+B+B+B+B+B+B+B+B+B+s+B+B+B+s+B+B+B+s+B+B+B+s+B+B+B+s+B+B+B+s+B+B+B+s+B+B+B+s+B+B+B+s+B+B+B+s+B+B+B+s+B+B+B+B+B+B+B+s+B+B+B+s+B+B+B+B+B+B+B+B+B+s+B+s+B+B+B+s+B+B+B+s+B+B+B+s+B+B+B+s+B+B+B+s+B+B+B+B+B+B+B+s+B+B+B+B+B+B+B+s+B+B+B+s+B+B+B+s+B+B+B+s+B+B+B+B+B+B+B+s+B+B+B+s+B+B+B+B+B+B+B+s+B+B+B+s+B+B+B+s+B+B+B+s+B+B+B+s+B+B+B+B+B+B+B+s+B+B+B+s+B+B+B+B+B+B+B+s+B+B+B+s+B+B+B+s+B+B+B+s+B+B+B+B+B+B+B+B+B+B+B+s+B+B+B+s+B+B+B+B+B+B+B+B+B+B+B+B+B+B+B+s+B+B+B+B+B+B+B+s+B+B+B+B+B+B+B+B+B+B+B+s+s+B+B+B+B+B+B+s+B+B+B+s+B+B+B+s+B+B+B+s+B+B+B+B+B+B+B+s+B+B+B+s+B+B+B+B+B+B+B+B+B+B+B+B+B+B+B+s+B+B+B+s+B+B+B+s+B+B+B+s+B+B+B+s+B+B+B+s+B+B+B+B+B+B+B+B+B+B+B+B+B+s+s+B+B+B+s+s+B+B+B+s+B+B+B+B+B+B+B+B+B+B+B+s+B+B+B+s+B+B+B+s+B+s+B+s+B+B+B+s+B+B+B+s+B+B+B+s+B+B+B+s+B+B+B+B+B+B+B+s+B+B+B+B+B+B+B+s+B+B+B+s+B+B+B+s+B+B+B+s+B+B+B+B+B+B+B+s+B+B+B+s+B+B+B+s+B+B+B+s+B+B+B+s+B+B+B+B+B+B+B+s+B+B+B+s+B+B+B+s+B+B+B+B+B+B+B+s+B+B+B+s+B+B+B+s+B+B+B+s+B+B+B+s+B+B+B+B+B+B+B+B+B+B+B+B+B+B+B+B+B+B+B+B+B+B+B+s+B+B+B+B+B+B+B+s+B+B+B+s+B+B+B+s+B+B+B+s+B+B+B+s+B+B+B+s+B+B+B+s+B+B+B+B+B+B+B+s+B+B+B+s+B+B+B+B+B+B+B+s+B+B+B+B+B+B+B+s+B+B+B+B+B+B+B+B+B+B+B+s+B+B+B+B+B+B+B+s+B+B+B+B+B+B+B+B+B+B+B+B+B+B+B+B+B+B+B+B+B+B+B+B+B+B+B+B+B+B+B+s+B+B+B+s+B+B+B+s+B+B+B+B+B+B+B+s+B+B+B+s+B+B+B+s+B+B+B+s+B+B+B+B+B+B+B+s+B+B+B+s+B+B+B+B+B+B+B+s+B+B+B+s+B+B+B+s+B+B+B+s+B+B+B+B+B+B+B+s+B+B+B+B+B+B+B+s+B+B+B+B+B+B+B+s+B+B+B+B+B+s+B+B+B+B+B+s+B+B+B+s+B+B+B+B+B+B+B+B+B+B+B+B+B+B+B+s+B+B+B+B+B+B+B+s+B+B+B+s+B+B+B+B+B+B+B+s+B+B+B+s+B+B+B+B+B+B+B+B+B+B+B+s+B+B+B+s+B+B+B+s+B+B+B+s+B+B+B+s+B+B+B+s+B+B+B+B+B+B+B+B+B+B+B+B+B+B+B+s+B+B+B+B+B+B+B+s+S*S+s*s+s*s+s*s+s+s+'
p1
.F-2657.9664930676436
.S'From-Botnet-TCP-HTTP-CC.Miuref.Attempt-4'
p1
.F1.1000000000000001
.