ccopy_reg
_reconstructor
p1
(cpykov
Vector
p2
c__builtin__
dict
p3
(dp4
S'V'
F0.01
sS'E'
F0.02
sS'i'
F0.01
sS'+'
F0.46999999999999997
sS'*'
F0.01
sS'.'
F0.01
sS'5'
F0.02
sS'v'
F0.029999999999999999
sS'e'
F0.41999999999999998
stRp5
.ccopy_reg
_reconstructor
p1
(cpykov
Chain
p2
c__builtin__
dict
p3
(dp4
(S'e'
S'+'
tp5
F0.97619047619047616
s(S'*'
S'e'
tp6
F1
s(S'.'
S'V'
tp7
F1
s(S'V'
S'+'
tp8
F1
s(S'E'
S'+'
tp9
F1
s(S'v'
S'*'
tp10
F0.33333333333333337
s(S'5'
S'5'
tp11
F0.5
s(S'+'
S'i'
tp12
F0.021276595744680854
s(S'v'
S'+'
tp13
F0.66666666666666674
s(S'i'
S'+'
tp14
F1
s(S'+'
S'e'
tp15
F0.87234042553191493
s(S'+'
S'v'
tp16
F0.063829787234042548
s(S'5'
S'.'
tp17
F0.5
s(S'e'
S'*'
tp18
F0.023809523809523812
s(S'+'
S'E'
tp19
F0.042553191489361708
stRp20
(dp21
S'_guess'
p22
g1
(cpykov
Vector
p23
g3
(dp24
S'V'
F0.01
sS'E'
F0.02
sS'i'
F0.01
sS'+'
F0.46999999999999997
sS'*'
F0.01
sS'.'
F0.01
sS'5'
F0.02
sS'v'
F0.029999999999999999
sS'e'
F0.41999999999999998
stRp25
sb.S'55.V+e+e+e+e+e+e+e+e+e+e+e+e+E+E+e+e+e+e+e+e+e+e+e+e+e+e+e+e+e+i+e+e+e+e+e+e+e+e+v+v+e+e+e+e+e+e+v*e*e*e*'
p1
.F-38.266240475898783
.S'From-Botnet-TCP-HTTP-CC.PlainText-1'
p1
.F1.1000000000000001
.