(dp1
S'a'
F0.011904761904761904
sS'6'
F0.023809523809523808
sS'*'
F0.48809523809523808
sS'f'
F0.47619047619047616
s.ccopy_reg
_reconstructor
p1
(cstf.common.markov_chains
Matrix
p2
c__builtin__
dict
p3
(dp4
(S'*'
S'a'
tp5
F0.024390243902439025
s(S'*'
S'f'
tp6
F0.97560975609756095
s(S'a'
S'*'
tp7
F1
s(S'f'
S'*'
tp8
F1
s(S'6'
S'*'
tp9
F0.5
s(S'6'
S'6'
tp10
F0.5
stRp11
(dp12
S'itemlist'
p13
(lp14
sS'init_vector'
p15
(dp16
S'a'
F0.011904761904761904
sS'6'
F0.023809523809523808
sS'*'
F0.48809523809523808
sS'f'
F0.47619047619047616
ssb.S'66*f*f*f*f*f*f*f*f*f*f*f*f*f*f*f*f*f*f*f*f*f*f*f*f*f*f*f*f*f*f*f*f*f*f*f*f*f*f*f*f*a*'
p1
.F-6.0875709314390605
.S'From-Botnet-TCP-Unknown-Lurk.CC-1'
p1
.F1.1000000000000001
.