(dp1
S'V'
F0.0096153846153846159
sS'e'
F0.42307692307692307
sS'i'
F0.0096153846153846159
sS'+'
F0.45192307692307693
sS'*'
F0.028846153846153848
sS'.'
F0.0096153846153846159
sS'5'
F0.019230769230769232
sS'v'
F0.028846153846153848
sS'E'
F0.019230769230769232
s.ccopy_reg
_reconstructor
p1
(cstf.common.markov_chains
Matrix
p2
c__builtin__
dict
p3
(dp4
(S'e'
S'+'
tp5
F0.93181818181818177
s(S'*'
S'e'
tp6
F1
s(S'+'
S'E'
tp7
F0.042553191489361701
s(S'v'
S'+'
tp8
F0.66666666666666663
s(S'+'
S'i'
tp9
F0.021276595744680851
s(S'v'
S'*'
tp10
F0.33333333333333331
s(S'5'
S'5'
tp11
F0.5
s(S'i'
S'+'
tp12
F1
s(S'E'
S'+'
tp13
F1
s(S'+'
S'e'
tp14
F0.87234042553191493
s(S'+'
S'v'
tp15
F0.063829787234042548
s(S'5'
S'.'
tp16
F0.5
s(S'V'
S'+'
tp17
F1
s(S'e'
S'*'
tp18
F0.068181818181818177
s(S'.'
S'V'
tp19
F1
stRp20
(dp21
S'itemlist'
p22
(lp23
sS'init_vector'
p24
(dp25
S'V'
F0.0096153846153846159
sS'e'
F0.42307692307692307
sS'i'
F0.0096153846153846159
sS'+'
F0.45192307692307693
sS'*'
F0.028846153846153848
sS'.'
F0.0096153846153846159
sS'5'
F0.019230769230769232
sS'v'
F0.028846153846153848
sS'E'
F0.019230769230769232
ssb.S'55.V+e+e+e+e+e+e+e+e+e+e+e+e+E+E+e+e+e+e+e+e+e+e+e+e+e+e+e+e+e+i+e+e+e+e+e+e+e+e+v+v+e+e+e+e+e+e+v*e*e*e*'
p1
.F-38.266240475898783
.S'From-Botnet-TCP-HTTP-CC.PlainText-1'
p1
.F1.1000000000000001
.