(dp1
S'C'
F0.0036011664265889051
sS'b'
F0.00049186663387555771
sS'F'
F1.7566665495555633e-05
sS'i'
F0.064838562344095838
sS'h'
F0.0079928328004778126
sS'+'
F0.073059761796015879
sS'*'
F0.042669430488704634
sS','
F0.38425324104978392
sS'I'
F0.0001580999894600007
sS'S'
F0.084618627692091483
sS'B'
F0.33215051118996591
sS'T'
F0.0007553666163088922
sS'H'
F1.7566665495555633e-05
sS'c'
F3.5133330991111266e-05
sS'9'
F3.5133330991111266e-05
sS's'
F0.004848399676773355
sS'Z'
F1.7566665495555633e-05
sS't'
F0.00043916663738889086
s.ccopy_reg
_reconstructor
p1
(cstf.common.markov_chains
Matrix
p2
c__builtin__
dict
p3
(dp4
(S'+'
S'I'
tp5
F0.0019235393123346958
s(S','
S'c'
tp6
F9.1432751211483956e-05
s(S','
S'B'
tp7
F0.86440522995336933
s(S'F'
S','
tp8
F1
s(S'I'
S'+'
tp9
F0.88888888888888884
s(S'+'
S'S'
tp10
F0.00048088482808367395
s(S'h'
S'+'
tp11
F1
s(S','
S'F'
tp12
F4.5716375605741978e-05
s(S'*'
S'S'
tp13
F0.99053108275010293
s(S'S'
S'*'
tp14
F0.50010379904504876
s(S'+'
S'H'
tp15
F0.00024044241404183698
s(S','
S'C'
tp16
F0.0093718569991771052
s(S'b'
S'+'
tp17
F0.071428571428571425
s(S','
S'T'
tp18
F0.00091432751211483951
s(S','
S't'
tp19
F0.0011429093901435495
s(S'H'
S'+'
tp20
F1
s(S'c'
S','
tp21
F1
s(S','
S's'
tp22
F0.012617719667184786
s(S'*'
S'T'
tp23
F0.0094689172498970773
s(S's'
S','
tp24
F1
s(S'b'
S','
tp25
F0.9285714285714286
s(S'T'
S'*'
tp26
F0.46511627906976744
s(S','
S'Z'
tp27
F4.5716375605741978e-05
s(S'Z'
S'+'
tp28
F1
s(S','
S'S'
tp29
F0.11013074883423242
s(S'+'
S'b'
tp30
F0.00048088482808367395
s(S't'
S','
tp31
F1
s(S'+'
S'i'
tp32
F0.88747295022842032
s(S'S'
S','
tp33
F0.49989620095495124
s(S'i'
S'+'
tp34
F1
s(S'I'
S','
tp35
F0.1111111111111111
s(S','
S'b'
tp36
F0.0011886257657492915
s(S'B'
S','
tp37
F1
s(S'C'
S','
tp38
F1
s(S'T'
S','
tp39
F0.53488372093023251
s(S'9'
S'9'
tp40
F0.5
s(S','
S'I'
tp41
F4.5716375605741978e-05
s(S'9'
S'+'
tp42
F0.5
s(S'+'
S'h'
tp43
F0.10940129838903583
stRp44
(dp45
S'itemlist'
p46
(lp47
sS'init_vector'
p48
(dp49
S'C'
F0.0036011664265889051
sS'b'
F0.00049186663387555771
sS'F'
F1.7566665495555633e-05
sS'i'
F0.064838562344095838
sS'h'
F0.0079928328004778126
sS'+'
F0.073059761796015879
sS'*'
F0.042669430488704634
sS','
F0.38425324104978392
sS'I'
F0.0001580999894600007
sS'S'
F0.084618627692091483
sS'B'
F0.33215051118996591
sS'T'
F0.0007553666163088922
sS'H'
F1.7566665495555633e-05
sS'c'
F3.5133330991111266e-05
sS'9'
F3.5133330991111266e-05
sS's'
F0.004848399676773355
sS'Z'
F1.7566665495555633e-05
sS't'
F0.00043916663738889086
ssb.S'99+i+i+i+i+i+i+i+i+i+i+i+i+i+i+i+i+i+i+i+i+i+i+i+i+i+i+i+i+i+i+i+i+i+i+i+i+i+i+i+i+i+i+i+i+i+i+i+i+i+i+i+i+i+i+i+i+i+i+i+i+i+i+i+i+i+i+i+i+i+i+i+i+i+i+i+i+i+i+i+i+i+i+i+i+i+i+i+i+h+i+i+i+i+i+i+i+i+i+i+i+i+i+i+i+i+i+i+i+i+i+i+i+i+i+i+i+i+i+i+i+i+i+i+i+i+i+h+i+i+i+i+i+i+i+i+i+i+i+i+h+i+i+i+i+i+i+i+i+i+i+i+i+i+i+i+i+i+i+i+i+i+i+i+i+i+i+i+i+i+i+i+i+i+i+i+i+i+i+i+i+i+i+i+i+i+i+i+i+i+i+i+i+i+i+i+i+i+i+i+i+i+i+i+i+i+i+i+i+i+i+i+i+i+i+i+i+i+i+i+i+i+i+h+i+i+i+i+i+i+i+i+i+i+i+i+i+i+i+i+i+i+i+h+i+i+I+I+i+h+i+i+i+i+i+i+i+i+i+i+i+i+i+i+i+i+i+i+i+i+i+i+i+i+i+i+i+i+i+i+i+i+i+i+i+i+i+i+i+i+i+i+i+i+i+i+i+i+i+i+i+i+i+i+i+i+i+i+i+i+i+i+i+i+i+i+i+h+i+i+i+i+i+i+i+i+i+i+i+i+i+i+i+i+i+i+i+i+i+i+i+i+i+i+i+i+i+i+i+i+i+i+i+i+i+i+i+i+i+i+i+i+i+i+i+i+i+i+i+i+i+i+i+i+i+i+i+i+i+i+i+i+i+i+i+i+i+i+i+i+i+i+i+h+i+i+i+i+i+i+i+i+i+i+i+i+i+i+i+i+i+i+i+i+i+i+i+i+i+i+i+i+i+h+i+i+i+i+i+i+i+i+i+i+i+i+i+i+i+i+h+i+i+i+i+i+i+i+i+h+i+i+i+i+i+i+i+i+h+i+i+i+i+i+i+i+i+h+i+i+i+i+i+i+i+i+i+i+i+i+h+i+i+i+i+i+i+i+i+h+i+i+i+i+i+i+i+i+i+i+i+i+i+i+i+i+i+h+i+i+i+h+i+i+i+i+i+i+i+i+h+i+i+i+i+i+i+i+i+i+i+i+i+h+i+i+i+i+i+i+i+i+h+i+i+i+i+i+i+i+i+i+i+i+i+h+i+i+i+i+i+i+i+i+h+i+i+i+i+i+h+i+i+h+i+i+i+i+i+i+i+i+i+i+i+i+h+i+i+i+i+i+i+i+i+h+i+i+i+i+i+i+i+i+h+i+i+i+h+i+i+i+i+i+i+i+i+i+i+i+i+i+h+i+i+i+i+i+i+i+i+h+i+i+i+h+i+i+i+i+h+i+i+i+h+i+i+i+i+h+i+i+i+i+i+i+i+i+h+i+i+i+i+i+i+i+i+h+i+i+i+i+i+i+i+i+h+i+i+i+i+i+i+i+i+h+i+i+i+i+i+i+i+i+h+i+i+i+i+i+i+i+i+h+i+i+i+i+i+i+i+i+h+i+i+i+i+i+i+i+i+h+i+i+i+i+i+i+i+i+h+i+i+i+i+i+i+i+i+h+i+i+i+i+i+i+i+i+h+i+i+i+i+i+i+i+i+h+i+i+i+i+i+i+i+i+h+i+i+i+i+i+i+i+i+h+i+i+i+i+i+i+i+i+h+i+i+i+i+i+i+i+i+h+i+i+i+i+i+i+i+i+h+i+i+i+i+i+i+i+i+h+i+i+i+i+i+i+i+i+h+i+i+i+i+i+i+i+i+h+i+i+i+i+i+i+i+i+h+i+i+i+i+i+i+i+i+h+i+i+i+i+i+i+i+i+h+i+i+i+i+i+i+i+i+h+i+i+i+i+i+i+i+i+h+i+i+i+i+i+i+i+i+h+i+i+i+i+i+i+i+i+h+i+i+i+i+i+i+i+i+h+i+i+i+i+i+i+i+i+h+i+i+i+i+i+i+i+i+h+i+i+i+i+i+i+i+i+h+i+i+i+i+i+i+i+i+h+i+i+i+i+i+i+i+i+h+i+i+i+i+i+i+i+i+h+i+i+i+i+i+i+i+i+h+i+i+i+i+i+i+i+i+h+i+i+i+i+i+i+i+i+h+i+i+i+i+i+i+i+i+h+i+i+i+i+i+i+i+i+h+i+i+i+i+i+i+i+i+h+i+i+i+i+i+i+i+i+h+i+i+i+i+i+i+i+i+h+i+i+i+i+i+i+i+i+h+i+i+i+i+i+i+i+i+h+i+i+i+i+i+i+i+i+h+i+i+i+i+i+i+i+i+h+i+i+i+i+i+i+i+i+h+i+i+i+i+i+i+i+i+h+i+i+i+i+h+i+i+i+i+i+i+i+i+h+i+i+i+h+i+i+i+i+h+i+i+i+h+i+i+i+i+h+i+i+i+h+i+i+i+i+h+i+I+i+i+i+i+i+i+h+i+i+i+i+i+i+i+i+h+i+i+i+i+i+i+i+i+i+i+i+i+h+i+i+i+i+i+i+i+i+h+i+i+i+i+i+i+i+i+h+i+i+i+i+i+i+i+i+h+i+i+i+i+i+i+i+i+h+i+i+i+i+i+i+i+i+h+i+i+i+i+i+i+i+i+h+i+i+i+i+i+i+i+i+h+i+i+i+i+i+i+i+i+h+i+i+i+i+i+i+i+i+h+i+i+i+i+i+i+i+i+i+i+i+i+h+i+i+i+i+i+i+i+i+h+i+i+i+i+i+i+i+i+h+i+i+i+i+i+i+i+i+h+i+i+i+i+i+i+i+i+h+i+i+i+i+i+i+i+i+h+i+i+i+i+i+i+i+i+h+i+i+i+i+i+i+i+i+h+i+i+i+i+i+i+i+i+h+i+i+i+i+i+i+i+i+h+i+i+i+i+h+i+i+i+i+i+i+i+i+h+i+i+i+h+i+i+i+i+h+i+i+i+h+i+i+i+i+h+i+i+i+h+i+i+i+i+h+i+i+i+i+i+i+i+i+h+i+i+i+i+i+i+i+i+h+i+i+i+i+i+i+i+i+h+i+i+i+i+i+i+i+h+h+i+h+i+i+i+i+i+i+h+i+i+i+i+i+i+i+i+h+i+i+i+i+i+i+i+i+h+i+i+i+h+i+i+i+i+h+i+i+i+i+i+i+i+i+h+i+i+i+i+i+i+i+i+h+i+i+i+i+i+i+i+i+h+i+i+i+i+i+i+i+i+h+i+i+i+i+i+i+i+h+h+i+i+i+i+i+i+i+i+h+i+i+i+i+i+i+i+i+h+i+i+i+i+i+i+i+i+h+i+i+i+i+i+i+i+i+h+i+i+i+i+i+i+i+i+h+i+i+i+i+i+h+i+i+h+i+i+i+i+i+i+i+i+h+i+i+i+h+i+i+i+i+h+i+i+i+i+i+i+i+i+h+i+i+i+i+i+i+i+i+h+i+i+i+i+i+i+i+i+h+i+i+i+i+i+i+i+i+h+i+i+i+i+i+i+i+i+h+i+i+i+i+i+i+i+i+h+i+i+i+i+i+i+i+i+h+i+i+i+i+i+i+i+i+h+i+i+i+i+i+i+i+i+h+i+i+i+i+i+i+i+i+h+i+i+i+i+i+i+i+i+h+i+i+i+i+i+i+i+i+h+i+i+i+i+i+i+i+i+i+i+i+i+i+h+i+i+i+i+i+i+i+i+h+i+i+i+h+i+i+i+i+h+i+i+i+h+i+i+i+i+h+i+i+i+h+i+i+i+i+h+i+i+i+i+i+i+i+i+h+i+i+i+i+i+i+i+i+h+i+i+i+i+i+i+i+i+h+i+i+i+i+i+i+i+i+h+i+i+i+i+i+i+i+i+h+i+i+i+i+i+i+i+i+h+i+i+i+i+i+i+i+i+h+i+i+i+i+i+i+i+i+h+i+i+i+i+i+i+i+i+h+i+i+i+i+i+i+i+i+h+i+i+i+i+i+i+i+i+h+i+i+i+i+i+i+i+i+h+i+i+i+h+i+i+i+i+h+i+i+i+h+i+i+i+i+i+i+i+i+h+i+i+i+i+i+i+i+i+h+i+i+i+h+i+i+i+i+i+i+i+i+h+i+i+i+i+i+i+i+i+i+i+i+i+i+i+i+i+i+h+i+i+i+h+i+i+i+i+i+i+i+i+h+i+i+i+i+i+i+i+i+i+i+i+i+h+i+i+i+i+h+i+i+i+h+i+i+i+i+i+i+i+i+h+i+i+i+i+i+i+i+i+h+i+i+i+i+i+i+i+i+i+i+i+i+h+i+i+i+i+i+i+i+i+h+i+i+i+i+i+i+i+i+h+i+i+i+h+i+i+i+i+i+i+i+i+h+i+i+i+i+i+i+i+i+h+i+i+i+h+i+i+i+i+i+i+i+i+h+i+i+i+i+i+i+i+i+i+i+i+i+h+i+i+i+i+i+i+i+i+h+i+i+i+i+i+i+i+i+h+i+i+i+i+i+i+i+i+i+i+i+i+h+i+i+i+i+i+i+i+i+h+i+i+i+h+i+i+i+i+h+i+i+i+h+i+i+i+i+i+i+i+i+h+i+i+i+i+i+i+i+i+h+i+i+i+i+i+i+i+i+h+i+i+i+h+i+i+i+b+S,b,F,I,Z+I+i+i+i+i+i+i+h+i+i+i+i+i+i+i+i+i+i+i+i+h+i+i+i+i+i+i+i+i+h+i+i+i+i+i+i+i+i+h+i+i+i+h+i+i+i+i+i+i+i+i+h+i+i+i+i+i+i+i+i+h+i+i+i+i+i+i+i+i+h+i+i+i+h+i+i+i+i+i+i+i+i+h+i+i+i+i+i+i+i+i+h+i+i+i+i+i+i+i+i+h+i+i+i+i+i+i+i+i+h+i+i+i+i+i+i+i+i+h+i+i+i+i+i+i+i+i+h+i+i+i+i+i+i+i+i+h+i+i+i+i+i+i+i+i+h+i+i+i+i+i+i+i+i+h+i+i+i+i+i+i+i+i+h+i+i+i+i+i+i+i+i+h+i+i+i+i+i+i+i+i+h+i+i+i+i+i+i+i+i+h+i+i+i+i+i+i+i+i+h+i+i+i+i+i+i+i+i+h+i+i+i+i+i+i+i+i+h+i+i+i+i+i+i+i+i+h+i+i+i+i+i+i+i+i+h+i+i+i+i+i+i+i+i+h+i+i+i+i+i+i+i+i+h+i+i+i+i+i+i+i+i+h+i+i+i+i+i+i+i+i+h+i+i+i+i+i+i+i+i+h+i+i+i+i+i+i+i+i+h+i+i+i+i+i+i+i+i+h+i+i+i+i+i+i+i+i+h+i+i+i+i+i+i+i+i+h+i+i+i+i+i+i+i+i+h+i+i+i+i+i+i+i+i+h+i+i+i+i+i+i+i+i+h+i+i+i+i+i+i+i+i+h+i+i+i+i+i+i+i+i+h+i+i+i+i+i+i+i+i+h+i+i+i+i+i+i+i+i+i+i+i+i+i+h+i+i+i+i+i+i+i+i+h+i+i+i+h+i+i+i+i+h+i+i+i+h+i+i+i+i+h+i+i+i+h+i+i+i+i+h+i+i+i+h+i+i+i+i+h+i+i+i+i+i+i+i+i+h+i+i+i+i+i+i+i+i+h+i+i+i+i+i+i+i+i+h+i+i+i+i+i+i+i+i+h+i+i+i+h+i+i+i+i+i+i+i+i+h+i+i+i+h+i+i+i+i+h+i+i+i+h+i+i+i+i+i+i+i+i+h+i+i+i+i+i+i+i+i+h+i+i+i+i+i+i+i+i+h+i+i+i+i+i+i+i+i+h+i+i+i+i+i+i+i+i+h+i+i+i+h+i+i+h+i+i+i+i+i+h+i+i+i+i+i+i+i+i+h+i+i+i+h+i+i+i+i+i+i+i+i+h+i+i+i+i+i+i+i+i+h+i+i+i+h+i+i+i+i+i+i+i+i+h+i+i+i+i+i+i+i+i+h+i+i+h+i+i+i+i+i+h+i+i+i+i+i+i+i+i+h+i+i+i+h+i+i+i+i+i+i+i+i+h+i+i+i+h+i+i+i+i+i+i+i+i+h+i+i+i+i+i+i+i+i+h+i+i+i+i+i+i+i+i+h+i+i+i+h+i+i+i+i+i+i+i+i+h+i+i+i+i+i+i+i+i+h+i+i+i+i+i+i+i+i+h+i+i+i+h+i+i+i+i+i+i+i+i+h+i+i+i+i+i+i+i+i+h+i+i+i+i+i+i+i+i+h+i+i+i+i+i+i+i+i+i+i+i+i+h+i+i+i+i+i+i+i+i+h+i+i+i+i+i+i+i+i+h+i+i+i+h+i+i+i+i+i+i+i+i+h+i+i+i+i+i+i+i+i+h+i+i+i+i+i+i+i+i+h+i+i+i+i+i+i+i+i+h+i+i+i+i+i+i+i+i+h+i+i+i+i+i+i+i+i+h+i+i+i+i+i+i+i+i+h+i+i+i+i+i+i+i+i+h+i+i+i+i+i+i+i+i+h+i+i+i+i+i+i+i+i+h+i+i+i+i+i+i+i+i+h+i+i+i+i+i+i+i+i+h+i+i+i+i+i+i+i+i+h+i+i+i+i+i+i+i+i+h+i+i+i+i+i+i+i+i+h+i+i+i+h+i+i+i+i+h+i+i+i+i+i+i+i+I+H+i+i+i+i+I+I+i+i+h+i+i+i+i+i+i+i+i+h+i+i+i+i+i+i+i+i+h+i+i+i+i+i+i+i+i+h+i+i+i+i+i+i+i+i+h+i+i+i+i+i+i+i+i+h+i+i+i+i+i+i+i+i+h+i+i+i+i+i+i+i+i+h+i+i+i+i+i+i+i+i+h+i+i+i+i+i+i+i+i+h+i+i+i+i+i+i+i+i+h+i+i+i+i+i+i+i+i+h+i+i+i+i+i+i+i+i+h+i+i+i+i+i+i+i+i+h+i+i+i+i+i+i+i+i+h+i+i+i+h+h+i+i+i+i+i+i+i+i+h+i+i+i+i+i+i+i+i+h+i+i+i+h+i+i+i+i+h+i+i+i+h+i+i+i+i+h+i+i+i+h+i+i+i+i+h+i+i+i+i+i+i+i+i+h+i+i+i+i+i+i+i+i+h+i+i+i+i+i+i+i+i+h+i+i+i+i+i+i+i+i+h+i+i+i+i+i+i+i+i+h+i+i+i+i+i+i+i+i+h+i+i+i+i+i+i+i+i+h+i+i+i+i+i+i+i+i+h+i+i+i+i+i+i+i+i+h+i+i+i+i+i+i+i+i+h+i+i+i+i+i+i+i+i+i+i+i+i+h+i+i+i+i+i+i+i+i+h+i+i+i+i+i+i+i+i+h+i+i+i+i+i+i+i+i+i+h+i+i+h+i+i+i+i+i+i+i+i+h+i+i+i+i+i+i+i+i+h+i+i+i+i+i+i+i+i+h+i+i+i+i+i+i+i+i+i+i+i+i+h+i+i+i+i+i+i+i+i+h+i+i+i+i+i+i+i+i+h+i+i+i+h+i+i+i+i+i+i+i+i+h+i+i+i+i+i+i+i+i+h+i+i+i+i+i+i+i+i+i+i+i+i+i+i+i+i+i+i+i+i+i+h+i+i+i+i+i+i+i+i+h+i+i+i+i+i+i+i+i+h+i+i+i+i+i+i+i+i+h+i+i+i+i+i+i+i+i+i+i+i+i+h+i+i+i+i+i+i+i+i+h+i+i+i+i+i+i+i+i+i+i+i+i+h+i+i+i+i+i+i+i+i+h+i+i+i+I+i+i+i+i+h+i+i+i+h+i+i+i+i+i+i+i+i+h+i+i+i+i+i+i+i+i+h+i+i+i+i+i+i+i+i+i+i+i+i+i+i+i+i+i+i+i+i+i+h+i+i+i+i+i+i+i+i+h+i+i+i+i+i+i+i+i+h+i+i+i+i+i+i+i+i+h+i+i+i+i+i+i+i+i+h+i+i+i+i+i+i+i+i+h+i+i+i+i+i+i+i+i+h+i+i+i+i+i+i+i+i+h+i+i+i+i+i+i+i+i+h+i+i+i+h+i+i+i+i+i+i+i+i+h+i+i+i+i+i+i+i+i+h+i+i+i+i+i+i+i+i+h+i+i+i+i+i+i+i+i+h+i+i+i+i+i+i+i+i+h+i+i+i+i+i+i+i+i+h+i+i+i+i+i+i+i+i+h+i+i+i+i+i+i+i+i+h+i+i+i+i+i+i+i+i+h+i+i+i+i+i+i+i+i+h+i+i+i+i+i+i+i+i+h+i+i+i+i+i+i+i+i+h+i+i+i+i+i+i+i+i+h+i+i+i+i+i+i+i+i+h+i+i+i+i+i+i+i+i+h+i+i+i+i+i+i+i+i+h+i+i+i+i+i+i+i+i+h+i+i+i+i+i+i+i+i+h+i+i+i+i+i+i+i+i+h+i+i+i+i+i+i+i+i+h+i+i+i+i+i+i+i+i+h+i+i+i+i+i+i+i+i+h+i+i+i+i+i+i+i+i+h+i+i+i+i+i+i+i+i+h+i+i+i+i+i+i+i+i+h+i+i+i+i+i+i+i+i+h+i+i+i+i+i+i+i+i+h+i+i+i+i+i+i+i+i+h+i+i+i+i+i+i+i+i+h+i+i+i+i+i+i+i+i+h+i+i+i+i+i+i+i+i+h+i+i+i+i+i+i+i+i+h+i+i+i+i+i+i+i+i+h+i+i+i+i+i+i+i+i+i+i+i+i+i+h+i+i+i+i+i+i+i+i+h+i+i+i+h+i+i+i+i+h+i+i+i+h+i+i+i+i+h+i+i+i+i+i+i+i+i+h+i+i+i+i+i+i+i+i+h+i+i+i+i+i+i+i+i+h+i+i+i+i+i+i+i+i+h+i+i+i+i+i+i+i+i+i+i+i+i+h+i+i+i+i+i+i+i+i+h+i+i+i+i+i+i+i+i+i+i+i+i+h+i+i+i+i+i+i+i+i+i+i+i+i+i+i+i+i+i+h+i+i+i+h+i+i+i+i+i+i+i+i+h+i+i+i+i+i+i+i+i+h+i+i+i+i+i+i+i+i+i+i+i+i+h+i+i+i+i+i+i+i+i+h+i+i+i+h+i+i+i+i+i+i+i+i+h+i+i+i+i+i+i+i+i+h+i+i+i+i+i+i+i+i+h+i+i+i+i+i+i+i+i+i+i+i+i+b+S,b,B,B,B,B,B,B,B,B,S*S,B,B,B,B,B,B,B,B,S*S,B,B,B,B,B,B,B,B,S*S,B,B,B,B,B,B,B,B,S*S,B,B,B,B,B,B,B,B,S*S,B,B,B,B,B,B,C,B,S*S,B,B,B,B,B,B,B,B,S*S,B,B,B,B,B,B,B,B,S*S,B,B,B,B,B,B,B,B,S*S,B,B,B,B,B,B,B,B,S*S,B,B,B,B,B,B,B,B,S*S,B,B,B,B,B,B,B,B,S*S,B,B,B,B,B,B,B,B,S*S,B,B,B,B,B,B,B,B,S*S,B,B,B,B,B,B,B,B,S*S,B,B,B,B,B,B,B,B,S*S,B,B,B,B,B,B,B,B,S*S,B,B,B,B,B,B,B,B,S*S,B,B,B,B,B,B,B,B,S*S,B,B,B,B,B,B,B,B,S*S,B,B,B,B,B,B,B,B,S*S,B,B,B,B,B,B,B,B,S*S,B,B,B,B,B,B,B,B,S*S,B,B,B,B,B,B,B,B,S*S,B,B,B,B,B,B,B,B,S*S,B,B,B,B,B,B,B,B,S*S,B,B,B,B,B,B,B,B,S*S,B,B,B,B,B,B,B,B,S*S,B,B,B,B,B,B,B,B,S*S,B,B,B,B,B,B,B,B,S*S,B,B,B,B,B,B,B,B,S*S,B,B,B,B,B,B,B,B,S*S,B,B,B,B,B,B,B,B,S*S,B,B,B,B,B,B,B,B,S*S,B,B,B,B,B,B,B,B,S*S,B,B,B,B,B,B,B,B,S*S,B,B,B,B,B,B,B,B,S*S,B,B,B,B,B,B,B,B,S*S,B,B,B,B,B,B,B,B,S*S,B,B,B,B,B,B,B,B,S*S,B,B,B,B,B,B,B,B,S*S,B,B,B,B,B,B,B,B,S*S,B,B,B,B,B,B,B,B,S*S,B,B,B,B,B,B,B,B,S*S,B,B,B,B,B,B,B,B,S*S,B,B,B,B,B,B,B,B,S*S,B,B,B,B,B,B,B,B,S*S,B,B,B,B,B,B,B,B,S*S,B,B,B,B,B,B,B,B,S*S,B,B,B,B,B,B,B,B,S*S,B,B,B,B,B,B,B,B,S*S,B,B,B,B,B,B,B,C,S*S,B,B,B,B,B,B,B,B,S*S,B,B,B,B,B,B,B,B,S*S,B,B,B,B,B,B,B,B,S*S,B,B,B,B,B,B,B,B,S*S,B,B,B,B,B,B,B,B,S*S,B,B,B,B,B,B,B,B,S*S,B,B,B,B,B,B,B,B,S*S,B,B,B,B,B,B,B,B,S*S,B,B,B,B,B,B,B,B,S*S,B,B,B,B,B,B,B,B,S*S,B,B,B,B,B,B,B,B,S*S,B,B,B,B,B,B,B,B,S*S,B,B,B,B,B,B,B,B,S*S,B,B,B,B,B,B,B,B,S*S,B,B,B,B,B,B,B,B,S*S,B,B,B,B,B,B,B,B,S*S,B,B,B,B,B,B,B,B,S*S,B,B,B,B,B,B,B,B,S*S,B,B,B,B,B,B,B,B,S*S,B,B,B,B,B,B,B,B,S*S,B,B,B,B,B,B,B,B,S*S,B,B,B,B,B,B,B,B,S*S,B,B,B,B,B,B,B,B,S*S,B,B,B,B,B,B,B,B,S*S,B,B,B,B,B,B,B,B,S*S,B,B,B,B,B,B,B,B,S*S,B,B,B,B,B,B,B,B,S*S,B,B,B,B,B,B,B,B,S*S,B,B,B,B,B,B,B,B,S*S,B,B,B,B,B,B,B,B,S*S,B,B,B,B,B,B,B,B,S*S,B,B,B,B,B,B,B,B,S*S,B,B,B,B,B,B,B,B,S*S,B,B,B,B,B,B,B,B,S*S,B,B,B,B,B,B,B,B,S*S,B,B,B,B,B,B,B,B,S*S,B,B,B,B,B,B,B,B,S*S,B,B,B,B,B,B,B,B,S*S,B,B,B,B,B,B,B,B,S*S,B,B,B,B,B,B,B,B,S*S,B,B,B,B,B,B,B,B,S*S,B,B,B,B,B,B,B,B,S*S,B,B,B,B,B,B,B,B,S*S,s,s,B,B,B,B,B,B,S*S,B,B,C,B,B,B,B,B,S*S,B,B,B,B,B,B,B,B,S*S,B,B,B,B,B,B,B,B,S*S,B,B,B,B,B,B,B,B,S*S,B,B,B,B,B,B,B,B,S*S,B,B,B,B,B,B,B,B,S*S,B,B,B,B,B,B,B,B,S*S,B,B,B,B,B,B,B,B,S*S,B,B,B,B,B,B,B,B,S*S,B,B,B,B,B,B,B,B,S*S,B,B,B,B,B,B,B,B,S*S,B,B,B,B,B,B,B,B,S*S,B,B,B,B,B,B,B,B,S*S,B,B,B,B,B,B,B,B,S*S,B,B,B,B,B,B,B,B,S*S,B,B,B,B,B,B,B,B,S*S,B,B,B,s,B,B,B,B,S*S,B,B,B,B,B,B,B,B,S*S,B,B,B,B,B,B,B,B,S*S,B,B,B,B,B,B,B,B,S*S,B,B,B,B,B,B,B,B,S*S,B,B,B,B,B,B,B,B,S*S,B,B,B,B,B,B,B,B,S*S,B,B,B,B,B,B,B,B,S*S,B,B,B,B,B,B,B,B,S*S,B,B,B,B,B,B,B,B,S*S,C,s,s,B,B,B,B,B,S*S,B,C,s,s,B,B,B,B,S*S,B,B,B,B,B,B,B,B,S*S,B,B,B,B,B,B,B,B,S*S,B,B,B,B,B,B,B,B,S*S,B,B,B,B,B,B,B,B,S*S,B,B,B,B,B,B,B,B,S*S,B,B,B,B,B,B,B,B,S*S,B,B,B,B,B,B,B,B,S*S,B,B,B,B,B,B,B,B,S*S,B,B,B,B,B,B,B,B,S*S,B,B,B,B,B,B,B,B,S*S,B,B,B,B,B,B,B,B,S*S,B,B,B,B,B,B,B,B,S*S,B,B,B,B,B,B,B,B,S*S,B,B,B,B,B,B,B,B,S*S,B,B,B,B,B,B,B,B,S*S,B,B,B,B,B,B,B,B,S*S,B,B,B,B,B,B,B,B,S*S,B,B,B,B,B,B,B,B,S*S,B,B,B,B,B,B,B,B,S*S,B,B,B,B,B,B,B,B,S*S,B,B,B,B,B,B,B,B,S*S,B,B,B,B,B,B,B,B,S*S,B,B,B,B,B,B,B,B,S*S,B,B,B,B,B,B,B,B,S*S,B,B,B,B,B,B,B,B,S*S,B,B,B,B,B,B,B,B,S*S,B,B,B,B,B,B,B,B,S*S,B,B,B,B,B,B,B,B,S*S,B,B,B,B,B,B,B,B,S*S,B,B,B,B,B,B,B,B,S*S,B,B,B,B,B,B,B,B,S*S,B,B,B,B,B,B,B,B,S*S,B,B,B,B,B,B,B,B,S*S,B,B,B,B,B,B,B,B,S*S,B,B,B,B,B,B,B,B,S*S,B,B,B,B,B,B,B,B,S*S,B,B,B,B,B,B,B,B,S*S,B,B,B,B,B,B,B,B,S*S,B,B,B,B,B,B,B,B,S*S,B,B,B,B,B,B,B,B,S*S,B,B,B,B,B,B,B,B,S*S,B,B,B,B,B,B,B,B,S*S,B,B,B,B,B,B,B,B,S*S,B,B,B,B,B,B,B,B,S*S,B,B,B,B,B,B,B,B,S*S,B,B,B,C,s,s,B,B,S*S,B,B,B,B,B,B,B,B,S*S,B,B,B,B,B,B,B,B,S*S,B,B,B,B,B,B,B,B,S*S,B,B,B,B,B,B,B,B,S*S,B,B,B,B,B,B,B,B,S*S,B,B,B,B,B,B,B,B,S*S,B,B,B,B,B,B,B,B,S*S,B,B,B,B,B,B,B,B,S*S,B,B,B,B,C,B,B,B,S*S,B,B,B,B,B,B,B,B,S*S,B,B,B,B,B,B,B,B,S*S,B,B,B,B,B,B,B,B,S*S,B,B,B,B,B,B,B,B,S*S,B,B,B,B,B,B,B,B,S*S,B,B,B,B,B,B,B,B,S*S,B,B,B,B,B,B,B,B,S*S,B,B,B,B,B,B,B,B,S*S,B,B,B,B,B,B,B,B,S*S,B,B,B,B,B,B,B,B,S*S,B,B,B,B,B,B,B,B,S*S,B,B,B,B,B,B,B,B,S*S,B,B,B,B,B,B,B,B,S*S,B,B,B,B,B,B,B,B,S*S,B,B,B,B,B,B,B,B,S*S,B,B,B,B,B,B,B,B,S*S,B,B,B,B,B,B,B,B,S*S,B,B,B,B,B,B,B,B,S*S,B,B,B,B,B,B,B,B,S*S,B,B,B,B,B,B,B,B,S*S,B,B,B,B,B,B,B,B,S*S,B,B,B,B,B,B,B,B,S*S,B,B,B,B,B,B,B,B,S*S,B,B,B,B,B,B,B,B,S*S,B,B,B,B,B,B,B,B,S*S,B,B,B,B,B,B,B,B,S*S,B,B,B,B,B,B,B,B,S*S,B,B,B,B,B,B,B,B,S*S,B,B,B,B,B,B,B,B,S*S,B,B,B,B,B,B,B,B,S*S,B,B,B,B,B,B,B,B,S*S,B,B,B,B,B,B,B,B,S*S,B,B,B,B,B,B,B,B,S*S,B,B,B,B,B,B,B,B,S*S,B,B,B,B,B,B,B,B,S*S,B,B,B,B,B,B,B,B,S*S,B,B,B,B,B,B,B,B,S*S,B,B,B,B,B,B,B,B,S*S,B,B,B,B,B,B,B,B,S*S,B,B,B,B,B,B,B,B,S*S,B,B,B,B,B,B,B,B,S*S,B,B,B,B,B,B,B,B,S*S,B,B,B,B,B,B,B,B,S*S,B,B,B,B,B,B,B,B,S*S,B,B,B,B,B,B,B,B,S*S,B,B,B,B,B,B,B,B,S*S,B,B,B,B,B,B,B,B,S*S,B,B,B,B,B,B,B,B,S*S,B,B,B,B,B,B,B,B,S*S,B,B,B,B,B,B,B,B,S*S,B,B,B,B,B,B,B,B,S*S,B,B,B,B,B,B,B,B,S*S,B,B,B,B,B,B,B,B,S*S,B,B,B,B,B,B,B,B,S*S,B,B,B,B,B,B,B,B,S*S,B,B,B,B,B,B,B,B,S*S,B,B,B,B,B,B,B,B,S*S,B,B,B,B,B,B,B,B,S*S,B,B,B,B,B,B,B,B,S*S,B,B,B,B,B,B,B,B,S*S,B,B,B,B,B,B,B,B,S*S,B,B,B,B,B,B,B,B,S*S,B,B,B,B,B,B,B,B,S*S,B,B,B,B,B,B,B,B,S*S,B,B,B,B,B,B,B,B,S*S,B,B,B,B,B,B,B,B,S*S,B,B,B,B,B,B,B,B,S*S,B,B,B,B,B,B,B,B,S*S,B,B,B,B,B,B,B,B,S*S,B,B,B,B,B,B,B,B,S*S,B,B,B,B,B,B,B,B,S*S,B,B,B,B,B,B,B,B,S*S,B,B,B,B,B,B,B,B,S*S,B,B,B,B,B,B,B,B,S*S,B,B,B,B,B,B,B,B,S*S,B,B,B,B,B,B,B,B,S*S,B,B,B,B,B,B,B,B,S*S,B,B,B,B,B,B,B,B,S*S,B,B,B,B,B,B,B,B,S*S,B,B,B,B,B,B,B,B,S*S,B,B,B,B,B,B,B,B,S*S,B,B,B,B,B,B,B,B,S*S,B,B,B,B,B,B,B,B,S*S,B,B,B,B,B,B,B,B,S*S,B,B,B,B,B,B,B,B,S*S,B,B,B,B,B,B,B,B,S*S,B,B,B,B,B,B,B,B,S*S,B,B,B,B,B,B,B,B,S*S,B,B,B,B,B,B,B,B,S*S,B,B,B,B,B,B,B,B,S*S,B,B,B,B,B,B,B,B,S*S,B,B,B,B,B,B,B,B,S*S,B,B,B,B,B,B,B,B,S*S,B,B,B,B,B,B,B,B,S*S,B,B,B,B,B,B,B,B,S*S,B,B,B,B,B,B,B,B,S*S,B,B,B,B,B,B,B,B,S*S,B,B,B,B,B,B,B,B,S*S,B,B,B,B,B,B,B,B,S*T,s,s,B,B,B,C,s,s,S*S,B,B,B,B,B,B,B,B,S*S,B,B,B,B,B,B,B,B,S*S,B,B,B,B,B,B,B,B,S*S,B,B,B,B,B,B,B,B,S*S,B,B,B,B,B,B,B,C,S*S,B,B,B,B,B,B,B,B,S*S,B,B,B,B,B,B,B,B,S*S,B,B,B,B,B,B,B,B,S*S,B,B,B,B,B,B,C,B,S*S,B,B,B,B,B,B,B,B,S*S,B,B,B,B,B,B,B,B,S*S,B,B,B,B,B,B,B,B,S*S,B,B,B,B,B,B,B,B,S*S,B,B,B,B,B,B,B,B,S*S,B,B,B,B,B,B,B,B,S*S,B,B,B,B,B,B,B,B,S*S,B,B,B,B,B,B,B,B,S*S,B,B,B,B,B,B,B,B,S*S,B,B,B,B,B,B,B,B,S*S,B,B,B,B,B,B,B,B,S*S,B,B,B,B,B,B,B,B,S*S,B,B,B,B,B,B,B,B,S*S,B,B,B,B,B,B,B,B,S*S,B,B,B,B,B,B,B,B,S*S,B,B,B,B,B,B,B,B,S*S,B,B,B,B,B,B,B,B,S*S,B,B,B,B,B,B,B,B,S*S,B,B,B,B,B,B,B,B,S*S,B,B,B,B,B,B,B,B,S*S,B,B,B,B,B,B,B,B,S*S,B,B,B,B,B,B,B,B,S*S,B,B,B,B,B,B,B,B,S*S,B,B,B,B,B,B,B,B,S*S,B,B,B,B,B,B,B,B,S*S,B,B,B,B,B,B,B,B,S*S,B,B,B,B,B,B,B,B,S*S,B,B,B,B,B,B,B,B,S*S,B,B,B,B,B,B,B,B,S*S,B,B,B,B,B,B,B,B,S*S,B,B,B,B,B,B,B,B,S*S,B,B,B,B,B,B,B,B,S*S,B,B,B,B,B,B,B,B,S*S,B,B,B,B,B,B,B,B,S*S,B,B,B,B,B,B,B,B,S*S,B,B,B,B,B,B,B,B,S*S,B,B,B,B,B,B,s,t,S*S,B,B,B,B,B,B,B,B,S*S,B,B,B,B,B,B,B,B,S*S,B,B,B,B,B,B,B,B,S*S,B,B,B,B,B,B,B,B,S*S,B,B,B,B,B,B,B,B,S*S,B,B,B,B,B,B,B,B,S*S,B,B,B,B,B,B,B,B,S*S,B,B,B,B,B,B,B,B,S*S,B,B,B,B,B,B,B,B,S*S,B,B,B,B,B,B,B,B,S*S,B,B,B,B,B,B,B,B,S*S,B,B,B,B,B,B,B,B,S*S,B,B,B,B,B,B,B,B,S*S,B,B,B,B,B,B,B,B,S*S,B,B,B,B,B,B,B,B,S*S,B,B,B,B,B,B,B,B,S*S,B,B,B,B,B,B,B,B,S*S,B,B,B,B,B,B,B,B,S*S,B,B,B,B,B,B,B,B,S*S,B,B,B,B,B,B,B,B,S*S,B,B,B,B,B,B,B,B,S*S,B,B,B,B,B,B,B,B,S*S,B,B,B,B,B,B,B,B,S*S,B,B,B,B,B,B,B,B,S*S,B,B,B,B,B,B,B,B,S*S,B,B,B,B,B,B,B,B,S*S,B,B,B,B,B,B,B,B,S*S,B,B,B,B,B,B,B,B,S*S,B,B,B,B,B,B,B,B,S*S,B,B,B,B,B,B,B,B,S*S,B,B,B,B,B,B,B,B,S*S,B,B,B,B,B,B,B,B,S*S,B,B,B,B,B,B,B,B,S*S,B,B,B,B,B,B,B,B,S*S,B,B,B,B,B,B,B,B,S*S,B,B,B,B,B,B,B,B,S*S,B,B,B,B,B,B,B,B,S*S,B,B,B,B,B,B,B,B,S*S,B,B,B,B,B,B,B,B,S*S,B,B,B,B,B,B,B,B,S*S,B,B,B,B,B,B,B,B,S*S,B,B,B,B,B,B,B,B,S*S,B,B,B,B,B,B,B,B,S*S,B,B,B,B,B,B,B,B,S*S,B,B,B,B,B,B,B,B,S*S,B,B,B,B,B,B,B,B,S*S,B,B,B,B,B,B,B,B,S*S,B,B,B,B,B,B,B,B,S*S,B,B,B,B,B,B,B,B,S*S,B,B,B,B,B,B,B,B,S*S,B,B,B,B,B,B,B,B,S*S,B,B,B,B,B,B,B,B,S*S,B,B,B,B,B,B,B,B,S*S,B,B,B,B,B,B,B,B,S*S,B,B,B,B,B,B,B,B,S*S,B,B,B,B,B,B,B,B,S*S,B,B,B,B,B,B,B,B,S*S,B,B,B,B,B,B,B,B,S*S,B,B,B,B,B,B,B,B,S*S,B,B,B,B,B,B,B,B,S*S,B,B,B,B,B,B,B,B,S*S,B,B,B,B,B,B,B,B,S*S,B,B,B,B,B,B,B,B,S*S,B,B,B,B,B,B,B,B,S*S,B,B,B,B,B,B,B,B,S*S,B,B,B,B,B,B,B,B,S*S,B,B,B,B,B,B,B,B,S*S,B,B,B,B,B,B,B,B,S*S,B,B,B,B,B,B,B,B,S*S,B,B,B,B,B,B,B,B,S*S,B,B,B,B,B,B,B,B,S*S,s,s,B,B,B,B,B,C,S*S,B,B,B,B,B,B,B,B,S*S,B,B,B,B,B,B,B,B,S*S,B,B,B,B,B,B,B,B,S*S,B,B,B,B,B,B,B,B,S*S,B,B,B,B,B,B,B,B,S*S,B,B,B,B,B,B,B,B,S*S,B,B,B,B,B,B,B,B,S*S,B,B,B,B,B,B,B,B,S*S,B,B,B,C,B,s,B,B,S*S,B,B,B,B,B,B,B,B,S*S,B,B,B,B,B,B,B,B,S*S,B,B,B,B,B,B,B,B,S*S,B,B,B,B,B,B,B,B,S*S,B,B,B,B,B,B,B,B,S*S,B,B,B,B,B,B,B,B,S*S,B,B,B,B,B,B,B,B,S*S,B,B,B,B,B,B,B,B,S*S,B,B,B,B,B,B,B,B,S*S,B,B,B,B,B,B,B,B,S*S,B,B,B,B,B,B,B,B,S*S,B,B,B,B,B,B,B,B,S*S,B,B,B,B,B,B,B,B,S*S,B,B,B,B,B,B,B,B,S*S,B,B,B,B,B,B,B,B,S*S,B,B,B,B,B,B,B,B,S*S,B,B,B,B,B,B,B,B,S*S,B,B,B,B,B,B,B,B,S*S,B,B,B,B,B,B,B,B,S*S,B,B,B,B,B,B,B,B,S*S,B,B,B,B,B,B,B,B,S*S,B,B,B,B,B,B,B,B,S*S,B,B,B,B,B,B,B,B,S*S,B,B,B,B,B,B,B,B,S*S,B,B,B,B,B,B,B,B,S*S,B,B,B,B,B,B,B,B,S*S,B,B,B,B,B,B,B,B,S*S,B,B,B,B,B,B,B,B,S*S,B,B,B,B,B,B,B,B,S*S,B,B,B,B,B,B,B,B,S*S,B,B,B,B,B,B,B,B,S*S,B,B,B,B,B,B,B,B,S*S,B,B,B,B,B,B,B,B,S*S,B,B,B,B,B,B,B,B,S*S,B,B,B,B,B,B,B,B,S*S,B,B,B,B,B,B,B,B,S*S,B,B,B,B,B,B,C,B,S*S,B,B,s,t,s,t,C,B,S*T,s,B,B,B,B,B,s,s,T*S,B,B,B,B,B,B,B,B,S*S,B,B,B,B,B,B,B,B,S*S,B,B,B,B,B,B,B,B,S*S,B,C,t,C,s,t,s,t,S*S,B,B,C,B,B,B,B,B,S*S,B,B,B,C,t,C,C,B,S*S,B,B,B,B,B,B,B,B,S*S,B,B,s,s,B,B,s,s,S*S,B,B,B,B,B,b,b,B,S*S,B,B,B,B,B,B,C,b,S*S,B,B,B,B,B,B,B,B,S*S,B,B,B,B,B,B,B,B,S*S,B,B,B,B,B,B,B,B,S*S,B,B,B,B,B,B,B,B,S*S,B,B,B,B,B,B,B,B,S*S,B,B,B,B,B,B,B,B,S*S,B,B,B,B,B,B,B,B,S*S,B,B,B,B,B,B,B,B,S*S,B,B,B,B,B,B,B,B,S*S,B,B,B,B,B,B,B,B,S*S,B,B,B,B,B,B,B,B,S*S,B,B,B,B,B,B,B,B,S*S,B,B,B,B,B,B,B,B,S*S,B,B,B,B,B,B,B,B,S*S,B,B,B,B,B,B,B,B,S*S,B,B,B,B,B,B,B,B,S*S,B,B,B,B,B,B,B,B,S*S,B,B,B,B,B,B,B,B,S*S,B,B,B,B,B,B,B,B,S*S,B,B,B,B,B,B,B,B,S*S,B,B,B,B,B,B,B,B,S*S,B,B,B,B,B,B,B,B,S*S,B,B,B,B,B,B,B,B,S*S,B,B,B,B,B,B,B,B,S*S,B,B,B,B,B,B,B,B,S*S,B,B,B,B,B,B,B,B,S*S,B,B,B,B,B,B,B,B,S*S,B,B,B,B,B,B,B,B,S*S,B,B,B,B,B,B,B,B,S*S,B,B,B,B,B,B,B,B,S*S,B,B,B,B,B,B,B,B,S*S,B,B,B,B,B,B,B,B,S*S,B,B,B,B,B,B,B,B,S*S,B,B,B,B,B,B,B,B,S*S,B,B,B,B,B,B,B,B,S*S,B,B,B,B,B,B,B,B,S*S,B,B,B,B,B,B,B,B,S*S,B,B,B,B,B,B,B,B,S*S,B,B,B,B,B,B,B,B,S*S,B,B,B,B,B,B,B,B,S*S,B,B,B,B,B,B,B,B,S*S,B,B,B,B,B,B,B,B,S*S,B,B,B,B,B,B,B,B,S*S,B,B,B,B,B,B,B,B,S*S,B,B,B,B,B,B,B,B,S*S,B,B,B,B,B,B,B,B,S*S,B,B,B,B,B,B,B,B,S*S,B,B,B,B,B,B,B,B,S*S,B,B,B,B,B,B,B,B,S*S,B,B,B,B,B,B,B,B,S*S,B,B,B,B,B,B,B,B,S*S,B,B,B,B,B,B,B,B,S*S,B,B,B,B,B,B,B,B,S*S,B,B,B,B,B,B,B,B,S*S,B,B,B,B,B,B,B,B,S*S,B,B,B,B,B,B,B,C,S*S,B,B,B,B,B,B,B,B,S*S,B,B,B,B,B,B,B,B,S*S,B,B,B,B,B,B,B,B,S*S,B,B,B,B,B,B,B,B,S*S,B,B,B,B,B,B,B,B,S*S,B,B,B,B,B,B,B,B,S*S,B,B,B,B,B,B,B,B,S*S,B,B,B,B,B,B,B,B,S*S,B,B,B,B,B,B,B,B,S*S,B,B,B,B,B,B,B,B,S*S,B,B,B,B,B,B,B,B,S*S,B,B,B,B,B,B,B,B,S*S,B,B,B,B,B,B,B,B,S*S,B,B,B,B,B,B,B,B,S*S,B,B,B,B,B,B,B,B,S*S,B,B,B,B,B,B,B,B,S*S,B,B,B,B,B,B,B,B,S*S,B,B,B,B,B,B,B,B,S*S,B,B,B,B,B,B,B,B,S*S,B,B,B,B,B,B,B,B,S*S,B,B,B,B,B,B,B,B,S*S,B,B,B,B,B,B,B,B,S*S,B,B,B,B,B,B,B,B,S*S,B,B,B,B,B,B,B,B,S*S,B,B,B,B,B,B,B,B,S*S,B,B,B,B,B,B,B,B,S*S,B,B,B,B,B,B,B,B,S*S,B,B,B,B,B,B,B,B,S*S,B,B,B,B,B,B,B,B,S*S,B,B,B,B,B,B,B,B,S*S,B,B,B,B,B,B,B,B,S*S,B,B,B,B,B,B,B,B,S*S,B,B,B,B,B,B,B,B,S*S,B,B,B,B,B,B,B,B,S*S,B,B,B,B,B,B,B,B,S*S,B,B,B,B,B,B,B,B,S*S,B,B,B,B,B,B,B,B,S*S,B,B,B,B,B,B,B,B,S*S,B,B,B,B,B,B,B,B,S*S,B,B,B,B,B,B,B,B,S*S,B,B,B,B,B,B,B,B,S*S,B,B,B,B,B,B,B,B,S*S,B,B,B,B,B,B,B,B,S*S,B,B,B,B,B,B,B,B,S*S,B,B,B,B,B,B,B,B,S*S,B,B,B,B,B,B,B,B,S*S,B,B,B,B,B,B,B,B,S*S,B,B,B,B,B,B,B,B,S*S,B,B,B,B,B,B,B,B,S*S,B,B,B,B,B,B,B,B,S*S,B,B,B,B,B,B,B,B,S*S,B,B,B,B,B,B,B,B,S*S,B,B,B,B,B,B,B,B,S*S,B,B,B,B,B,B,B,B,S*S,B,B,B,B,B,B,B,B,S*S,B,B,B,B,B,B,B,B,S*S,B,B,B,B,B,B,B,B,S*S,B,B,B,B,B,B,B,B,S*S,B,B,B,B,B,B,B,B,S*S,B,B,B,B,B,B,B,B,S*S,B,B,B,B,B,B,B,B,S*S,B,B,B,B,B,B,B,B,S*S,B,B,B,B,B,B,B,B,S*S,B,B,B,B,B,B,B,B,S*S,B,B,B,B,B,B,B,B,S*S,B,B,B,B,B,B,B,B,S*S,B,B,B,B,B,B,B,B,S*S,B,B,B,B,B,B,B,B,S*S,B,B,B,B,B,B,B,B,S*S,B,B,B,B,B,B,B,B,S*S,B,B,B,B,B,B,B,B,S*S,B,B,B,B,B,B,B,B,S*S,B,B,B,B,B,B,B,B,S*S,B,B,B,B,B,B,B,B,S*S,B,B,B,B,B,B,B,B,S*S,B,B,B,B,B,B,B,B,S*S,B,B,B,B,B,B,B,B,S*S,B,B,B,B,B,B,B,B,S*S,B,B,B,B,B,B,B,B,S*S,B,B,B,B,B,B,B,B,S*S,B,B,B,B,B,B,B,B,S*S,B,B,B,B,B,B,B,B,S*S,B,B,B,B,B,B,B,B,S*S,B,B,B,B,B,B,B,B,S*S,B,B,B,B,B,B,B,B,S*S,B,B,B,B,B,B,B,B,S*S,B,B,B,B,B,B,B,B,S*S,B,B,B,B,B,B,B,B,S*S,B,B,B,B,B,B,B,B,S*S,B,B,B,B,B,B,B,B,S*S,B,B,B,B,B,B,B,B,S*S,B,B,B,B,B,B,B,B,S*S,B,B,B,B,B,B,B,B,S*S,B,B,B,B,B,B,B,B,S*S,B,B,B,B,B,B,B,B,S*S,B,B,B,B,B,B,B,B,S*S,B,B,B,B,B,B,B,B,S*S,B,B,B,B,B,B,B,B,S*S,B,B,B,B,B,B,B,B,S*S,B,B,B,B,B,B,B,B,S*S,B,B,B,B,B,B,B,B,S*S,B,B,B,B,B,B,B,B,S*S,B,B,B,B,B,B,B,B,S*S,B,B,B,B,B,B,B,B,S*S,B,B,B,B,B,B,B,B,S*S,B,B,B,B,C,B,B,B,S*S,B,B,B,B,B,B,B,B,S*S,B,B,B,B,B,B,B,B,S*S,B,B,B,B,B,B,B,B,S*S,B,B,B,B,B,B,B,B,S*S,B,B,B,B,B,B,B,B,S*S,B,B,B,B,B,B,B,B,S*S,B,B,B,B,B,B,B,B,S*S,B,B,B,B,B,B,B,B,S*S,B,B,B,B,B,B,B,B,T*S,B,B,B,B,B,B,B,B,S*S,B,B,B,B,B,B,B,B,S*S,B,B,B,B,B,B,B,B,S*S,B,B,B,B,B,B,B,B,S*S,B,B,B,B,B,B,B,B,S*S,B,B,B,B,B,B,B,B,S*S,B,B,B,B,B,B,B,B,S*S,B,B,B,B,B,B,B,B,S*S,B,B,B,B,B,B,B,B,S*S,B,B,B,B,B,B,B,B,S*S,B,B,B,B,B,B,B,B,S*S,B,B,B,B,B,B,B,B,S*S,B,B,B,B,B,B,B,B,S*S,B,B,B,B,B,B,B,B,S*S,B,B,B,B,B,B,B,B,S*S,B,B,B,B,B,B,B,B,S*S,B,B,B,B,B,B,B,B,S*S,B,B,B,B,B,B,B,B,S*S,B,B,B,B,B,B,B,B,S*S,B,B,B,B,B,B,B,B,S*S,B,B,B,B,B,B,B,B,S*S,B,B,B,B,B,B,B,B,S*S,B,B,B,B,B,B,B,B,S*S,B,B,B,B,B,B,B,B,S*S,B,B,B,B,B,B,B,B,S*S,B,B,B,B,B,B,B,B,S*S,B,B,B,B,B,B,B,B,S*S,B,B,B,B,B,B,B,B,S*S,B,B,B,B,B,B,B,B,S*S,B,B,B,B,B,B,B,B,S*S,B,B,B,B,B,B,B,B,S*S,B,B,B,B,B,B,B,B,S*S,B,B,B,B,B,B,B,B,S*S,B,B,B,B,B,B,B,B,S*S,B,B,B,B,B,B,B,B,S*S,B,B,B,B,B,B,B,B,S*S,B,B,B,B,B,B,B,B,S*S,B,B,B,B,B,B,B,B,S*S,B,B,B,B,B,B,B,B,S*S,B,B,B,B,B,B,B,B,S*S,B,B,B,B,B,B,B,B,S*S,B,B,B,B,B,B,B,B,S*S,B,B,B,B,B,B,B,B,S*S,B,B,B,B,B,B,B,B,S*S,B,B,B,B,B,B,B,B,S*S,B,B,B,B,B,B,B,B,S*S,B,B,B,B,B,B,B,B,S*S,B,B,B,B,B,B,B,B,S*S,B,B,B,B,B,B,B,B,S*S,B,B,B,B,B,B,B,B,S*S,B,B,B,B,B,B,B,B,S*S,B,B,B,B,B,B,B,B,S*S,B,B,B,B,B,B,B,B,S*S,B,B,B,B,B,B,B,B,S*S,B,B,B,B,B,B,B,B,S*S,B,B,B,B,B,B,B,B,S*S,B,B,B,B,B,B,B,B,S*S,B,B,B,B,B,B,B,B,S*S,B,B,B,B,B,B,B,B,S*S,B,B,B,B,B,B,B,B,S*S,B,B,B,B,B,B,B,B,S*S,B,B,B,B,B,B,B,B,S*S,B,B,B,B,B,B,B,B,S*S,B,B,B,B,B,B,B,B,S*S,B,B,B,B,B,B,B,B,S*S,B,B,B,B,B,B,B,B,S*S,B,B,B,B,B,B,B,B,S*S,B,B,B,C,B,s,B,B,S*S,B,B,B,B,B,B,B,B,S*S,B,B,B,B,B,B,B,B,S*S,B,B,B,B,B,B,B,B,S*S,B,B,B,B,B,B,B,B,S*S,B,B,B,B,B,B,B,B,S*S,B,B,B,B,B,B,B,B,S*S,B,B,B,B,B,B,B,B,S*S,B,B,B,B,B,B,B,B,S*S,B,B,B,B,B,B,B,B,S*S,B,B,B,B,B,B,B,B,S*S,B,B,B,B,B,B,B,B,S*S,B,B,B,B,B,B,B,B,S*S,B,B,B,B,B,B,B,B,S*S,B,B,B,B,B,B,B,B,S*S,B,B,B,B,B,B,B,B,S*S,B,B,B,B,B,B,B,B,S*S,B,B,B,B,B,B,B,B,S*S,B,B,B,B,B,B,B,B,S*S,B,B,B,B,B,B,B,B,S*S,B,B,C,B,B,B,B,B,S*S,B,B,B,B,B,B,B,B,S*S,B,B,B,B,B,B,B,B,S*S,B,B,B,B,B,B,B,B,S*S,B,B,B,B,B,B,B,B,S*S,B,B,B,B,B,B,B,B,S*S,B,B,B,B,B,B,B,B,S*S,B,B,B,B,B,B,B,B,S*S,B,B,B,B,B,B,B,B,S*S,B,B,B,B,B,B,B,B,S*S,B,B,B,B,B,B,B,B,S*S,B,B,B,B,B,B,B,B,S*S,B,B,B,B,B,B,B,B,S*S,B,B,B,B,B,B,B,B,S*S,B,B,B,B,B,B,B,B,S*S,B,B,B,B,B,B,B,B,S*S,B,B,B,B,B,B,B,B,S*S,B,B,B,B,B,B,B,B,S*S,B,B,B,B,B,B,B,B,S*S,B,B,B,B,B,B,B,B,S*S,B,B,B,B,B,B,B,B,S*S,B,B,B,B,B,B,B,B,S*S,B,B,B,B,B,B,B,B,S*S,B,B,B,B,B,B,B,B,S*S,B,B,B,B,B,B,B,B,S*S,B,B,B,B,B,B,B,B,S*S,B,B,B,B,B,B,B,B,S*S,B,B,B,B,B,B,B,B,S*S,B,B,C,B,B,B,B,B,S*S,s,s,C,B,B,B,B,B,S*S,B,B,B,B,B,B,B,B,S*S,B,B,B,B,B,B,B,B,S*S,B,B,B,B,B,B,B,B,S*S,B,B,B,B,B,B,B,B,S*S,B,B,B,B,B,B,B,B,S*S,B,B,B,B,B,B,B,B,S*S,B,B,B,B,B,B,B,B,S*S,B,B,B,B,B,B,B,B,S*S,B,B,B,B,B,B,B,B,S*S,B,B,B,B,B,B,B,B,S*S,B,B,B,B,B,B,B,B,S*S,B,B,B,B,B,B,B,B,S*S,B,B,B,B,B,B,B,B,S*S,B,B,B,B,B,B,B,B,S*S,B,B,B,B,B,B,B,B,S*S,B,B,B,B,B,B,B,B,S*S,B,B,B,B,B,B,B,B,S*S,B,B,B,B,B,B,B,B,S*S,B,B,B,B,B,B,B,B,S*S,B,B,B,B,B,B,B,B,S*S,B,B,B,B,B,B,B,B,S*S,B,B,B,B,B,B,B,B,S*S,B,B,B,B,B,B,B,B,S*S,B,B,B,B,B,B,B,B,S*S,B,B,B,B,B,B,B,B,S*S,B,B,B,B,B,B,B,B,S*S,B,B,B,B,B,B,B,B,S*S,B,B,B,B,B,B,B,B,S*S,B,B,B,B,B,B,B,B,S*S,B,B,B,B,B,B,B,B,S*S,B,B,B,B,B,B,B,B,S*S,B,B,B,B,B,B,B,B,S*S,B,B,B,B,B,B,B,B,S*S,B,B,B,B,B,B,B,B,S*S,B,B,B,B,B,B,B,B,S*S,B,B,B,B,B,B,B,B,S*S,B,B,B,B,B,B,B,B,S*S,B,B,B,B,B,B,B,B,S*S,B,B,B,B,B,B,B,B,S*S,B,B,B,B,B,B,B,B,S*S,B,B,B,B,B,B,B,B,S*S,B,B,B,B,B,B,B,B,S*S,B,B,B,B,B,B,B,B,S*S,B,B,B,B,B,B,B,B,S*S,B,B,B,B,B,B,B,B,S*S,B,B,B,B,B,B,B,B,S*S,B,B,B,B,B,B,B,B,S*S,B,B,B,B,B,B,B,B,S*S,B,B,B,B,B,B,B,B,S*S,B,B,B,B,B,B,B,B,S*S,B,B,B,B,B,B,B,B,S*S,B,B,B,B,B,B,B,B,S*S,B,B,B,B,B,B,B,B,S*S,B,B,B,B,B,B,B,B,S*S,B,B,B,B,B,B,B,B,S*S,B,B,B,B,B,B,B,B,S*S,B,B,B,B,B,B,B,B,S*S,B,B,B,B,B,B,B,B,S*S,B,B,B,B,B,B,B,B,S*S,B,B,B,B,B,B,B,B,S*S,B,B,B,B,B,B,B,B,S*S,B,B,B,B,B,B,B,B,S*S,B,B,B,B,B,B,B,B,S*S,B,B,B,B,B,B,B,B,S*S,B,B,B,B,B,B,B,B,S*S,B,B,B,B,B,B,B,B,S*S,B,B,B,B,B,B,B,B,S*S,B,B,B,B,B,B,B,B,S*S,B,B,B,B,B,B,B,B,S*S,B,B,B,B,B,B,B,B,S*S,B,B,B,B,B,B,B,B,S*S,B,B,B,B,B,B,B,B,S*S,B,B,B,B,B,B,B,B,S*S,B,B,B,B,B,B,B,B,S*S,B,B,B,B,B,B,B,B,S*S,B,B,B,B,B,B,B,B,S*S,B,B,B,B,B,B,B,B,S*S,B,B,B,B,B,B,B,B,S*S,B,B,B,B,B,B,B,B,S*S,B,B,B,B,B,B,B,B,S*S,B,B,B,B,B,B,B,B,S*S,B,B,B,B,B,B,B,B,S*S,B,B,B,C,B,B,B,B,S*S,B,B,B,B,B,B,B,B,S*S,B,B,B,B,B,B,B,B,S*S,B,B,B,B,B,B,B,B,S*S,B,B,B,B,B,B,B,B,S*S,B,B,B,B,B,B,B,B,S*S,B,B,B,B,B,B,B,B,S*S,B,B,B,B,B,B,B,B,S*S,B,B,B,B,B,B,B,B,S*S,B,B,B,B,B,B,B,B,S*S,B,B,B,B,B,B,B,B,S*S,B,B,B,B,B,B,B,B,S*S,B,B,B,B,B,B,B,B,S*S,B,B,B,B,B,B,B,B,S*S,B,B,B,B,B,B,B,B,S*S,B,B,B,B,B,B,B,B,S*S,B,B,B,B,B,B,B,B,S*S,B,B,B,B,B,B,B,B,S*S,B,B,B,B,B,B,B,B,S*S,B,B,B,B,B,B,B,B,S*S,B,B,B,B,B,B,B,B,S*S,B,B,B,B,B,B,B,B,S*S,B,B,B,B,B,B,B,B,S*S,B,B,B,B,B,B,B,B,S*S,B,B,B,B,B,B,B,B,S*S,B,B,B,B,B,B,B,B,S*S,B,B,B,B,B,B,B,B,S*S,B,B,B,B,B,B,B,B,S*S,B,B,B,B,B,B,B,B,S*S,B,B,B,B,B,B,B,B,S*S,B,B,B,B,B,B,B,B,S*S,B,B,B,B,B,B,B,B,S*S,B,B,B,B,B,B,C,B,S*S,B,B,B,B,B,B,B,B,S*S,B,B,B,B,B,B,B,B,S*S,B,B,B,B,B,B,B,B,S*S,B,B,B,B,B,B,B,B,S*S,B,B,B,B,B,B,B,B,S*S,B,B,B,B,B,B,B,B,S*S,B,B,B,B,B,B,B,B,S*S,B,B,B,B,B,B,B,B,S*S,B,B,B,B,B,B,B,B,S*S,B,B,B,B,B,B,B,B,S*S,B,B,B,B,B,B,B,B,S*S,B,B,B,B,B,B,B,B,S*S,B,B,B,B,B,B,B,B,S*S,B,B,B,B,B,B,B,B,S*S,B,B,B,B,B,B,B,B,S*S,B,B,B,B,B,B,B,B,S*S,B,B,B,B,B,B,C,B,S*S,B,B,B,B,B,B,B,B,S*S,B,B,B,B,B,B,B,B,S*S,B,B,B,B,B,B,B,B,S*S,B,B,B,B,B,B,B,B,S*S,B,B,B,B,B,B,B,B,S*S,B,B,B,B,B,B,B,B,S*S,B,B,B,B,B,B,B,B,S*S,B,B,B,B,B,B,B,B,S*S,B,B,B,B,B,B,B,B,S*S,B,B,B,B,B,B,B,B,S*S,B,B,B,B,B,B,B,B,S*S,B,B,B,B,B,B,B,B,S*S,B,B,B,B,B,B,B,B,S*S,B,B,B,B,B,B,B,B,S*S,B,B,B,B,B,B,B,B,S*S,B,B,B,B,B,B,B,B,S*S,B,B,B,B,B,B,B,B,S*S,B,B,B,B,B,B,B,B,S*S,B,B,B,B,B,B,B,B,S*S,B,B,B,B,B,B,B,B,S*S,B,B,B,B,B,B,B,B,S*S,B,B,B,B,B,B,B,B,S*S,B,B,B,B,B,B,B,B,S*S,B,B,B,B,B,B,B,B,S*S,B,B,B,B,B,B,B,B,S*S,B,B,B,B,B,B,B,B,S*S,B,B,B,B,B,B,B,B,S*S,B,B,B,C,s,t,s,s,S*T,t,B,b,B,t,C,C,s,S*S,C,b,B,t,s,s,B,B,S*S,B,C,s,B,C,t,B,s,S*S,B,B,B,B,B,B,B,B,S*S,B,B,B,B,B,B,B,B,S*S,B,B,B,B,B,B,B,B,T*S,C,c,s,t,s,s,B,B,S*S,B,C,s,s,B,B,B,B,S*S,B,B,B,B,B,B,B,B,S*S,B,B,B,B,B,B,B,B,S*S,B,B,B,B,B,B,B,B,S*S,B,B,B,B,B,B,B,B,S*S,B,B,B,B,B,B,B,B,S*S,B,B,B,B,B,B,B,B,S*S,B,B,B,B,B,B,B,B,S*S,B,B,B,B,B,B,B,B,S*S,B,B,B,B,B,B,B,B,S*S,B,B,B,B,B,B,B,B,S*S,B,B,B,B,B,B,B,B,S*S,B,B,B,B,B,B,B,B,S*S,B,B,B,B,B,B,b,B,S*S,B,B,B,B,B,B,B,B,S*S,B,B,B,B,B,B,B,B,S*S,B,B,B,B,B,B,B,B,S*S,B,B,B,B,B,B,B,B,S*S,B,B,B,B,B,B,B,B,S*S,B,B,B,B,B,B,B,B,S*S,B,C,s,s,B,B,B,B,S*S,B,B,C,B,B,B,B,C,S*S,B,B,B,B,B,B,B,C,S*S,B,B,B,B,B,B,B,B,S*S,B,B,B,B,B,B,B,B,S*S,B,B,B,B,B,B,B,B,S*S,B,B,B,B,B,B,B,B,S*S,B,B,B,B,B,B,B,B,S*S,B,B,B,B,B,B,B,B,S*S,B,B,B,B,B,B,B,B,S*S,B,B,B,B,B,B,B,B,S*S,B,B,B,B,B,B,B,B,S*S,B,B,B,B,B,B,B,B,S*S,B,B,B,B,B,B,B,B,S*S,B,B,B,B,B,B,B,B,S*S,B,B,B,B,B,B,B,B,S*S,B,B,B,B,B,B,B,B,S*S,B,B,B,B,B,B,B,B,S*S,B,B,B,B,B,B,B,B,S*S,B,B,B,B,B,B,B,B,S*S,B,B,B,B,B,B,B,B,S*S,B,B,B,B,B,B,B,B,S*S,B,B,B,B,B,B,B,B,S*S,B,B,B,B,B,B,B,B,S*S,B,B,B,B,B,B,B,B,S*S,B,B,B,B,B,B,B,B,S*S,B,B,B,B,B,B,B,B,S*S,B,B,B,B,B,B,B,B,S*S,B,B,B,B,B,B,B,B,S*S,B,B,B,B,B,B,B,B,S*S,B,B,B,B,B,B,B,B,S*S,B,B,B,B,B,B,B,B,S*S,B,B,B,B,B,B,B,B,S*S,B,B,B,B,B,B,B,B,S*S,B,B,B,B,B,B,B,B,S*S,B,B,B,B,B,B,B,B,S*S,B,B,B,B,B,B,B,B,S*S,B,B,B,B,B,B,B,B,S*S,B,B,B,B,B,B,B,B,S*S,B,B,B,B,B,B,B,B,S*S,B,B,B,B,B,B,B,B,S*S,B,B,B,B,B,B,B,B,S*S,B,B,B,B,B,B,B,B,S*S,B,B,B,B,B,B,B,B,S*S,B,B,B,B,B,B,B,B,S*S,B,B,B,B,B,B,B,B,S*S,B,B,B,B,B,B,B,B,S*S,B,B,B,B,B,B,B,B,S*S,B,B,B,B,B,B,B,B,S*S,B,B,B,B,B,B,B,B,S*S,B,B,B,B,B,B,B,B,S*S,B,B,B,B,B,B,B,B,S*S,B,B,B,B,B,B,B,B,S*S,B,B,B,B,B,B,B,B,S*S,B,B,B,B,B,B,B,B,S*S,B,B,B,B,B,B,B,B,S*S,B,B,B,B,B,B,B,B,S*S,B,B,B,B,B,B,B,B,S*S,B,B,B,B,B,B,B,B,S*S,B,B,B,B,B,B,B,B,S*S,B,B,B,B,B,B,B,B,S*S,B,B,B,B,B,B,B,B,S*S,B,B,B,B,B,B,B,B,S*S,B,B,B,B,B,B,B,B,S*S,B,B,B,B,B,B,B,B,S*S,B,B,B,B,B,B,B,B,S*S,C,B,B,B,B,B,B,B,S*S,B,B,B,B,B,B,B,B,S*S,B,B,B,B,B,B,B,B,S*S,B,B,B,B,B,B,B,B,S*S,B,B,B,B,B,B,B,B,S*S,B,B,B,B,B,B,B,B,S*S,B,B,B,B,B,B,B,B,S*S,B,B,B,B,B,B,B,B,S*S,B,B,B,B,B,B,B,B,S*S,B,B,B,B,B,B,B,B,S*S,B,B,B,B,B,B,B,B,S*S,B,B,B,B,B,B,B,B,S*S,B,B,B,B,B,B,B,B,S*S,B,B,B,B,B,B,B,B,S*S,B,B,B,B,B,B,B,B,S*S,B,B,B,B,B,B,B,B,S*S,B,B,B,B,B,B,B,B,S*S,B,B,B,B,B,B,B,B,S*S,B,B,B,B,B,B,B,B,S*S,B,B,B,B,B,B,B,B,S*S,B,B,B,B,B,B,B,B,S*S,B,B,B,B,B,B,B,B,S*S,B,B,B,B,B,B,B,B,S*S,B,B,B,B,B,B,B,B,S*S,B,B,B,B,B,C,B,s,S*S,B,B,B,B,B,B,B,B,S*S,B,B,B,B,B,B,B,B,S*T,s,s,B,B,B,B,B,B,S*S,B,B,B,B,B,B,B,B,S*S,B,B,B,B,B,B,B,B,S*S,B,B,B,B,B,B,B,B,S*S,B,B,B,B,B,B,B,B,S*S,B,B,B,B,B,B,B,B,S*S,B,B,B,B,B,B,B,B,S*S,B,B,B,B,B,B,B,B,S*S,B,B,B,B,B,B,B,B,S*S,B,B,B,B,B,B,B,B,S*S,B,B,B,B,B,B,B,B,S*S,B,B,B,B,B,B,B,B,S*S,B,B,B,B,B,B,B,B,S*S,B,B,B,B,B,B,B,B,S*S,B,B,B,B,B,B,B,B,S*S,B,B,B,B,B,B,B,B,S*S,B,B,B,B,B,B,B,B,S*S,B,B,B,B,B,B,B,B,S*S,B,B,B,B,B,B,B,B,S*S,B,B,B,B,B,B,B,B,S*S,B,B,B,B,B,B,B,B,S*S,B,B,B,B,B,B,B,B,S*S,B,B,B,B,B,B,B,B,S*S,B,B,B,B,B,B,B,B,S*S,B,B,B,B,B,B,B,B,S*S,B,B,B,B,B,B,B,B,S*S,B,B,B,B,B,B,B,B,S*S,B,B,B,B,B,B,B,B,S*S,B,B,B,B,B,B,B,B,S*S,B,B,B,B,B,B,B,B,S*S,B,B,B,B,B,B,B,B,S*S,B,B,B,B,B,B,B,B,S*S,B,B,B,B,B,B,B,B,S*S,B,B,B,B,B,B,B,B,S*S,B,B,B,B,B,B,B,B,S*S,B,B,B,B,B,B,B,B,S*S,B,B,B,B,B,B,B,B,S*S,B,B,B,B,B,B,B,B,S*S,B,B,B,B,B,B,B,B,S*S,B,B,B,B,B,B,B,B,S*S,B,B,B,B,B,B,B,B,S*S,B,B,B,B,B,B,B,B,S*S,B,B,B,B,B,B,B,B,S*S,B,B,B,B,B,B,B,B,S*S,B,B,B,B,B,B,B,B,S*S,B,B,B,B,B,B,B,B,S*S,B,B,B,B,B,B,B,B,S*S,B,B,B,B,B,B,B,B,S*S,B,B,B,B,B,B,B,B,S*S,B,B,B,B,B,B,B,B,S*S,B,B,B,B,B,B,B,B,S*S,B,B,B,B,B,B,B,B,S*S,B,B,B,B,B,B,B,B,S*S,B,B,B,B,B,B,B,B,S*S,B,B,B,B,B,B,B,B,S*S,B,B,B,B,B,B,B,B,S*S,B,B,B,B,B,B,B,B,S*S,B,B,B,B,B,B,B,B,S*S,B,B,B,B,B,B,B,B,S*S,B,B,B,B,B,B,B,B,S*S,B,B,B,B,B,B,B,B,S*S,B,B,B,B,B,B,B,B,S*S,B,B,B,B,B,C,B,s,S*S,B,B,B,B,B,B,B,B,S*S,B,B,B,B,B,B,B,B,S*S,B,B,B,B,B,B,B,B,S*S,B,B,B,B,B,B,B,B,S*S,B,B,B,B,B,B,B,B,S*S,B,B,B,B,B,B,B,B,S*S,B,B,B,B,B,B,B,B,S*S,B,B,B,B,B,B,B,B,S*S,B,B,B,B,B,B,B,B,S*S,B,B,B,B,B,B,B,B,S*S,B,B,B,B,B,B,B,B,S*S,B,B,B,B,B,B,B,B,S*S,B,B,B,B,B,B,B,B,S*S,B,B,B,B,B,B,B,B,S*S,B,B,B,B,B,B,B,B,S*S,B,B,B,B,B,B,B,B,S*S,B,B,B,B,B,B,B,B,S*S,B,B,B,B,B,B,B,B,S*S,B,B,B,B,B,B,B,B,S*S,B,B,B,B,B,B,B,B,S*S,B,B,B,B,B,B,B,B,S*S,B,B,B,B,B,B,B,B,S*S,B,B,B,B,B,B,B,B,S*S,B,B,B,B,B,B,B,B,S*S,B,B,B,B,B,B,B,B,S*S,B,B,B,B,B,B,B,B,S*S,B,B,B,B,B,B,B,B,S*S,B,B,B,B,B,B,B,B,S*S,B,B,B,B,B,B,B,B,S*S,B,B,B,B,B,B,B,B,S*S,B,B,B,B,B,B,B,B,S*S,B,B,B,B,B,B,B,B,S*S,B,B,B,B,B,B,B,B,S*S,B,B,B,B,B,B,B,B,S*S,B,B,B,B,B,B,B,B,S*S,B,B,B,B,B,B,B,B,S*S,B,B,B,B,B,B,B,B,S*S,B,B,B,B,B,B,B,B,S*S,B,B,B,B,B,B,B,B,S*S,B,B,B,B,B,B,B,B,S*S,B,B,B,B,B,B,B,B,S*S,B,B,B,B,B,B,B,B,S*S,B,B,B,B,B,B,B,B,S*S,B,B,B,B,B,B,B,B,S*S,B,B,B,B,B,B,B,B,S*S,B,B,s,s,B,C,s,s,S*S,B,B,B,B,B,B,B,B,S*S,B,B,B,B,B,B,B,B,S*S,B,B,B,B,B,B,B,B,S*S,B,B,B,B,B,B,B,B,S*S,B,B,B,B,s,s,B,B,S*S,B,B,B,B,B,B,B,B,S*S,B,B,B,B,B,B,B,B,S*S,B,B,B,B,B,B,B,B,S*S,B,B,B,B,B,B,B,B,S*S,B,B,B,B,B,B,B,B,S*S,B,B,B,B,B,B,B,B,S*S,B,B,B,B,B,B,B,B,S*S,B,B,B,B,B,B,B,B,S*S,B,B,B,B,B,B,B,B,S*S,B,B,B,B,B,B,B,B,S*S,B,B,B,B,B,B,B,B,S*S,B,B,B,B,B,B,B,B,S*S,B,B,B,B,B,B,B,B,S*S,B,B,B,B,B,B,B,B,S*S,B,B,B,B,B,B,B,B,S*S,B,B,B,B,B,B,B,B,S*S,B,B,B,B,B,B,B,B,S*S,B,B,B,B,B,B,B,B,S*S,B,B,B,B,B,B,B,B,S*S,B,C,B,B,B,B,B,B,S*S,B,B,B,B,B,B,B,B,S*S,B,B,B,B,B,B,B,B,S*S,B,B,B,B,B,B,B,B,S*S,B,B,B,B,B,B,B,B,S*S,B,B,B,B,B,B,B,B,S*S,B,B,B,B,B,B,B,B,S*S,B,B,B,B,s,s,B,B,S*S,B,B,B,B,B,B,B,B,S*S,B,B,B,B,B,B,B,B,S*S,B,B,B,B,B,B,B,B,S*S,B,B,B,B,B,B,B,B,S*S,B,B,C,b,b,B,B,B,S*S,B,B,B,B,B,B,B,B,S*S,B,B,B,B,B,B,B,B,S*S,B,B,B,B,B,B,B,B,S*S,B,B,B,B,B,B,B,B,S*S,B,B,B,B,B,B,B,B,S*S,B,B,B,B,B,B,B,B,S*S,B,B,B,B,B,B,B,B,S*S,B,B,B,B,B,B,B,B,S*S,B,B,B,B,B,B,B,B,S*S,B,B,B,B,B,B,B,B,S*S,B,B,B,B,B,B,B,B,S*S,B,B,B,B,B,B,B,B,S*S,B,B,B,C,s,s,B,B,S*S,B,B,B,B,B,B,B,B,S*S,B,B,B,B,B,B,B,B,S*S,B,B,B,B,B,B,B,B,S*S,B,B,B,B,B,B,B,B,S*S,B,B,B,B,B,B,B,B,S*S,B,B,B,B,B,B,B,B,S*S,B,B,B,B,B,B,B,B,S*S,B,B,B,B,B,C,B,B,S*S,B,B,B,B,B,B,B,B,S*S,B,B,B,B,B,B,B,B,S*S,B,B,B,B,B,B,B,B,S*S,B,B,B,B,B,B,B,B,S*S,B,B,B,B,B,B,B,B,S*S,B,B,B,B,B,B,B,B,S*S,B,B,B,B,B,B,B,B,S*S,B,B,B,B,B,B,B,B,S*S,B,B,B,B,B,B,B,B,S*S,B,B,B,B,B,B,B,B,S*S,B,B,B,B,B,B,B,B,S*S,B,B,B,B,B,B,B,B,S*S,B,B,B,B,B,B,B,B,S*S,B,B,B,B,B,B,B,B,S*S,B,B,B,B,B,B,B,B,S*S,B,B,B,B,B,B,B,B,S*S,B,B,B,B,B,B,B,B,S*S,B,B,B,B,B,B,B,B,S*S,B,B,B,B,B,B,B,B,S*S,B,B,B,B,B,B,B,B,S*S,B,B,B,B,B,B,B,B,S*S,B,B,B,B,B,B,B,B,S*S,B,B,B,B,B,B,B,B,S*S,B,B,B,B,B,B,B,B,S*S,B,B,B,B,B,B,B,B,S*S,B,B,s,s,B,B,B,B,S*S,B,B,B,B,B,B,B,C,S*S,B,B,B,B,B,C,s,s,S*S,B,B,B,B,B,B,B,B,S*S,B,C,B,s,s,s,B,B,S*S,C,b,B,s,B,B,B,B,S*S,B,B,B,B,B,B,B,B,S*S,C,B,B,B,B,B,B,B,S*S,B,B,B,B,s,s,B,B,S*S,B,B,B,B,B,B,B,B,S*S,B,B,B,B,B,B,B,B,S*S,B,B,B,B,B,B,B,B,S*S,B,B,B,B,B,B,B,B,S*S,B,B,B,B,B,B,B,B,S*S,B,B,s,s,B,B,B,B,S*S,B,B,B,B,B,B,B,B,S*S,B,B,B,B,B,B,B,B,S*S,B,B,B,B,B,B,B,B,S*S,B,B,B,B,B,B,B,B,S*S,B,B,B,B,B,B,B,B,S*S,B,B,B,B,B,B,B,B,S*S,B,B,B,B,B,B,B,B,S*S,B,B,B,B,B,B,B,C,S*S,B,B,B,B,B,B,B,B,S*S,B,B,B,B,B,B,B,B,S*S,B,B,B,B,B,B,B,B,S*S,B,C,s,s,B,B,B,B,S*S,B,B,B,B,B,B,B,B,S*S,B,B,s,B,B,B,C,B,S*S,B,B,B,B,B,B,B,B,S*S,B,B,B,B,B,B,B,B,S*S,B,B,C,B,B,B,B,B,S*S,B,B,B,B,B,B,B,B,S*S,B,B,B,B,B,B,B,B,S*S,B,B,B,B,s,s,B,B,S*S,B,C,B,B,B,B,B,B,S*S,B,B,B,B,B,B,C,B,S*S,B,B,B,B,B,B,B,B,S*S,s,s,B,B,B,B,s,s,S*S,B,B,B,B,B,B,B,B,S*S,B,B,B,C,s,s,B,B,S*S,B,B,B,B,B,B,B,B,S*S,B,C,B,s,B,B,B,B,S*S,B,B,B,B,B,B,C,B,S*S,B,B,B,B,B,B,B,B,S*S,B,B,B,B,B,B,B,B,T*S,B,B,C,B,B,B,B,B,S*S,B,B,B,B,B,B,B,B,S*S,s,s,B,B,B,B,B,B,S*S,B,B,B,B,B,B,B,B,S*S,B,B,B,B,B,B,B,B,S*S,B,B,B,B,B,B,B,B,S*S,B,B,B,B,B,B,B,B,S*T,B,B,B,B,B,B,B,B,S*S,B,B,B,B,B,B,C,B,S*S,B,B,B,B,B,B,B,B,S*S,B,B,B,B,B,B,B,B,S*S,B,B,B,B,B,B,B,B,S*S,B,B,B,B,B,B,B,B,S*S,B,B,B,B,B,B,B,B,S*S,B,B,B,B,s,s,B,B,S*S,B,B,B,B,B,B,B,B,S*S,B,B,B,B,B,B,B,B,S*S,B,B,B,B,B,B,B,B,S*S,B,B,B,B,B,B,B,C,S*S,B,B,B,B,B,B,B,B,S*S,B,B,B,B,B,B,B,B,S*S,B,B,B,B,B,B,B,B,S*S,B,B,B,B,C,B,B,B,S*S,B,B,B,C,B,B,B,B,S*S,B,B,B,B,B,C,B,s,S*S,B,B,B,B,B,B,B,B,S*S,B,B,B,B,B,B,B,B,S*S,B,B,B,B,C,C,B,s,S*S,B,B,B,B,B,B,B,C,S*S,s,s,B,B,B,B,B,B,S*S,B,B,B,B,B,B,B,B,S*S,B,B,B,B,B,B,B,B,S*S,B,s,B,B,C,B,B,B,S*S,B,B,B,B,B,B,B,B,S*S,B,B,B,B,B,B,B,B,S*S,B,B,B,B,B,B,B,B,S*S,B,B,B,B,B,B,B,B,S*S,B,B,B,B,B,B,B,B,S*S,B,B,B,B,B,B,B,B,S*S,B,B,B,B,B,B,B,B,S*S,B,B,B,B,B,B,B,B,S*S,B,B,B,B,B,B,B,B,S*S,B,B,B,B,B,B,B,B,S*S,B,B,B,B,B,B,B,B,S*S,B,B,B,B,B,B,B,B,S*T,s,s,B,B,B,B,B,B,S*S,B,B,B,B,B,B,B,B,S*S,B,B,B,B,B,B,B,B,S*S,B,B,B,B,B,B,B,B,S*S,B,B,B,B,B,B,B,B,S*S,B,B,B,B,B,B,B,B,S*S,B,B,B,C,s,s,B,B,S*S,B,B,B,B,B,B,B,B,S*S,B,B,B,B,B,B,B,B,S*S,B,B,B,B,B,B,B,B,S*S,B,B,B,B,B,B,B,B,S*S,B,s,B,B,B,B,B,B,S*S,B,B,B,B,B,B,B,B,S*T,B,B,B,B,B,B,B,B,S*S,B,B,B,B,B,B,B,B,T*S,B,B,B,B,B,B,B,B,S*S,B,B,B,B,B,C,B,s,S*S,B,B,B,B,B,B,B,B,S*S,B,B,B,B,B,B,B,B,S*S,B,B,B,B,B,C,s,s,S*S,B,B,B,B,B,B,B,B,T*S,B,B,B,B,B,B,s,s,S*S,B,B,B,B,B,B,B,B,S*S,B,B,B,B,B,B,B,B,S*S,B,B,B,B,B,B,B,B,S*S,B,B,B,B,B,B,C,B,S*S,B,B,B,B,B,B,B,B,S*S,B,B,C,B,B,B,B,B,S*S,B,B,B,B,B,B,B,B,S*T,s,s,B,B,B,B,B,B,T*S,B,B,B,C,s,s,B,C,S*S,B,B,B,B,B,B,B,B,S*S,C,B,B,C,s,B,B,B,S*S,B,B,B,B,B,B,B,B,S*S,B,B,B,B,B,B,B,B,S*T,s,s,B,B,B,B,B,B,S*S,B,B,C,b,b,B,C,B,S*S,B,B,B,B,B,B,B,B,S*S,B,B,B,B,B,B,B,C,S*S,B,B,B,B,B,C,C,C,S*T,s,s,B,C,B,t,s,s,S*S,B,B,B,B,B,B,B,B,S*S,B,B,B,B,B,C,s,s,S*S,B,B,B,B,B,B,B,B,S*S,B,B,B,B,B,B,B,B,S*S,t,B,B,B,B,B,B,B,S*S,C,B,B,B,B,B,B,B,S*S,B,B,B,B,B,B,B,B,S*T,s,s,s,B,B,B,B,B,S*S,C,B,B,B,s,s,B,B,S*S,B,B,B,B,B,B,C,C,S*S,B,B,B,B,B,B,B,B,S*S,C,b,b,B,B,B,B,B,T*S,B,B,B,B,B,B,B,B,S*T,s,s,B,B,B,B,B,B,S*S,B,B,B,B,B,B,B,B,S*S,B,B,B,B,B,B,B,B,S*S,B,C,s,s,B,B,B,B,S*S,B,B,C,B,B,B,B,B,S*S,B,B,B,B,B,B,B,B,S*S,B,B,B,B,B,B,B,B,S*S,B,B,C,B,B,B,B,B,S*S,B,B,B,B,B,B,B,B,S*S,B,B,B,B,B,B,B,B,S*S,B,B,B,B,B,B,B,B,S*S,B,B,B,B,B,B,B,B,S*S,B,B,B,B,B,B,B,B,T*S,B,B,B,B,B,B,B,B,S*S,B,B,B,C,B,s,B,B,S*S,B,B,B,B,B,B,B,B,S*S,B,B,B,B,B,B,B,B,S*S,B,B,s,s,B,B,B,B,S*S,B,B,B,B,B,B,B,B,S*S,B,B,B,B,B,B,B,B,S*S,B,B,C,B,C,B,B,B,S*S,B,B,B,B,B,C,s,s,T*S,B,C,C,B,B,C,s,s,S*S,B,B,B,B,s,s,B,C,S*S,B,B,B,B,B,B,B,B,S*S,B,B,B,B,B,B,B,B,S*S,B,B,B,B,B,B,B,B,S*S,B,B,B,B,B,B,B,B,S*S,B,B,B,B,B,B,B,C,S*S,B,C,s,s,B,C,s,s,S*S,B,B,B,B,C,B,B,B,S*S,B,B,B,B,B,B,B,B,S*S,B,B,B,B,B,B,B,B,S*S,B,C,B,s,B,B,B,B,S*T,B,s,B,B,s,B,B,B,T*T,B,s,B,B,B,B,B,B,S*S,B,B,B,B,s,s,s,t,S*S,t,s,B,B,B,B,C,B,S*S,B,B,B,B,B,B,B,B,S*S,B,B,C,B,B,C,s,s,T*S,B,B,s,s,B,B,B,B,S*S,B,C,s,s,B,B,B,B,S*S,B,B,B,C,s,s,C,b,S*T,s,s,B,B,s,s,B,B,S*S,s,s,B,B,B,B,B,B,S*S,B,B,B,B,B,B,B,B,S*S,B,B,B,B,B,B,B,C,S*T,s,s,B,B,B,B,B,B,S*S,B,B,B,B,B,B,B,B,S*S,B,B,C,B,B,B,B,B,S*S,B,B,B,B,B,B,B,B,S*S,B,B,B,B,B,B,B,B,S*S,C,B,B,B,B,B,B,B,S*S,B,B,B,B,B,B,B,B,S*T,s,s,B,C,s,t,t,B,S*S,B,B,B,B,t,C,B,s,S*S,B,B,B,B,B,B,B,B,S*S,B,B,B,B,B,B,B,C,S*S,B,B,B,B,C,B,B,B,S*S,B,B,B,B,B,B,B,B,S*S,B,B,B,B,B,B,B,B,S*S,B,B,B,B,B,B,B,B,S*S,B,B,B,B,B,B,B,B,S*S,B,B,B,B,B,B,B,B,S*S,B,B,B,B,B,B,B,B,S*S,B,B,B,B,B,B,B,B,S*S,B,B,B,B,B,B,B,B,S*S,B,B,B,B,B,B,B,B,S*S,B,B,B,B,B,B,B,B,S*S,B,B,B,B,B,B,B,B,S*S,B,B,B,B,B,B,B,B,S*S,B,B,B,B,B,B,B,B,S*S,B,B,B,B,B,B,B,B,S*S,B,B,B,B,B,B,B,B,S*S,B,B,B,B,B,B,B,B,S*S,B,B,B,B,B,B,B,B,S*S,B,B,B,B,B,B,B,B,S*S,B,B,B,B,B,B,B,B,S*S,B,B,B,B,B,B,B,B,S*S,B,B,B,B,B,B,B,B,S*S,B,B,B,B,B,B,B,B,S*S,B,B,B,B,B,B,B,B,S*S,B,B,B,B,B,B,B,B,S*S,B,B,B,B,B,B,B,B,S*S,B,B,B,B,B,B,B,B,S*S,B,B,B,B,B,B,B,B,S*S,B,B,B,B,B,B,B,B,S*S,B,B,B,B,B,B,B,B,S*S,B,B,B,B,B,B,B,B,S*S,B,B,B,B,B,B,B,B,S*S,B,B,B,B,B,B,B,B,S*S,B,B,B,B,B,B,B,B,S*S,B,B,B,B,B,B,B,B,S*S,B,B,B,B,B,B,B,B,S*S,B,B,B,B,B,B,B,B,S*S,B,B,B,B,B,B,B,B,S*S,B,B,B,B,B,B,B,B,S*S,B,B,B,B,B,B,B,B,S*S,B,B,B,B,B,B,B,B,S*S,B,B,B,B,B,B,B,B,S*S,B,B,B,B,B,B,B,B,S*S,B,B,B,B,B,B,B,B,S*S,B,B,B,B,B,B,B,B,S*S,B,B,B,B,B,B,B,B,S*S,B,B,B,B,B,B,B,B,S*S,B,B,B,B,B,B,B,B,S*S,B,B,B,B,B,B,B,B,S*S,B,B,B,B,B,B,B,B,S*S,B,B,B,B,B,B,B,B,S*S,B,B,B,B,B,B,B,B,S*S,B,B,B,B,B,B,B,B,S*S,B,B,B,B,B,B,B,B,S*S,B,B,B,B,B,B,B,B,S*S,B,B,B,B,B,B,B,B,S*S,B,B,B,B,B,B,B,B,S*S,B,B,B,B,B,B,B,B,S*S,B,B,B,B,B,B,B,B,S*S,B,B,B,B,B,B,B,B,S*S,B,B,B,B,B,B,B,B,S*S,B,B,B,B,B,B,B,B,S*S,B,B,B,B,B,B,B,B,S*S,B,B,B,B,B,B,B,B,S*S,B,B,B,B,B,B,B,B,S*S,B,B,B,B,B,B,B,B,S*S,B,B,B,B,B,B,B,B,S*S,B,B,B,B,B,B,B,B,S*S,B,B,B,B,B,B,B,B,S*S,B,B,B,B,B,B,B,B,S*S,B,B,B,B,B,B,B,B,S*S,B,B,B,B,B,B,B,B,S*S,B,B,B,B,B,B,B,B,S*S,B,B,B,B,B,B,B,B,S*S,B,B,B,B,B,B,B,B,S*S,B,B,B,B,B,B,B,B,S*S,B,B,B,B,B,B,B,B,S*S,B,B,B,B,B,B,B,B,S*S,B,B,B,B,B,B,B,s,S*S,B,B,B,B,B,B,B,B,S*S,B,B,B,B,B,B,B,B,S*S,B,B,B,B,B,B,B,B,S*S,B,B,B,B,B,B,B,B,S*S,B,B,B,B,B,B,B,B,S*S,B,B,B,B,B,B,B,B,S*S,B,B,B,B,B,B,B,B,S*S,B,B,B,B,B,B,B,B,S*S,B,B,B,B,B,B,B,B,S*S,B,B,B,B,B,B,B,B,S*S,B,B,B,B,B,B,B,B,S*S,B,B,B,B,B,B,B,B,S*S,B,B,B,B,B,B,B,B,S*S,B,B,B,B,B,B,B,B,S*S,B,B,B,B,B,B,B,B,S*S,B,B,B,B,B,B,B,B,S*S,B,B,B,B,B,B,B,B,S*S,B,B,B,B,B,B,B,B,S*S,B,B,B,B,B,B,B,B,S*S,B,B,B,B,B,B,B,B,S*S,B,B,B,B,B,B,B,B,S*S,B,B,B,B,B,B,B,B,S*S,B,B,B,B,B,B,B,B,S*S,B,B,B,B,B,B,B,B,S*S,B,B,B,B,B,B,B,B,S*S,B,B,B,B,B,B,B,B,S*S,B,B,B,B,B,B,B,B,S*S,B,B,B,B,B,B,B,B,S*S,B,B,B,B,B,B,B,B,S*S,B,B,B,B,B,B,B,B,S*S,B,B,B,B,B,B,B,B,S*S,B,B,B,B,B,B,B,B,S*S,B,B,B,B,B,B,B,B,S*S,B,C,s,s,B,B,B,B,S*S,B,B,B,B,B,B,B,B,S*S,B,B,B,B,B,B,B,B,S*S,B,B,B,B,B,B,B,B,S*S,B,B,B,B,B,B,B,B,S*S,B,B,B,B,B,B,B,B,S*S,B,B,B,B,B,B,B,B,S*S,B,B,B,B,B,B,B,B,S*S,B,B,B,B,B,B,B,B,S*S,B,B,B,B,B,B,B,B,S*S,B,B,B,B,B,B,B,B,S*S,B,B,B,B,B,B,B,B,S*S,B,B,B,B,B,B,B,B,S*S,B,B,B,B,B,B,B,B,S*S,B,B,B,B,B,B,B,B,S*S,B,B,B,B,B,B,B,B,S*S,B,B,B,B,B,B,B,B,S*S,B,B,B,B,B,B,B,B,S*S,B,B,B,B,B,B,B,B,S*S,B,B,B,B,B,B,B,B,S*S,B,B,B,B,B,B,B,B,S*S,B,B,B,B,B,B,B,B,S*S,B,B,B,B,B,B,B,B,S*S,B,B,B,B,B,B,B,B,S*S,B,B,B,B,B,B,B,B,S*S,B,B,B,B,B,B,B,B,S*S,B,B,B,B,B,B,B,B,S*S,B,B,B,B,B,B,B,B,S*S,B,B,B,B,B,B,B,B,S*S,B,B,B,B,B,B,B,B,S*S,B,B,B,B,B,B,B,B,S*S,B,B,B,B,B,B,B,B,S*S,B,B,B,B,B,B,B,B,S*S,B,B,B,B,B,B,B,B,S*S,B,B,B,B,B,B,B,B,S*S,B,B,B,B,B,B,B,B,S*S,B,B,B,B,B,B,B,B,S*S,B,B,B,B,B,B,B,B,S*S,B,B,B,B,B,B,B,B,S*S,B,B,B,B,B,B,B,B,S*S,B,B,B,B,B,B,B,B,S*S,B,B,B,B,B,B,B,B,S*S,B,B,B,B,B,B,B,B,S*S,B,B,B,B,B,B,B,B,S*S,B,B,B,B,B,B,B,B,S*S,B,B,B,B,B,B,B,B,S*S,B,B,B,B,B,B,B,B,S*S,B,B,B,B,B,B,B,B,S*S,B,B,B,B,B,B,B,B,S*S,B,B,B,B,B,B,B,B,S*S,B,B,B,B,B,B,B,B,S*S,B,B,B,B,B,B,B,B,S*S,B,B,B,B,B,B,B,B,S*S,B,B,B,B,B,B,B,B,S*S,B,B,B,B,B,B,B,B,S*S,B,B,B,B,B,B,B,B,S*S,B,B,B,B,B,B,B,B,S*S,B,B,B,B,B,B,B,B,S*S,B,B,B,B,B,B,B,B,S*S,B,B,B,B,B,B,B,B,S*S,B,B,B,B,B,B,B,B,S*S,B,B,B,B,B,B,B,B,S*S,B,B,B,B,B,B,B,B,S*S,B,B,B,B,B,B,B,C,S*S,B,B,B,B,B,B,B,B,S*S,B,B,B,B,B,B,B,B,S*S,B,B,B,B,B,B,B,B,S*S,B,B,B,B,B,B,B,B,S*S,B,B,B,B,B,B,B,B,S*S,B,B,B,B,B,B,B,B,S*S,B,B,B,B,B,B,B,B,S*S,B,B,B,B,B,B,B,B,S*S,B,B,B,B,B,B,B,B,S*S,B,B,B,B,B,B,B,B,S*S,B,B,B,B,B,B,B,B,S*S,B,B,B,B,B,B,B,B,S*S,B,B,B,B,B,B,B,B,S*S,B,B,B,B,B,B,B,B,S*S,B,B,B,B,B,B,B,B,S*S,B,B,B,B,B,B,B,B,S*S,B,B,B,B,B,B,B,B,S*S,B,B,B,B,B,B,B,B,S*S,B,B,B,B,B,B,B,B,S*S,B,B,B,B,B,B,B,B,S*S,B,B,B,B,B,B,B,B,S*S,B,B,B,B,B,B,B,B,S*S,B,B,B,B,B,B,B,B,S*S,B,B,B,B,B,B,B,B,S*S,B,B,B,B,B,B,B,B,S*S,B,C,s,s,B,B,B,B,S*S,B,B,B,B,B,B,B,B,S*S,B,B,B,B,B,B,B,B,S*S,B,B,B,B,B,B,B,B,S*S,B,B,B,B,B,B,B,B,S*S,B,B,B,B,B,B,B,B,S*S,B,B,B,B,B,B,B,B,S*S,B,B,B,B,B,B,B,B,S*S,B,B,B,B,B,B,B,B,S*S,B,B,B,B,B,B,B,B,S*S,B,B,B,B,B,B,B,B,S*S,B,B,B,B,B,B,B,B,S*S,B,B,B,B,B,B,B,B,S*S,B,B,B,B,B,B,B,B,S*S,B,B,B,B,B,B,B,B,S*S,B,B,B,B,B,B,B,B,S*S,B,B,B,B,B,B,B,B,S*S,B,B,B,B,B,B,B,B,S*S,B,B,B,B,B,B,B,B,S*S,B,B,B,B,B,B,B,B,S*S,B,B,B,B,B,B,B,B,S*S,B,B,B,B,B,B,B,B,S*S,B,B,B,B,B,B,B,B,S*S,B,B,B,B,B,B,B,B,S*S,B,B,B,B,B,B,B,B,S*S,B,B,B,B,B,B,B,B,S*S,B,B,B,B,B,B,B,B,S*S,B,B,B,B,B,B,B,B,S*S,B,B,B,B,B,B,B,B,S*S,B,B,B,B,B,B,B,B,S*S,B,B,B,B,B,B,B,B,S*S,B,B,B,B,B,B,B,B,S*S,B,B,B,B,B,B,B,B,S*S,B,B,B,B,B,B,B,B,S*S,B,B,B,B,B,B,B,B,S*S,B,B,B,B,B,B,B,B,S*S,B,B,B,B,B,B,B,B,S*S,B,B,B,B,B,B,B,B,S*S,B,B,B,B,B,B,B,B,S*S,B,B,B,B,B,B,B,B,S*S,B,B,B,B,B,B,B,B,S*S,B,B,B,B,B,B,B,B,S*S,B,B,B,B,B,B,B,B,S*S,B,B,B,B,B,B,B,B,S*S,B,B,B,B,B,B,B,B,S*S,B,B,B,B,B,B,B,B,S*S,B,B,B,B,B,B,B,B,S*S,B,B,B,B,B,B,B,B,S*S,B,B,B,B,B,B,B,B,S*S,B,B,B,B,B,B,B,B,S*S,B,B,B,B,B,B,B,B,S*S,B,B,B,B,B,B,B,B,S*S,B,B,B,B,B,B,B,B,S*S,B,B,B,B,B,B,B,B,S*S,B,B,B,B,B,B,B,B,S*S,B,B,B,B,B,B,B,B,S*S,B,B,B,B,B,B,B,B,S*S,B,B,B,B,B,B,B,B,S*S,B,B,B,B,B,B,B,B,S*S,B,B,B,B,B,B,B,B,S*S,B,B,B,B,B,B,B,B,S*S,B,B,B,B,B,B,B,B,S*S,B,B,B,B,B,B,B,B,S*S,B,B,B,B,B,B,B,B,S*S,B,B,B,B,B,B,B,B,S*S,B,B,B,B,B,B,B,B,S*S,B,B,B,B,B,B,B,B,S*S,B,B,B,B,B,B,B,B,S*S,B,B,B,B,B,B,B,B,S*S,B,B,B,B,B,B,B,B,S*S,B,B,B,B,B,B,B,B,S*S,B,B,B,B,B,B,B,B,S*S,B,B,B,B,B,B,B,B,S*S,B,B,B,B,B,B,B,B,S*S,B,B,B,B,B,B,B,B,S*S,B,B,B,B,B,B,B,B,S*S,B,B,B,B,B,B,B,B,S*S,B,B,B,B,B,B,B,B,S*S,B,B,B,B,B,B,B,B,S*S,B,B,B,B,B,B,B,B,S*S,B,B,B,B,B,B,B,B,S*S,B,B,B,B,B,B,B,B,S*S,B,B,B,B,B,B,B,B,S*S,B,B,B,B,B,B,B,B,S*S,B,B,B,B,B,B,B,B,S*S,B,B,B,B,B,B,B,B,S*S,B,B,B,B,B,B,B,B,S*S,B,B,B,B,B,B,B,B,S*S,B,B,B,B,B,B,B,B,S*S,B,B,B,B,B,B,B,B,S*S,B,B,B,B,B,B,B,B,S*S,B,B,B,B,B,B,B,B,S*S,B,B,B,B,B,B,B,B,S*S,B,B,B,B,B,B,B,B,S*S,B,B,B,B,B,B,B,B,S*S,B,B,B,B,B,B,B,B,S*S,B,B,B,B,B,B,B,B,S*S,B,B,B,B,B,B,B,B,S*S,B,B,B,B,B,B,B,B,S*S,B,B,B,B,C,B,B,B,S*S,B,B,B,B,B,B,B,B,S*S,C,B,B,B,B,B,B,B,S*S,B,B,B,B,B,B,B,B,S*S,B,B,B,B,B,B,B,B,S*S,B,B,B,B,B,B,B,B,S*S,B,B,B,B,B,B,B,B,S*S,B,B,B,B,B,B,B,B,S*S,B,B,B,B,B,B,B,B,S*S,B,B,B,B,B,B,B,B,S*S,B,B,B,B,B,C,s,s,S*S,B,B,B,B,B,B,B,B,S*S,B,B,B,B,B,B,B,B,S*S,B,B,B,B,B,B,B,B,S*S,B,B,B,B,B,B,B,B,S*S,B,B,B,B,B,B,B,B,S*S,B,B,B,B,B,B,B,B,S*S,B,B,B,B,B,B,B,B,S*S,B,B,B,B,B,B,B,B,S*S,B,B,B,B,B,B,B,B,S*S,B,B,B,B,B,B,B,B,S*S,B,B,B,B,B,B,B,B,S*S,B,B,B,B,B,B,B,B,S*S,B,B,B,B,B,B,B,B,S*S,B,B,B,B,B,B,B,B,S*S,B,B,B,B,B,B,B,B,S*S,B,B,B,B,B,B,B,B,S*S,B,B,B,B,B,B,B,B,S*S,B,B,B,B,B,B,B,B,S*S,B,B,B,B,B,B,B,B,S*S,B,B,B,B,B,B,B,B,S*S,B,B,B,B,B,B,B,B,S*S,B,B,B,B,B,B,B,B,S*S,B,B,B,B,B,B,B,B,S*S,B,B,B,B,B,B,B,B,S*S,B,B,B,B,B,B,B,B,S*S,B,B,B,B,B,B,B,B,S*S,B,B,B,B,B,B,B,B,S*S,B,B,B,B,B,B,B,B,S*S,B,B,B,B,B,B,B,B,S*S,B,B,B,B,B,B,B,B,S*S,B,B,B,B,B,B,B,B,S*S,B,B,B,B,B,B,B,B,S*S,B,B,B,B,B,B,B,B,S*S,B,B,B,B,B,B,B,B,S*S,B,B,B,B,B,B,B,B,S*S,B,B,B,B,B,B,B,B,S*S,B,B,B,B,B,B,B,B,S*S,B,B,B,B,B,B,B,B,S*S,B,B,B,B,B,B,B,B,S*S,B,B,B,B,B,B,B,B,S*S,B,B,B,B,B,B,B,B,S*S,B,B,B,B,B,B,B,B,S*S,B,B,B,B,B,B,B,B,S*S,B,B,B,B,B,B,B,B,S*S,B,B,B,B,B,B,B,B,S*S,B,B,B,B,B,B,B,B,S*S,B,B,B,B,B,B,B,B,S*S,B,B,B,B,B,B,B,B,S*S,B,B,B,B,B,B,B,B,S*S,B,B,B,B,B,B,B,B,S*S,B,B,B,B,B,B,B,B,S*S,B,B,B,B,B,B,B,B,S*S,B,B,B,B,B,B,B,B,S*S,B,B,B,B,B,B,B,B,S*S,B,B,B,B,B,B,B,B,S*S,B,B,B,B,B,B,B,C,S*S,B,B,B,B,B,B,B,B,S*S,B,B,B,B,B,B,B,C,S*S,B,B,B,B,B,B,B,B,S*S,B,B,B,B,B,B,B,B,S*S,B,B,t,t,s,s,C,B,S*S,B,B,B,B,B,B,B,B,S*S,B,B,B,B,B,B,B,B,S*S,B,B,B,B,B,B,B,B,S*S,B,B,B,B,B,B,B,B,S*S,B,B,B,B,B,B,B,B,S*S,B,B,B,B,B,B,B,B,S*S,B,B,B,B,B,B,B,B,S*S,B,B,B,B,B,B,B,B,S*S,B,B,B,B,B,B,B,B,S*S,B,B,B,B,B,B,B,B,S*S,B,B,B,B,B,B,B,B,S*S,B,B,B,B,B,B,B,B,S*S,B,B,B,B,B,B,B,B,S*S,B,B,B,B,B,B,B,B,S*S,B,B,B,B,B,B,B,B,S*S,B,B,B,B,B,B,B,B,S*S,B,B,B,B,B,B,B,B,S*S,B,B,B,B,B,B,B,B,S*S,B,B,B,B,B,B,B,B,S*S,B,B,B,B,B,B,B,B,S*S,B,B,B,B,B,B,B,B,S*S,B,B,B,B,B,B,B,B,S*S,B,B,B,B,B,B,B,B,S*S,B,B,B,B,B,B,B,B,S*S,B,B,B,B,B,B,B,B,S*S,B,B,B,B,B,B,B,B,S*S,B,B,B,B,B,B,B,B,S*S,B,B,B,B,B,B,B,B,S*S,B,B,B,B,B,B,B,B,S*S,B,B,B,B,B,B,B,B,S*S,B,B,B,B,B,B,B,B,S*S,B,B,B,B,B,B,B,B,S*S,B,B,B,B,B,B,B,B,S*S,B,B,B,B,B,B,B,B,S*S,B,B,B,B,B,B,B,B,S*S,B,B,B,B,B,B,B,B,S*S,B,B,B,B,B,B,B,B,S*S,B,B,B,B,B,B,B,B,S*S,B,B,B,B,B,B,B,B,S*S,B,B,B,B,B,B,B,B,S*S,B,B,B,B,B,B,B,B,S*S,B,B,B,B,B,B,B,B,S*S,B,B,B,B,B,B,B,B,S*S,B,B,B,B,B,B,B,B,S*S,B,B,B,B,B,B,B,B,S*S,B,B,B,B,B,B,B,B,S*S,B,B,B,B,B,B,B,B,S*S,B,B,B,B,B,B,B,B,S*S,B,B,B,B,B,B,B,B,S*S,B,B,B,B,B,B,B,B,S*S,B,B,B,B,B,B,B,B,S*S,B,B,B,B,B,B,B,B,S*S,B,B,B,B,B,B,B,B,S*S,B,B,B,B,B,B,B,B,S*S,B,B,B,B,B,B,B,B,S*S,B,B,B,B,B,B,B,B,S*S,B,B,B,B,C,B,B,B,S*T,s,s,B,B,C,B,B,B,S*S,B,B,B,B,B,B,B,B,S*S,B,B,B,B,B,B,B,B,S*S,B,B,B,B,B,B,B,B,S*S,B,B,B,B,B,B,B,B,S*S,B,B,B,B,B,B,B,B,S*S,B,B,B,B,B,B,B,B,S*S,B,B,B,B,B,B,B,B,S*S,C,B,B,B,B,B,B,B,S*S,B,B,B,B,C,B,B,B,S*S,B,B,B,B,B,B,B,B,S*S,B,B,B,B,B,B,B,B,S*S,B,B,B,B,B,B,B,B,S*S,B,B,B,B,B,B,B,B,S*S,B,B,B,B,B,B,B,B,S*S,B,B,B,B,B,B,B,B,S*S,B,B,B,B,B,B,B,B,S*S,B,B,B,B,B,B,B,B,S*S,B,B,B,B,B,B,B,B,S*S,B,B,B,B,B,B,B,B,S*S,B,B,B,B,B,B,B,B,S*S,B,B,B,B,B,B,B,B,S*S,B,B,B,B,B,B,B,B,S*S,B,B,B,B,B,B,B,B,S*S,B,B,B,B,B,B,B,B,S*S,B,B,B,B,B,B,B,B,S*S,B,B,B,B,B,B,B,B,S*S,B,B,B,B,B,B,B,B,S*S,B,B,B,B,B,B,B,B,S*S,B,B,B,B,B,B,B,B,S*S,B,B,B,B,B,B,B,B,S*S,B,B,B,B,B,B,B,B,S*S,s,s,B,B,B,B,B,B,S*S,B,B,B,B,B,B,B,B,S*S,B,B,B,B,B,B,B,B,S*S,B,B,B,B,B,B,B,B,S*S,B,B,B,B,B,B,B,B,S*S,B,B,B,B,B,B,B,B,S*S,B,B,B,B,B,B,B,B,S*S,B,B,B,B,B,B,B,B,S*S,B,B,B,B,B,B,B,B,S*S,B,B,B,B,B,B,B,B,S*S,B,B,B,B,B,B,B,B,S*S,B,B,B,B,B,B,B,B,S*S,B,B,B,B,B,B,B,B,S*S,B,B,B,B,B,B,B,B,S*S,B,B,B,B,B,B,B,B,S*S,B,B,B,B,B,B,B,B,S*S,B,B,B,B,B,B,B,B,S*S,B,B,B,B,B,B,B,B,S*S,B,B,B,B,B,B,B,B,S*S,B,B,B,B,B,B,B,B,S*S,B,B,B,B,B,B,B,B,S*S,B,B,B,B,B,B,B,B,S*S,B,B,B,B,B,B,B,B,S*S,B,B,B,B,B,B,B,B,S*S,B,B,B,B,B,B,B,B,S*S,B,B,B,B,B,B,B,B,S*S,B,B,B,B,B,B,B,B,S*S,B,B,B,B,B,B,B,B,S*S,B,B,B,B,B,B,B,B,S*S,B,B,B,B,B,B,B,B,S*S,B,B,B,B,B,B,B,B,S*S,B,B,B,B,B,B,B,B,S*S,B,B,B,B,B,B,B,B,S*S,B,B,B,B,B,B,B,B,S*S,B,B,B,B,B,B,B,B,S*S,B,B,B,B,B,B,B,B,S*S,B,B,B,B,B,B,B,B,S*S,B,B,B,B,B,B,B,B,S*S,B,B,B,B,B,B,B,B,S*S,B,B,B,B,B,B,B,B,S*S,B,B,B,B,B,B,B,B,S*S,B,B,B,B,B,C,s,B,S*S,B,B,B,B,B,B,B,B,S*S,B,B,B,B,B,B,B,B,S*S,B,B,B,B,B,B,B,B,S*S,B,B,B,B,B,B,B,B,S*S,B,B,B,B,B,B,B,B,S*S,B,B,B,B,B,B,B,B,S*S,B,B,B,B,B,B,B,B,S*S,B,B,B,B,B,B,B,B,S*S,B,B,B,B,B,B,B,B,S*S,B,B,B,B,B,B,B,B,S*S,B,B,B,B,B,B,B,B,S*S,B,B,B,B,B,B,B,B,S*S,B,B,B,B,B,B,B,B,S*S,B,B,B,B,B,B,B,B,S*S,B,B,B,B,B,B,B,B,S*S,B,B,B,B,B,B,B,B,S*S,B,B,B,B,B,B,B,B,S*S,B,B,B,B,B,B,B,B,S*S,B,B,B,B,B,B,B,B,S*S,B,B,B,B,B,B,B,B,S*S,B,B,B,B,B,B,B,B,S*S,B,B,B,B,B,B,B,B,S*S,B,B,B,B,B,B,B,B,S*S,B,B,B,B,B,B,B,C,S*S,B,B,B,B,B,B,B,B,S*S,B,B,B,B,B,B,B,B,S*S,B,B,B,B,B,B,B,B,S*S,B,B,B,B,B,B,B,B,S*S,B,B,B,B,B,B,B,B,S*S,B,B,B,B,B,B,B,B,S*S,B,B,B,B,B,B,B,B,S*S,B,B,B,B,B,B,B,B,S*S,B,B,B,B,B,B,B,B,S*S,B,B,B,B,B,B,B,B,S*S,B,B,B,B,B,B,B,B,S*S,B,B,B,B,B,B,B,B,S*S,B,B,B,B,B,B,B,B,S*S,B,B,B,B,B,B,B,B,S*S,B,B,B,B,B,B,B,B,S*S,B,B,B,B,B,B,B,B,S*S,B,B,B,B,B,B,B,B,S*S,B,B,B,B,B,B,B,B,S*S,B,B,B,B,B,B,B,B,S*S,B,B,B,B,B,B,B,B,S*S,B,B,B,B,B,B,B,B,S*S,B,B,B,B,B,B,B,B,S*S,B,B,B,B,B,B,B,B,S*S,B,B,B,B,B,B,B,B,S*S,B,B,B,B,B,B,B,B,S*S,B,B,B,B,B,B,B,B,S*S,B,B,B,B,B,B,B,B,S*S,B,B,B,B,B,B,B,B,S*S,B,B,B,B,B,B,B,B,S*S,B,B,B,B,B,B,B,B,S*S,B,B,B,B,B,B,B,B,S*S,B,B,B,B,B,B,B,B,S*S,B,B,B,B,B,B,B,B,S*S,B,B,B,B,B,B,B,B,S*S,B,B,B,B,B,B,B,B,S*S,B,B,B,B,B,B,B,B,S*S,B,B,B,B,B,B,B,B,S*S,B,B,B,B,B,B,B,B,S*S,B,B,B,B,B,B,B,B,S*S,B,B,B,B,B,B,B,B,S*S,B,B,B,B,B,B,B,B,S*S,B,B,B,B,B,B,B,B,S*S,B,B,B,B,B,B,B,B,S*S,B,B,B,B,B,B,B,B,S*S,B,B,B,B,B,B,B,B,S*S,B,B,B,B,B,B,B,B,S*S,B,B,B,B,B,B,B,B,S*S,B,B,B,B,B,B,B,B,S*S,B,B,B,B,B,B,B,B,S*S,B,B,B,B,B,B,B,B,S*S,B,B,B,B,B,B,B,B,S*S,B,B,B,B,B,B,B,B,S*S,B,B,B,B,B,B,B,B,S*S,B,B,B,B,B,B,B,B,S*S,B,B,B,B,B,B,B,B,S*S,B,B,B,B,B,B,B,B,S*S,B,B,B,B,B,B,B,B,S*S,B,B,B,B,B,B,B,B,S*S,B,B,B,B,B,B,B,B,S*S,B,B,B,B,B,B,B,B,S*S,B,B,B,B,B,B,B,B,S*S,B,B,B,B,B,B,B,B,S*S,B,B,B,B,B,B,B,B,S*S,B,B,B,B,B,B,B,B,S*S,B,B,B,B,B,B,B,B,S*S,B,B,B,B,B,B,B,B,S*S,B,B,B,B,B,B,B,B,S*S,B,B,B,B,B,B,B,B,S*S,B,B,B,B,B,B,B,B,S*S,B,B,B,B,B,B,B,B,T*S,B,B,s,s,s,B,B,B,S*S,B,B,B,B,B,B,B,B,S*S,B,B,B,B,B,B,B,B,S*S,B,B,B,B,B,B,B,B,S*S,B,B,B,B,B,B,B,B,T*S,B,B,B,B,B,B,B,B,S*S,B,B,B,B,B,B,B,B,S*S,B,B,B,B,B,B,B,B,S*S,B,B,B,B,B,B,B,B,S*S,B,B,B,B,B,B,B,B,S*S,B,B,B,B,B,B,B,B,S*S,B,B,B,B,B,B,B,B,S*S,B,B,B,B,B,B,B,B,S*S,B,B,B,B,B,B,B,B,S*S,B,B,B,B,B,B,B,B,S*S,B,B,B,B,B,B,B,B,S*S,B,B,B,B,B,B,B,B,S*S,B,B,B,B,B,B,B,B,S*S,B,B,B,B,B,B,B,B,S*S,B,B,B,B,B,B,B,B,S*S,C,B,B,B,B,B,B,B,S*S,B,B,B,B,B,B,B,B,S*S,B,B,B,B,B,B,B,B,S*S,B,B,B,B,B,B,B,B,S*S,B,B,B,B,B,B,B,B,S*S,B,B,B,B,B,B,B,B,S*S,B,B,B,B,B,B,B,B,S*S,B,B,B,B,B,B,B,B,S*S,B,B,B,B,B,B,B,B,S*S,B,B,B,B,B,B,B,B,S*S,B,B,B,B,B,B,B,B,S*S,B,B,B,B,B,B,B,B,S*S,B,B,B,B,B,B,B,B,S*S,B,B,B,C,B,s,B,B,S*S,B,B,B,B,B,B,s,s,S*S,B,B,B,B,B,B,B,B,T*S,B,B,B,B,B,B,B,B,S*S,B,B,B,B,B,B,B,B,S*S,s,s,B,B,B,B,B,B,S*S,B,B,B,B,B,B,B,B,S*S,B,B,B,B,B,B,B,B,S*S,B,B,B,B,B,B,B,B,S*S,B,B,B,B,B,B,B,B,S*S,B,B,B,B,B,B,C,B,S*S,B,B,B,B,B,B,B,B,S*S,B,B,B,B,B,B,B,B,S*S,B,B,B,B,B,B,B,B,S*S,B,B,B,B,B,B,B,B,S*S,B,B,B,B,B,B,B,B,S*S,B,B,B,B,B,B,B,B,T*S,B,B,B,B,B,B,B,B,S*S,B,B,B,B,B,B,B,B,S*S,B,B,s,s,B,B,B,B,S*S,B,B,B,B,B,B,C,B,S*S,B,B,B,C,B,s,B,B,S*S,B,B,B,B,B,C,s,s,S*S,B,B,B,B,B,B,B,B,S*S,B,B,B,B,B,B,B,B,S*S,B,B,B,B,B,B,B,B,S*S,B,B,B,B,B,B,B,B,S*S,B,B,B,B,B,B,B,B,S*S,B,s,B,B,B,B,C,B,S*S,B,B,B,B,B,B,B,B,S*S,B,B,B,B,B,B,B,B,S*S,B,B,B,B,B,B,B,B,S*S,B,B,B,B,B,B,B,B,S*S,B,B,B,B,B,B,B,B,S*S,B,B,B,B,B,B,B,B,S*S,B,B,B,B,B,B,B,B,S*S,B,B,B,s,C,b,b,B,S*S,B,B,B,B,B,B,B,B,S*S,B,B,B,B,B,B,B,B,S*S,B,B,s,s,B,B,B,B,S*S,B,B,B,B,B,B,B,B,S*S,B,B,B,B,B,B,B,B,S*S,B,B,B,C,s,s,B,B,S*S,B,B,B,B,B,B,C,B,S*S,B,B,B,B,B,B,B,B,S*S,B,B,B,B,B,B,B,B,S*S,B,B,B,B,B,B,B,B,S*S,B,B,B,B,B,b,b,B,S*S,B,B,B,B,B,B,B,B,S*S,B,B,B,B,B,B,B,B,S*S,B,B,B,B,B,B,B,B,S*S,B,B,B,B,B,B,B,B,S*S,B,B,C,B,s,s,B,B,S*S,C,B,B,C,B,B,B,B,S*S,C,B,B,C,s,s,B,B,S*S,B,B,B,C,s,s,B,B,S*S,B,C,B,B,B,B,B,B,S*S,B,B,B,B,B,B,B,B,S*S,B,B,B,B,B,B,B,B,S*S,B,B,B,B,B,B,B,B,S*S,B,B,B,B,s,s,B,B,S*S,B,B,B,B,B,B,B,B,S*S,B,B,B,B,B,B,B,B,S*S,B,B,B,B,B,B,B,B,S*S,B,B,B,B,B,B,B,B,S*S,B,B,B,C,s,s,B,B,S*S,B,B,B,B,B,B,B,B,S*S,B,B,B,B,B,B,B,B,S*S,B,B,B,B,B,B,B,B,S*S,B,B,s,s,B,B,B,B,S*S,B,B,B,B,B,B,B,B,S*S,B,B,B,B,B,B,B,B,S*S,B,B,B,B,B,B,B,B,S*S,B,B,B,B,B,B,B,B,S*S,B,B,B,B,B,B,B,B,S*S,B,B,B,B,B,C,s,s,S*S,B,B,B,B,B,B,B,B,S*S,B,B,B,B,B,B,B,B,S*S,B,B,B,B,B,B,s,s,S*S,B,B,B,B,B,B,B,B,S*S,C,B,B,B,B,B,B,B,S*S,B,B,B,B,B,C,s,s,S*S,B,B,B,B,B,B,B,B,S*S,B,B,B,B,B,B,B,B,S*S,B,B,B,B,B,B,B,B,S*S,B,B,B,B,B,B,B,B,S*S,B,B,B,B,B,B,B,B,S*S,B,B,B,B,B,B,B,B,S*S,s,s,B,B,B,B,B,B,S*S,C,b,b,B,B,B,C,B,T*S,B,B,B,B,B,B,B,B,S*S,B,C,B,s,B,B,B,B,S*S,B,B,B,B,B,B,B,B,S*S,B,B,B,B,C,B,B,B,S*S,B,C,s,s,B,b,b,B,S*S,B,B,B,B,B,B,B,B,S*S,B,B,B,B,B,B,B,B,S*S,B,B,B,B,B,B,B,B,S*S,B,B,B,B,B,B,B,B,S*S,B,B,B,B,B,B,B,B,S*S,B,B,B,B,B,B,B,B,S*S,B,B,B,B,B,B,B,B,S*S,B,B,B,C,B,B,B,B,S*S,B,B,B,B,B,B,B,B,S*S,B,B,B,B,B,B,B,B,S*S,B,B,B,B,B,B,B,B,S*S,B,B,B,B,B,B,B,B,S*S,B,B,B,B,B,B,B,B,S*S,B,B,B,B,B,B,B,B,S*S,B,B,B,B,B,B,B,B,S*S,B,B,B,B,B,B,B,B,S*S,B,B,B,B,B,B,B,B,S*S,B,B,B,B,B,B,B,B,S*S,B,B,B,B,B,B,B,B,S*S,B,B,B,B,B,B,B,B,S*T,s,s,B,B,B,B,B,B,S*S,B,B,B,B,B,B,B,B,S*S,B,C,s,s,B,B,B,B,S*T,s,s,B,B,B,B,B,B,S*S,B,B,B,C,s,s,B,B,S*S,B,B,B,B,B,B,B,B,S*S,B,B,B,B,B,B,B,C,S*S,B,B,s,s,B,B,B,B,S*S,s,s,B,B,C,B,B,C,S*S,B,B,B,B,B,B,B,B,S*S,B,B,B,B,B,B,B,B,S*S,B,B,B,B,B,B,B,B,S*S,B,B,B,B,B,B,B,B,S*S,B,B,B,B,B,B,B,B,S*S,B,B,B,B,B,B,B,B,S*S,B,B,B,B,B,B,B,B,S*S,B,B,B,B,B,B,B,B,S*S,B,B,B,B,B,B,B,B,S*S,B,B,B,B,B,B,B,B,S*S,B,B,B,B,B,B,B,B,S*S,B,B,B,B,B,B,B,B,S*S,B,B,B,B,B,B,B,B,S*S,B,B,B,B,B,B,B,B,S*S,B,B,B,B,B,B,B,B,S*S,B,B,B,B,B,B,B,B,S*S,B,B,B,B,B,B,s,s,S*S,B,B,B,B,C,B,B,C,S*S,B,B,B,B,B,B,B,B,S*S,B,B,B,B,B,B,B,B,S*S,B,B,B,B,B,B,B,B,S*S,B,B,B,B,B,B,B,B,S*S,B,B,B,B,B,B,B,B,S*S,B,B,B,B,B,B,B,B,S*S,B,B,B,B,B,B,B,B,S*S,B,B,B,B,B,B,B,B,S*S,B,B,B,B,B,B,B,B,S*S,B,B,B,B,B,B,B,B,S*S,B,B,B,B,B,B,B,B,S*S,B,B,B,B,B,B,B,B,S*S,B,B,B,B,B,B,B,B,S*S,B,B,B,B,B,B,B,B,S*S,B,B,B,B,B,B,B,B,S*S,B,B,B,B,B,B,B,B,S*S,B,B,B,B,B,B,B,B,S*S,B,B,B,B,B,B,B,B,S*S,B,B,B,B,B,B,B,B,S*S,B,B,B,B,B,B,B,B,S*S,B,B,B,B,B,B,B,B,S*S,B,B,B,B,B,B,B,B,S*S,B,B,B,B,B,B,B,B,S*S,B,B,B,B,B,B,B,B,S*S,B,B,B,B,B,B,B,B,S*S,B,B,B,B,B,B,B,B,S*S,B,B,B,B,B,B,B,B,S*S,B,B,B,B,B,B,B,B,S*S,B,B,B,B,B,B,B,B,S*S,B,B,B,B,B,B,B,B,S*S,B,B,B,B,B,B,B,B,S*S,B,C,B,B,B,B,B,B,S*S,B,B,B,B,B,B,B,B,S*S,B,B,B,B,B,B,s,s,S*S,B,B,B,B,B,B,B,B,S*S,B,B,C,B,B,B,B,B,S*S,B,B,B,B,B,B,B,B,S*S,B,B,C,s,s,s,s,B,S*S,B,B,B,B,B,B,B,B,S*S,B,B,B,B,C,b,b,C,S*S,B,B,B,B,B,B,B,B,S*S,B,B,B,B,B,B,B,B,T*S,B,B,B,B,B,B,B,B,S*S,B,B,B,B,B,B,B,B,S*S,B,B,B,B,B,C,s,s,S*S,B,B,B,B,B,B,B,B,S*S,B,B,B,B,B,B,B,B,S*S,B,B,B,B,B,B,B,B,S*S,B,B,B,B,B,B,B,B,S*S,B,B,B,B,B,B,B,B,S*S,B,B,B,B,B,B,B,B,S*S,B,B,B,B,B,B,B,B,S*S,B,B,B,B,B,B,B,B,S*S,B,B,B,B,B,B,B,B,S*S,C,B,B,B,B,B,B,B,S*S,B,B,B,B,B,B,B,B,S*S,B,B,B,B,B,B,B,B,S*S,B,B,B,B,B,B,B,B,S*S,B,B,B,B,B,B,B,B,S*S,B,B,B,B,B,B,B,B,S*S,B,B,s,s,B,B,B,B,S*S,B,B,B,B,B,B,B,B,S*S,B,B,B,B,B,B,B,B,S*S,B,B,B,B,B,B,B,B,S*S,B,B,B,B,B,B,B,B,S*S,B,B,B,B,B,B,B,B,S*S,B,B,B,B,B,B,B,B,S*S,B,B,B,B,B,B,B,B,S*S,B,B,B,B,B,B,B,B,S*S,B,B,B,B,B,B,B,B,S*S,B,B,B,B,B,B,B,B,S*S,B,B,B,B,B,B,B,B,S*S,B,B,B,B,B,B,B,B,S*S,B,B,B,B,B,B,B,B,S*S,B,B,B,B,B,B,B,B,S*S,B,B,B,B,B,B,B,B,S*S,B,B,B,B,B,B,B,B,S*S,B,B,B,B,B,B,B,B,S*S,B,C,s,s,B,B,B,B,S*S,B,B,B,B,B,B,B,B,S*S,B,B,B,B,B,B,B,B,S*S,B,B,B,B,B,B,B,B,S*S,B,B,B,B,B,B,B,B,S*S,B,B,B,B,B,B,B,B,S*S,B,B,B,B,B,B,B,B,S*S,B,B,B,B,B,B,B,B,S*S,B,B,B,B,B,B,B,B,S*S,B,B,B,B,B,B,B,B,S*S,B,B,B,B,B,B,B,B,S*S,B,B,B,B,B,B,B,B,S*S,B,B,B,B,B,B,B,B,S*S,B,B,B,B,B,B,B,B,S*S,B,B,B,B,B,B,B,B,S*S,B,B,B,B,B,B,B,B,S*T,C,C,B,s,B,B,B,B,S*S,B,C,t,B,B,B,B,B,S*S,B,C,s,s,B,B,B,B,S*S,B,B,B,s,C,B,B,B,S*S,B,B,B,B,B,B,B,B,S*S,B,B,B,B,B,B,B,B,S*S,B,C,s,s,B,B,B,B,S*S,B,B,C,B,B,B,B,B,S*S,B,B,B,B,B,B,B,B,S*S,B,B,C,B,B,B,B,B,S*S,B,B,B,B,B,B,B,B,S*S,B,B,B,B,B,B,B,B,S*S,B,B,B,B,B,B,B,B,S*S,B,B,B,B,B,B,B,B,S*S,B,B,B,B,B,B,B,B,S*S,B,B,B,B,B,B,B,B,S*S,B,B,B,B,B,B,B,B,S*S,B,B,B,B,B,B,B,B,S*S,B,B,B,B,B,B,B,B,S*S,B,B,B,B,B,B,B,B,S*S,B,B,B,B,B,B,B,B,S*S,B,B,B,B,B,B,B,B,S*S,B,B,B,B,B,B,B,B,S*S,B,B,B,B,B,B,B,B,S*S,B,B,B,B,B,B,B,B,S*S,B,B,B,B,B,B,B,B,S*S,B,B,B,B,B,B,B,B,S*S,B,B,B,B,B,B,B,B,S*S,B,B,B,B,B,B,B,B,S*S,B,B,B,B,B,B,B,B,S*S,B,B,B,B,B,B,B,B,S*S,B,B,B,B,B,B,B,B,S*S,B,B,B,B,B,B,B,B,S*S,B,B,B,B,B,B,B,B,S*S,B,B,B,B,B,B,B,B,S*S,B,B,B,B,B,B,B,B,S*S,B,B,B,B,B,B,B,B,S*S,B,B,B,B,B,B,B,B,S*S,B,B,B,B,B,B,B,B,S*S,B,B,B,B,B,B,B,B,S*S,B,B,B,B,B,B,B,B,S*S,B,B,B,B,B,B,B,B,S*S,B,B,B,B,B,B,B,B,S*S,B,B,B,B,B,B,B,B,S*S,B,B,B,B,B,B,B,B,S*S,B,B,B,B,B,B,B,B,S*S,B,B,B,B,B,B,B,B,S*S,B,B,B,B,B,B,B,B,S*S,B,B,B,B,B,B,B,B,S*S,B,B,B,B,B,B,B,B,S*S,B,B,B,B,B,B,B,B,S*S,B,B,B,B,B,B,B,B,S*S,B,B,B,B,B,B,B,B,S*S,B,B,B,B,B,B,B,B,S*S,B,B,B,B,B,B,B,B,S*S,B,B,B,B,B,B,B,B,S*S,B,B,B,B,B,B,B,B,S*S,B,B,B,B,B,B,B,B,S*S,B,B,B,B,B,B,B,B,S*S,B,B,B,B,B,B,B,B,S*S,B,B,B,B,B,B,B,B,S*S,B,B,B,B,B,B,B,B,S*S,B,B,B,B,B,B,B,B,S*S,B,B,B,B,B,B,B,B,S*S,B,B,C,B,B,B,B,B,S*S,B,B,B,B,B,B,B,B,S*S,B,B,B,B,B,B,B,B,S*S,B,B,B,B,B,B,B,B,S*S,B,C,s,s,B,B,B,B,S*S,B,B,B,B,B,B,B,t,S*S,B,B,B,B,B,B,B,B,S*S,B,B,B,B,B,C,s,s,S*S,B,B,B,B,C,c,B,s,S*S,B,B,B,B,B,B,B,B,S*S,B,B,B,B,B,B,B,B,S*S,B,B,B,B,B,B,B,B,T*S,B,B,B,B,B,B,B,B,S*S,B,B,B,B,B,B,B,B,S*S,B,B,B,B,B,B,B,B,S*S,B,C,B,B,B,B,B,B,S*S,B,B,B,B,B,B,B,B,S*S,B,B,B,B,B,B,B,B,S*S,B,B,B,B,B,B,B,B,S*S,B,B,B,B,B,B,B,B,S*S,B,B,C,B,B,B,B,B,S*S,B,B,B,B,B,B,B,B,S*S,B,B,B,B,B,B,B,B,S*S,B,B,B,B,B,B,B,B,S*S,B,B,B,B,B,B,B,B,S*S,B,B,B,B,B,B,B,B,S*S,B,B,B,B,B,B,B,B,S*S,B,B,B,B,B,B,B,B,S*S,B,B,B,B,B,B,B,s,S*S,B,B,B,B,B,B,B,B,S*S,B,B,B,B,B,B,B,B,S*S,B,B,B,B,B,B,B,B,S*S,B,B,B,B,B,B,B,B,S*S,B,B,B,B,B,B,B,C,S*S,B,B,B,B,B,B,B,B,S*S,B,B,B,B,B,B,B,B,S*S,B,B,B,B,B,B,B,B,S*S,B,B,B,B,B,B,B,B,S*S,B,B,B,B,B,B,B,B,S*S,B,B,B,B,B,B,B,B,S*S,B,B,B,B,B,B,B,B,S*S,B,B,B,B,B,B,B,B,S*S,B,B,B,B,t,s,B,B,S*S,B,B,B,B,B,B,B,B,S*S,B,B,B,B,B,B,B,B,S*S,B,B,B,B,B,B,B,B,S*S,B,B,B,B,B,C,B,B,S*S,B,B,B,B,B,B,B,B,S*S,B,B,B,B,B,B,B,B,S*S,B,B,B,B,s,s,B,B,S*S,B,B,B,B,B,B,B,B,S*S,B,B,B,B,B,B,B,B,T*S,B,B,s,s,B,B,B,B,S*S,B,B,B,B,B,B,B,B,S*S,B,B,B,B,B,B,B,B,S*S,B,B,B,B,B,B,B,B,S*S,B,B,B,B,B,B,B,B,S*S,B,B,B,B,B,B,B,B,S*T,s,s,B,B,B,B,B,B,S*S,B,C,s,s,B,B,B,B,S*S,B,B,B,B,B,B,B,B,S*S,B,C,s,s,B,B,B,B,S*S,B,B,B,B,B,B,B,B,S*S,B,B,B,B,B,B,B,B,S*S,B,B,B,B,B,B,B,B,S*S,B,B,B,B,B,B,B,B,S*S,B,B,B,B,B,B,B,B,S*S,B,B,B,B,B,B,B,B,S*S,B,B,B,B,B,B,B,B,S*S,C,C,B,s,B,B,B,B,S*S,B,B,B,B,B,B,B,B,S*S,B,B,B,B,B,B,B,B,S*S,B,B,B,B,B,B,B,B,S*S,B,B,B,B,B,B,B,B,S*S,B,B,B,B,B,B,B,B,S*S,B,B,B,B,B,B,B,B,S*T,s,s,C,B,B,B,B,C,S*S,B,B,B,B,B,B,B,B,S*S,B,B,B,C,s,s,B,B,S*S,B,B,B,B,B,B,B,B,S*S,B,B,B,B,B,B,B,B,S*S,B,B,B,B,B,B,B,B,'
p1
.F-15813.538343520897
.S'From-Botnet-TCP-HTTP-Zeus.CC-1'
p1
.F1.1000000000000001
.