ccopy_reg
_reconstructor
p1
(cpykov
Vector
p2
c__builtin__
dict
p3
(dp4
S'a'
F0.020833333333333332
sS'E'
F0.020833333333333332
sS'd'
F0.16666666666666666
sS'+'
F0.020833333333333332
sS','
F0.041666666666666664
sS'.'
F0.41666666666666663
sS'1'
F0.020833333333333332
sS'R'
F0.041666666666666664
sS'U'
F0.083333333333333329
sS'4'
F0.020833333333333332
sS'v'
F0.020833333333333332
sS'u'
F0.020833333333333332
sS'e'
F0.020833333333333332
sS'D'
F0.083333333333333329
stRp5
.ccopy_reg
_reconstructor
p1
(cpykov
Chain
p2
c__builtin__
dict
p3
(dp4
(S'u'
S','
tp5
F0.021052631578947368
s(S'b'
S'.'
tp6
F1
s(S'.'
S'V'
tp7
F0.00067748491789528019
s(S'.'
S'u'
tp8
F0.015033712939961931
s(S'V'
S'*'
tp9
F0.45454545454545464
s(S'E'
S'.'
tp10
F1
s(S'.'
S'A'
tp11
F0.0041294318805045653
s(S'V'
S'.'
tp12
F0.51515151515151525
s(S'.'
S'E'
tp13
F0.15030486821305289
s(S'.'
S'r'
tp14
F0.0013872310223570022
s(S','
S'U'
tp15
F0.13793103448275862
s(S'.'
S'd'
tp16
F0.498757944317192
s(S'U'
S','
tp17
F0.036363636363636362
s(S'B'
S'.'
tp18
F1
s(S','
S'v'
tp19
F0.51724137931034486
s(S'*'
S'U'
tp20
F0.6333333333333333
s(S'.'
S'v'
tp21
F0.015517630738458559
s(S'a'
S'.'
tp22
F1
s(S'.'
S'B'
tp23
F0.00016130593283220958
s(S'.'
S'a'
tp24
F0.0077104235893796173
s(S'U'
S'+'
tp25
F0.018181818181818181
s(S'.'
S's'
tp26
F0.00016130593283220958
s(S'R'
S','
tp27
F1
s(S'.'
S'e'
tp28
F0.15559570280994936
s(S'u'
S'.'
tp29
F0.97894736842105268
s(S'v'
S','
tp30
F0.028225806451612906
s(S','
S'V'
tp31
F0.034482758620689655
s(S'A'
S'.'
tp32
F1
s(S'.'
S'b'
tp33
F0.00025808949253153533
s(S'U'
S'*'
tp34
F0.27272727272727271
s(S'r'
S'.'
tp35
F1
s(S'd'
S'.'
tp36
F1
s(S'1'
S'4'
tp37
F1
s(S'+'
S'U'
tp38
F1
s(S'U'
S'.'
tp39
F0.67272727272727273
s(S'V'
S','
tp40
F0.030303030303030311
s(S'4'
S'.'
tp41
F1
s(S'.'
S'U'
tp42
F0.0010000967835596993
s(S'e'
S'.'
tp43
F1
s(S'*'
S'V'
tp44
F0.36666666666666664
s(S'D'
S'.'
tp45
F1
s(S'v'
S'.'
tp46
F0.97177419354838712
s(S'.'
S'R'
tp47
F6.4522373132883833e-05
s(S','
S'u'
tp48
F0.31034482758620691
s(S'.'
S'D'
tp49
F0.14924024905636027
s(S's'
S'.'
tp50
F1
stRp51
(dp52
S'_guess'
p53
g1
(cpykov
Vector
p54
g3
(dp55
S'A'
F0.002060660699336725
sS'B'
F8.0494558567840817e-05
sS'E'
F0.075004829673514073
sS'D'
F0.074473565586966314
sS'R'
F3.2197823427136328e-05
sS'U'
F0.00088544014424624898
sS'V'
F0.00053126408654774926
sS'a'
F0.0038476398995427909
sS'b'
F0.00012879129370854531
sS'e'
F0.077645051194539252
sS'd'
F0.24888917509176381
sS'+'
F1.6098911713568164e-05
sS'*'
F0.0004829673514070449
sS','
F0.00046686843969347673
sS'.'
F0.49901796638547236
sS'1'
F1.6098911713568164e-05
sS's'
F8.0494558567840817e-05
sS'r'
F0.000692253203683431
sS'u'
F0.0076469830639448776
sS'4'
F1.6098911713568164e-05
sS'v'
F0.0079850602099298083
stRp56
sb.S'14.R,U.R,U.U+U.u.D.d.e.D.E.D.D.d.d.d.d.d.d.d.a.v.u.D.e.D.D.d.d.d.d.d.d.d.d.d.d.d.e.E.e.e.e.d.D.d.d.e.D.E.D.E.D.D.d.d.d.d.d.d.d.e.D.D.d.e.D.E.E.d.D.d.d.d.d.d.d.d.d.d.d.d.d.e.E.d.D.e.D.D.d.a.u.v.E.d.D.d.e.D.D.d.d.d.d.d.d.d.d.d.d.d.d.d.e.D.D.d.d.d.d.d.d.d.d.e.D.D.d.d.d.d.e.D.D.d.d.d.d.d.d.d.d.d.d.d.d.e.D.D.d.d.d.D.E.D.D.d.e.E.D.D.d.d.a.u.u.d.d.e.D.D.d.d.e.E.e.e.d.D.d.d.d.d.d.d.d.d.e.d.e.E.d.D.d.d.e.D.E.D.D.a.u.u.e.D.E.D.D.e.E.d.D.d.d.d.d.d.e.D.E.E.e.d.D.d.d.e.E.e.d.E.E.e.d.E.E.e.d.d.e.E.e.d.D.e.E.d.E.D.D.e.D.D.e.D.D.e.D.D.d.d.d.d.d.d.e.E.e.e.d.E.D.D.e.d.d.d.d.d.d.e.D.D.d.d.d.e.E.D.D.e.D.E.D.D.e.D.D.d.d.d.d.d.d.d.d.d.e.D.D.e.e.d.D.e.D.D.d.d.d.d.d.d.d.e.D.D.d.d.d.d.d.d.d.e.D.E.D.D.d.e.D.D.d.d.d.d.e.D.E.E.d.D.d.d.e.e.D.D.d.d.d.d.d.d.d.d.d.d.d.e.E.D.E.D.D.d.e.D.D.e.D.E.E.e.d.A.u.u.e.D.D.d.d.d.e.E.e.d.D.d.d.e.E.d.D.d.d.e.D.D.d.e.E.d.E.E.d.E.D.D.e.E.d.E.D.D.e.D.D.d.e.D.E.D.D.e.A.v.u.D.d.d.d.e.E.D.D.d.e.D.E.D.D.d.e.E.e.e.a.u.u.d.e.D.D.d.d.d.e.D.E.D.E.D.D.d.d.d.d.d.d.e.D.D.e.D.E.D.D.e.D.D.d.e.D.D.d.e.E.d.D.e.D.E.E.d.D.e.E.d.D.e.D.D.e.D.D.e.D.D.d.d.d.d.d.d.d.d.d.d.d.e.A.v.u.E.D.D.d.d.d.d.d.d.d.d.d.d.d.d.d.d.d.d.d.d.d.d.d.d.d.d.d.e.D.E.D.D.e.D.D.e.D.E.D.D.d.d.d.d.d.e.D.D.e.D.D.d.d.d.d.d.e.D.E.D.D.d.d.d.D.D.d.d.d.d.a.r.d.v.E.d.D.d.d.e.D.D.e.D.E.D.D.e.D.D.d.e.D.D.d.e.D.D.e.d.D.d.e.E.D.D.d.e.d.E.E.d.E.D.D.d.d.d.d.d.d.d.d.d.d.d.d.e.D.D.d.e.D.D.d.e.D.E.D.D.e.E.d.E.D.A.u.u.e.E.D.D.e.D.D.d.d.e.E.e.e.D.D.d.d.d.e.E.e.d.D.d.e.E.d.D.d.d.d.e.A.v.v.d.D.d.d.d.d.d.d.d.d.e.D.D.d.d.e.E.E.d.E.E.e.e.d.D.d.d.d.e.D.D.d.e.E.e.e.D.E.D.D.d.d.e.D.D.d.d.d.d.d.d.d.d.d.e.D.E.D.E.E.d.E.D.D.e.D.E.D.E.D.E.E.d.E.E.d.D.d.d.e.D.E.E.d.D.e.D.D.d.e.D.E.D.E.D.D.d.d.e.D.E.D.E.E.e.e.d.E.E.d.e.D.D.d.e.D.D.d.d.d.d.d.d.e.E.e.d.E.D.D.d.d.d.d.e.D.D.d.d.d.e.D.d.v.E.E.D.D.d.d.e.E.d.D.e.D.E.D.D.d.d.e.d.d.d.d.d.e.E.d.D.e.D.E.E.d.D.e.D.D.d.e.A.v.u.D.d.d.d.d.d.e.D.D.d.e.E.E.e.E.E.E.D.d.e.E.E.d.D.e.E.D.d.d.d.e.E.d.e.D.D.e.E.e.e.D.D.d.e.e.E.d.D.e.D.E.D.D.e.D.D.d.d.d.d.e.D.D.e.D.D.d.d.d.a.u.u.d.d.e.E.e.D.d.d.d.d.d.e.D.D.d.d.e.E.e.e.d.D.e.D.E.D.D.V*V.v.E.d.D.E.d.E.E.d.D.e.D.D.d.d.d.e.D.E.D.D.d.d.d.e.E.d.D.d.d.d.e.D.D.e.E.e.e.e.d.E.E.a.u.u.d.d.d.d.d.d.d.d.e.D.E.D.D.d.d.d.d.d.d.d.d.d.d.d.d.e.D.D.e.E.d.E.D.D.d.e.D.D.e.D.D.e.D.D.d.d.d.e.D.D.e.E.e.d.D.d.e.A.v.u.D.d.e.E.e.d.D.e.D.E.E.e.d.D.d.d.d.d.d.d.d.d.d.e.E.d.D.d.d.d.d.d.d.d.d.d.d.d.d.d.d.e.D.D.d.d.e.D.D.d.e.D.D.d.d.d.e.D.E.D.D.d.e.E.d.E.D.D.d.d.d.d.d.d.e.E.d.D.d.e.E.D.E.D.D.d.d.d.d.d.d.e.E.e.e.d.D.e.E.e.e.D.D.d.d.d.d.d.d.d.d.d.d.d.d.d.d.d.e.D.D.d.d.d.d.d.d.e.E.D.E.D.D.d.d.d.d.d.d.d.d.d.d.d.d.e.D.D.e.E.e.d.E.E.e.e.d.E.E.a.r.d.u.d.e.E.d.E.D.D.e.E.d.D.d.e.D.E.E.d.D.e.D.D.d.d.d.e.E.e.e.d.D.e.D.D.e.E.d.D.d.e.D.E.D.E.E.e.D.E.E.e.d.E.E.e.D.D.d.d.d.e.D.D.e.D.E.E.d.E.E.A.u.u.d.e.E.e.e.d.D.d.e.D.D.e.D.D.d.d.d.e.D.D.d.e.D.E.D.D.e.D.E.D.D.d.d.d.d.d.d.d.e.D.D.d.d.d.d.d.d.d.d.d.d.d.d.d.d.d.d.d.d.e.E.d.D.e.E.d.D.d.d.d.d.d.e.e.d.E.E.d.D.d.d.d.d.d.d.d.d.e.D.D.d.d.d.d.e.D.D.d.e.D.D.d.d.d.d.d.d.d.d.d.e.E.d.D.d.d.d.d.d.d.d.d.e.D.D.d.e.E.e.d.D.d.d.e.D.D.e.D.D.d.d.d.d.d.d.d.d.e.A.u.u.e.D.D.d.d.d.d.d.d.e.D.D.d.e.D.D.d.d.d.e.D.D.d.d.e.D.E.E.d.D.d.d.d.d.d.d.d.d.e.D.A.u.u.d.d.e.D.D.d.d.e.D.D.d.e.E.D.E.D.D.d.d.d.d.d.e.D.D.d.a.v.u.e.E.d.D.d.e.D.D.e.D.D.d.e.D.D.d.d.d.d.e.d.d.d.d.e.D.D.d.d.d.d.e.E.e.e.d.D.d.d.d.d.d.e.D.D.e.D.D.d.d.e.D.E.E.d.E.D.D.d.d.d.d.d.e.D.D.e.E.d.D.d.d.d.e.E.E.d.e.D.D.d.d.d.d.d.d.d.d.e.E.d.D.d.d.d.d.d.d.d.d.d.d.e.D.D.d.d.d.d.d.d.d.e.D.D.d.d.d.d.d.d.d.d.d.d.d.d.d.d.d.d.d.d.d.d.d.d.d.d.d.d.e.E.d.D.d.d.d.a.v.u.D.d.e.D.D.d.d.d.d.d.d.d.d.d.d.d.d.d.d.e.e.d.d.d.d.d.d.d.d.d.d.d.d.d.d.e.D.E.D.D.d.d.e.D.D.d.d.d.d.d.d.d.d.d.d.d.d.e.d.d.d.d.d.e.D.E.D.D.e.E.e.d.A.v.u.D.d.d.d.d.d.e.D.D.d.e.D.D.d.d.d.d.d.d.d.d.d.d.d.e.D.D.d.d.d.d.d.e.D.E.D.D.d.d.d.d.d.d.d.d.d.d.d.d.d.d.d.e.D.D.d.d.d.d.d.d.e.D.D.d.d.d.d.d.d.d.d.e.D.E.D.D.d.d.d.d.e.D.D.d.d.d.d.d.d.d.d.d.d.d.d.d.d.d.d.d.d.d.e.D.D.d.d.d.d.e.D.E.D.D.d.d.d.d.e.D.D.d.d.d.d.d.d.d.d.d.d.d.d.d.d.d.d.d.d.e.E.e.D.D.d.d.d.a.u.u.e.D.E.D.E.d.e.e.E.E.e.e.d.D.d.d.d.d.d.d.e.D.D.e.D.E.D.e.E.E.d.D.d.e.d.d.d.d.d.d.d.d.d.d.e.e.D.E.D.E.D.D.d.d.d.e.D.D.d.d.d.U*V.U.D.d.d.d.d.d.d.e.D.D.a.v.u.D.d.d.d.d.d.d.e.D.D.e.E.E.D.D.d.e.D.D.d.d.e.D.E.D.D.e.D.E.D.E.E.e.d.D.d.d.d.d.d.d.d.d.d.d.d.e.D.D.e.D.D.e.D.E.E.e.e.d.E.D.E.D.E.E.d.D.d.d.e.E.e.E.e.d.E.e.D.E.D.E.E.d.D.d.e.D.D.d.e.E.e.d.D.d.d.e.D.D.d.d.d.d.d.e.E.e.d.D.e.D.D.u,u.d.d.e.D.D.d.d.d.d.d.d.d.e.D.E.D.E.D.E.E.d.A.u.u.d.d.d.a.r.e.u.D.e.D.D.d.d.e.D.D.e.E.d.D.d.d.d.e.D.D.d.e.D.E.E.e.d.D.d.d.e.E.d.D.d.e.D.D.d.d.e.D.D.d.d.e.E.e.e.D.E.E.d.D.d.d.e.D.E.E.d.D.d.e.D.D.d.e.E.e.A.v.u.D.d.e.E.D.D.d.d.d.d.d.e.E.D.D.d.d.d.d.e.D.D.d.d.d.e.E.e.d.E.D.D.e.E.e.d.D.e.D.D.d.e.D.D.d.d.d.e.D.D.d.d.d.d.d.d.e.D.D.e.D.D.d.d.d.d.d.d.d.e.D.D.e.d.D.d.d.e.D.D.d.d.d.d.d.e.E.d.E.D.D.e.D.D.d.d.e.D.D.d.d.d.d.d.d.d.d.e.E.e.D.D.d.d.d.d.d.d.e.D.D.d.e.D.D.e.E.d.D.d.d.d.e.E.d.D.d.d.e.D.D.d.d.e.D.D.e.a.v.u.D.e.E.e.d.E.D.D.d.d.d.d.d.a.u.u.e.D.D.e.D.D.d.d.d.d.d.e.D.D.d.d.d.d.d.d.e.D.D.e.E.d.D.d.d.e.D.E.D.E.D.E.D.E.D.D.d.e.D.E.D.E.D.D.d.d.e.D.D.d.e.D.d.d.d.d.e.E.d.D.d.d.d.d.d.d.e.D.E.D.D.d.d.d.d.d.e.D.D.d.e.D.D.e.D.E.E.d.D.d.e.D.D.d.d.d.d.d.d.d.d.d.d.d.d.e.E.d.D.e.D.E.D.D.d.d.e.D.E.D.D.d.d.e.A.r.u.u.d.d.d.d.d.d.d.d.e.D.D.d.e.D.E.D.D.d.d.d.e.D.E.E.d.D.d.d.d.d.d.d.d.e.D.D.d.d.d.d.d.e.E.d.D.d.e.D.D.d.d.d.d.e.D.D.e.D.D.d.d.e.D.D.d.d.d.d.e.D.E.e.e.e.e.d.E.D.D.d.d.e.D.D.d.d.d.e.D.D.e.E.d.D.d.d.d.d.d.d.e.E.e.e.d.D.e.D.E.E.d.D.d.d.d.d.d.e.E.d.D.d.d.e.E.d.D.d.d.d.d.e.D.D.e.D.E.E.d.D.d.d.d.d.e.a.v.v.d.D.d.d.d.d.e.E.d.D.d.d.d.d.d.d.e.E.d.E.D.E.D.D.d.e.D.D.d.e.D.D.d.e.E.d.D.d.d.d.d.d.d.d.d.e.D.D.d.e.D.E.E.d.D.e.D.E.D.E.E.d.E.D.D.d.d.d.e.D.D.e.d.d.d.e.D.D.e.E.d.E.D.E.E.d.D.d.d.d.e.E.d.D.d.e.E.d.E.D.D.e.D.E.D.D.e.D.D.d.d.d.d.d.d.d.d.d.e.E.d.D.d.d.d.e.E.d.D.d.d.d.e.E.e.e.D.e.D.D.e.E.e.d.E.D.D.d.d.d.e.D.E.D.D.d.d.e.d.e.E.E.E.d.D.d.d.d.e.E.d.D.d.d.d.d.d.d.d.e.D.E.D.D.d.d.e.D.D.d.d.d.d.e.D.D.d.d.d.d.d.d.d.e.D.D.d.e.D.D.d.d.d.d.d.d.d.d.d.d.a.u.u.d.d.e.D.E.D.D.d.d.d.d.e.D.D.e.D.D.d.d.d.d.d.e.D.D.d.d.d.d.d.e.D.D.d.e.D.D.d.d.e.D.D.e.D.D.d.d.d.d.d.d.e.D.D.d.d.e.E.d.D.d.d.d.d.e.D.D.d.d.d.d.d.e.a.u.u.e.D.D.d.d.d.d.d.d.d.d.d.d.d.d.d.d.e.E.d.D.d.d.V*V.u.v.D.E.E.d.E.D.E.D.D.e.E.d.D.e.E.e.d.D.d.d.d.e.D.D.e.E.d.D.e.D.D.d.e.D.E.D.E.D.D.e.E.d.D.d.e.E.d.D.d.d.e.E.d.D.d.d.e.E.d.E.D.D.d.e.E.d.D.d.d.d.e.D.D.d.d.e.D.D.d.d.d.d.d.d.e.D.D.d.e.D.D.d.e.E.d.D.d.e.D.E.D.D.d.d.d.d.d.e.D.D.d.d.d.e.D.E.D.E.E.e.D.E.A.u.u.d.d.e.D.D.e.E.e.e.E.D.D.d.d.d.d.e.E.d.E.D.D.d.d.d.e.D.E.D.D.d.d.d.d.d.d.d.d.e.d.d.d.d.d.d.e.D.D.d.d.d.d.d.d.d.d.d.d.d.d.d.d.d.e.D.D.d.d.d.d.d.e.d.d.e.D.D.e.D.D.d.d.d.d.d.d.d.d.d.d.d.d.d.d.d.d.e.D.D.e.D.D.d.d.e.D.D.d.d.d.d.e.D.D.d.d.d.d.e.D.D.d.d.d.d.d.d.e.D.D.d.e.D.D.d.e.D.D.d.d.d.e.D.D.d.a.u.u.d.d.e.D.D.d.d.d.d.d.d.e.D.D.d.d.e.D.D.e.E.d.d.e.D.D.d.d.d.d.e.E.d.D.d.d.d.d.d.d.d.d.e.D.D.e.D.D.d.e.D.D.d.e.d.d.e.D.E.D.D.d.e.E.e.e.d.D.d.e.D.D.d.a.u.u.d.d.d.d.d.d.e.d.d.d.d.d.e.D.D.d.d.d.d.d.d.e.E.d.D.e.D.D.d.d.e.D.E.D.D.e.D.D.d.d.d.d.e.D.D.d.d.e.d.d.d.e.d.d.e.D.D.d.d.e.E.E.E.e.e.d.E.D.A.r.d.u.e.E.e.d.D.d.d.d.e.E.e.d.D.d.d.d.e.E.e.d.D.d.d.e.E.e.d.E.D.D.d.d.e.E.d.D.d.d.d.d.e.D.D.d.e.D.D.d.e.E.d.E.D.D.d.d.d.d.e.D.D.d.d.d.d.d.d.d.d.e.d.e.d.D.d.e.D.D.d.d.d.d.d.e.E.e.E.D.D.d.e.D.D.e.D.E.D.E.E.d.E.D.D.d.d.d.d.d.e.D.E.D.E.D.E.A.u.u.e.D.D.d.e.D.D.e.D.D.e.d.d.e.E.E.E.d.E.D.D.e.D.D.e.D.D.d.e.D.D.d.d.e.D.D.d.e.E.E.E.d.E.D.E.D.E.E.E.d.e.D.D.d.d.e.E.e.e.e.d.E.E.D.e.E.d.D.e.E.d.D.d.d.d.e.E.d.D.e.E.d.E.e.D.E.E.D.d.d.d.d.d.e.d.d.a.r.v.u.D.e.D.E.e.D.E.E.D.d.e.E.d.D.d.e.E.d.D.d.e.E.d.D.e.e.D.D.d.e.D.D.d.d.d.e.D.E.D.D.e.E.E.D.E.E.e.E.E.E.e.e.E.D.D.e.E.D.e.E.e.D.E.D.D.d.e.E.e.E.d.D.d.d.d.e.E.d.D.d.d.e.D.D.d.d.d.e.E.e.e.e.e.d.E.E.e.e.E.E.d.u.r.v.u.E.E.E.D.d.e.D.E.D.E.E.D.e.D.E.D.D.e.e.E.e.D.D.d.d.e.E.D.d.e.D.E.d.a.r.E.v.d.D.d.d.d.d.e.D.E.E.e.D.d.e.D.E.e.D.E.D.D.d.d.d.e.d.d.d.e.D.E.E.e.E.e.E.e.E.d.E.E.E.d.E.D.D.d.d.d.d.e.D.E.E.d.D.d.e.E.e.D.d.d.e.E.D.e.E.e.e.d.E.e.e.d.e.E.D.D.d.d.e.E.d.D.d.d.d.d.d.d.d.e.E.e.e.d.D.e.D.E.E.d.D.e.d.D.e.D.E.E.E.D.D.d.d.d.d.d.e.D.D.d.e.D.E.D.D.d.e.D.E.d.d.d.e.D.D.d.e.E.e.E.d.E.E.d.E.E.d.E.d.d.d.e.E.d.D.d.d.d.d.d.d.e.E.d.E.E.E.e.E.e.e.e.D.d.e.D.D.d.e.E.d.E.E.d.E.e.e.E.d.e.E.D.D.e.D.D.e.D.E.D.E.E.D.d.d.d.e.E.d.D.e.b.v.v.V*V.U.D.d.d.d.d.e.D.D.e.E.d.D.d.d.d.d.d.d.d.d.e.e.E.E.d.e.D.D.d.e.d.d.d.d.d.e.e.e.e.E.d.D.e.E.d.D.d.d.d.e.E.d.D.e.D.E.E.D.D.d.e.E.E.E.d.D.e.E.d.d.e.D.E.E.d.E.D.D.e.D.D.e.E.D.e.D.D.d.d.d.e.D.E.e.e.d.d.e.E.e.d.E.d.d.e.e.D.E.E.d.E.D.D.e.E.E.e.E.e.e.D.E.E.e.d.E.E.D.e.d.d.d.e.e.D.E.d.d.a.r.d.v.D.E.D.D.e.e.D.D.d.d.e.D.E.E.d.E.D.D.d.d.d.d.d.d.d.e.E.D.D.d.e.D.D.e.E.d.D.d.d.d.d.d.e.d.d.e.D.D.d.e.E.e.e.e.D.d.e.E.e.e.E.D.D.d.e.D.D.d.a.u.r.u.u.e.E.d.D.e.D.E.D.E.E.e.d.E.D.D.d.e.D.E.E.d.D.d.d.e.E.D.e.E.d.D.d.d.e.E.d.E.E.d.D.d.d.e.D.D.d.e.E.d.D.d.d.d.d.d.e.D.E.E.d.E.D.D.e.d.d.d.d.d.e.e.d.D.e.E.e.e.e.D.e.D.D.d.d.d.d.d.e.D.D.e.D.D.d.d.d.d.d.d.e.D.D.d.d.e.E.d.E.D.D.d.d.d.d.d.d.e.E.d.D.e.D.E.v.D.D.e.D.E.D.D.d.e.D.E.D.D.d.d.e.D.D.d.d.d.e.E.d.D.d.d.d.d.d.d.d.e.E.d.D.e.D.D.d.d.e.E.d.E.D.D.d.d.d.e.D.D.d.d.d.e.D.D.d.e.D.D.e.D.E.E.d.E.E.d.D.d.d.e.E.e.e.d.D.e.D.D.e.E.d.D.e.E.d.D.e.D.E.E.E.D.D.e.E.e.d.D.d.d.d.d.d.e.D.E.D.D.d.d.d.d.e.D.D.e.D.D.d.d.e.D.E.E.d.E.D.D.d.d.d.d.d.e.D.E.d.e.E.D.D.d.e.E.d.D.d.d.e.D.E.D.D.d.d.d.d.d.d.d.d.d.e.A.v.v.D.D.d.e.D.E.E.d.D.d.d.d.d.d.d.d.d.e.D.D.d.d.d.d.d.d.d.e.D.D.e.D.D.e.D.D.e.D.D.e.D.E.D.D.d.d.d.d.d.d.d.e.D.D.d.d.e.E.d.D.d.d.d.d.d.e.D.D.d.e.D.E.d.e.D.D.d.d.d.e.D.E.D.D.e.D.D.d.d.d.e.E.e.d.D.e.D.D.a.v.u.D.e.E.e.d.D.d.d.d.e.D.D.d.d.d.d.d.d.e.D.E.E.d.D.e.D.E.D.D.d.d.e.D.E.D.D.e.E.d.D.d.d.e.D.D.e.E.d.D.d.d.e.D.D.d.d.D.D.d.d.d.e.D.D.e.d.d.d.d.d.d.e.D.D.e.D.D.d.e.D.D.d.e.E.e.d.D.e.D.D.d.e.E.d.D.d.d.d.e.D.D.e.E.e.d.D.d.e.D.D.d.d.d.d.d.d.d.e.E.d.D.e.D.D.d.e.D.D.e.D.D.d.e.E.e.a.u.v.D.D.d.d.d.d.d.e.D.D.d.e.D.D.e.D.E.E.d.D.e.d.d.e.D.E.D.E.D.E.D.E.D.D.d.d.e.D.D.e.D.D.d.d.d.d.d.e.E.e.d.E.D.B.u.u.d.d.d.d.d.d.d.d.d.d.e.E.E.e.d.D.d.d.d.d.d.d.d.e.D.D.d.d.d.e.A.u.u.d.d.d.e.D.D.d.d.d.d.d.d.d.d.d.e.D.D.e.D.D.d.e.E.e.d.D.d.d.e.D.E.D.D.d.d.d.d.e.d.d.d.e.D.D.d.d.d.d.d.d.d.d.d.d.d.d.d.d.d.d.d.d.d.d.e.D.D.d.e.D.D.e.E.e.d.D.d.d.e.D.E.D.D.d.e.D.D.e.D.D.d.d.d.d.e.D.D.d.a.u.u.e.D.E.D.D.e.D.E.E.d.E.E.d.E.D.D.d.d.d.d.d.d.e.D.D.d.d.d.e.D.D.d.e.D.D.d.d.d.d.e.D.D.d.e.D.E.D.D.d.d.d.d.d.d.d.e.D.D.e.V*V.u.D.d.e.D.D.d.e.E.d.D.d.d.d.d.d.e.D.D.e.d.e.D.D.d.a.u.u.d.d.e.E.D.D.d.e.D.D.d.d.d.d.d.d.d.e.D.D.e.E.d.D.e.D.E.D.E.e.d.d.e.d.d.d.d.d.e.d.d.d.d.d.d.d.d.d.d.d.d.d.d.d.d.e.D.E.D.D.e.D.D.d.e.e.e.d.d.e.E.e.E.e.d.e.d.d.e.e.d.e.e.e.E.E.e.d.E.D.D.d.d.d.d.e.d.d.d.d.e.D.D.e.E.d.E.D.E.E.D.d.d.d.d.d.d.d.e.E.e.E.E.D.d.d.d.e.D.D.d.d.d.e.D.D.d.e.D.D.e.D.E.d.D.a.v.u.e.D.D.d.d.d.e.E.d.D.d.d.d.e.d.d.e.D.E.D.D.e.D.E.D.E.D.D.d.e.D.E.D.D.e.E.d.E.D.D.e.d.d.d.d.e.D.D.d.d.d.d.d.d.e.D.D.d.d.e.D.D.d.e.d.d.d.d.d.e.D.E.E.E.d.E.D.D.e.D.D.e.E.e.d.D.d.e.e.D.A.u.u.d.d.d.d.d.d.e.E.D.d.d.d.e.D.D.e.D.D.d.e.E.d.E.D.D.e.D.D.d.d.e.D.D.d.d.d.d.d.d.d.d.d.e.u.u.e.D.E.D.D.e.A.r.d.u.d.d.d.e.E.e.d.D.d.d.d.e.E.d.d.d.e.D.E.E.D.D.e.D.E.E.E.D.D.d.d.d.d.d.d.d.d.d.d.d.d.d.d.d.e.D.D.d.d.d.d.d.d.d.d.d.d.e.D.D.e.d.d.d.d.d.e.D.D.e.E.e.d.D.e.E.D.d.d.d.d.d.e.E.d.E.D.E.E.e.d.D.e.D.E.E.D.D.d.e.D.E.D.D.e.D.D.e.D.D.e.D.D.d.d.d.d.e.D.D.e.D.E.D.D.e.D.D.d.d.e.D.D.e.E.e.d.D.d.d.d.d.d.d.d.a.v.u.D.e.D.E.D.D.d.e.D.D.e.D.D.a.u.u.e.E.e.e.e.d.E.D.E.D.D.d.d.e.D.D.e.E.e.d.E.E.e.D.E.D.D.d.e.D.D.e.E.e.d.D.d.e.E.d.D.d.d.d.d.d.d.d.d.d.d.e.A.u.u.d.e.D.D.d.d.e.E.d.E.E.e.d.D.d.d.d.d.e.E.d.E.D.E.E.d.D.e.E.e.d.d.e.D.E.E.d.E.D.D.d.d.e.D.E.E.d.E.E.e.d.D.d.d.d.d.d.d.d.e.E.e.d.E.D.E.E.e.e.e.e.a.v.u.E.E.d.D.e.E.e.d.E.D.D.d.d.d.d.a.v.v.e.d.D.d.d.d.d.d.d.e.D.E.E.e.d.E.E.d.E.E.d.E.E.d.D.e.D.E.D.E.E.d.D.e.E.e.e.e.e.d.E.E.e.e.d.E.D.D.e.A.u.v.E.d.E.D.D.d.e.E.e.e.d.E.E.d.E.E.d.E.D.D.d.d.d.d.e.D.E.D.D.d.d.d.d.d.d.e.D.E.E.d.D.e.E.d.E.E.e.d.E.E.d.D.d.d.e.D.D.d.d.e.D.D.e.D.D.d.d.e.D.D.d.a.v.v.D.D.e.E.E.d.E.E.d.D.e.D.E.E.d.E.E.d.E.D.D.d.d.d.e.D.D.e.E.e.e.d.D.e.D.E.D.D.d.e.D.D.e.E.d.E.D.E.D.E.D.E.E.e.d.E.D.E.E.e.e.e.d.E.D.E.D.D.a.r.e.v.d.D.d.e.E.e.d.E.D.E.E.d.E.E.d.D.d.d.e.E.d.D.d.e.E.d.D.d.d.d.d.d.d.d.d.d.e.D.D.d.e.E.e.d.D.e.E.d.E.D.D.e.E.e.e.d.D.e.D.E.E.e.e.D.e.D.D.d.e.E.a.u.u.d.d.d.d.e.E.d.D.d.e.E.d.D.d.e.D.D.d.d.e.D.E.D.E.D.E.D.E.D.D.e.D.D.e.E.d.D.e.D.E.E.e.D.D.d.e.D.E.D.D.e.E.E.d.D.e.E.d.E.E.d.D.e.E.d.D.e.D.A.v.u.D.e.D.E.E.E.e.d.D.e.D.E.E.d.D.e.E.d.D.e.D.D.V*U.u.E.D.D.d.d.d.e.D.E.D.E.E.d.E.d.d.d.d.d.d.d.d.d.d.d.d.e.D.D.d.d.e.D.D.d.d.d.d.d.d.d.d.d.e.D.E.E.A.u.u.d.e.D.D.d.d.d.e.D.D.d.d.d.d.d.e.D.D.e.D.D.d.d.d.d.d.e.E.d.D.a.u.v.E.D.d.e.D.D.d.d.e.D.E.E.d.D.d.d.e.D.E.d.e.D.D.d.d.e.D.E.E.e.d.E.E.e.d.D.a.u.u.d.d.d.e.D.D.d.d.e.D.E.E.D.E.D.E.D.D.d.d.d.d.e.D.D.d.d.d.e.D.D.d.e.E.d.D.d.d.d.e.E.d.D.e.E.e.e.d.D.e.D.D.d.e.D.D.d.d.d.d.d.d.e.E.d.E.e.D.D.a.r.u.u.d.d.d.d.e.E.e.d.E.D.E.e.E.e.d.D.d.d.d.d.e.D.E.D.D.d.e.D.E.D.D.e.D.D.e.E.D.E.E.E.D.D.e.D.D.e.E.e.d.E.D.E.D.D.e.D.E.D.D.d.d.d.d.d.e.D.E.D.A.u.v.D.D.d.d.d.d.d.d.e.e.D.E.D.E.E.d.D.d.e.E.d.D.d.d.d.d.d.d.d.e.D.D.d.d.d.e.E.d.D.d.d.d.d.d.d.d.d.e.D.D.e.E.d.D.d.d.d.e.E.D.D.e.D.E.D.D.d.d.d.d.d.d.e.D.D.e.E.e.e.e.E.d.D.d.d.d.d.d.d.d.d.d.d.d.d.d.d.d.d.e.D.E.D.E.D.E.E.d.E.E.d.E.D.D.e.D.D.e.D.D.d.d.d.e.D.e.E.e.d.E.D.D.e.D.D.d.d.d.d.d.e.D.D.e.A.u.u.e.D.D.d.d.d.d.d.d.d.e.D.D.d.d.d.e.E.d.D.d.d.d.e.D.D.e.E.e.D.e.E.D.D.d.d.d.d.d.d.d.d.d.e.D.D.d.d.e.D.D.d.e.D.E.D.D.d.e.D.D.d.d.e.E.d.D.d.d.d.d.d.a.u.u.d.d.d.d.d.d.d.d.d.d.d.d.d.e.D.D.e.D.E.E.D.D.d.a.v.u.D.e.D.E.D.D.d.d.d.d.d.d.d.d.d.d.d.d.d.d.d.e.D.E.D.D.d.e.D.E.E.e.d.E.D.D.e.D.D.d.d.e.D.D.e.E.E.E.d.E.D.D.d.d.e.D.D.e.e.E.e.E.D.D.d.d.d.d.d.e.E.E.d.D.d.e.D.D.d.d.e.E.d.D.d.e.D.E.D.D.d.d.d.d.d.e.e.D.E.d.d.d.d.e.D.D.e.D.D.d.d.d.d.d.d.d.d.d.e.D.E.D.D.d.d.e.D.D.d.d.e.d.d.d.d.d.d.d.d.d.d.d.d.d.d.d.d.d.d.d.d.d.d.d.d.d.d.d.e.d.d.d.d.d.d.d.d.d.d.e.D.D.d.d.d.d.d.d.d.d.d.d.d.d.d.d.e.D.D.d.e.D.D.d.d.d.a.u.u.d.d.e.D.D.d.d.d.d.d.e.D.E.D.D.d.d.e.E.d.D.d.d.d.d.d.d.e.D.D.d.d.d.d.e.D.E.D.D.d.d.d.e.D.D.d.d.d.d.d.d.d.d.d.d.d.d.d.e.D.E.D.D.d.d.e.D.D.d.e.e.e.A.u.u.d.e.e.d.d.d.d.d.d.d.d.d.d.d.d.d.d.d.e.D.D.d.d.d.d.d.d.d.d.d.e.E.d.D.d.d.e.D.D.d.e.D.D.d.e.D.D.d.e.D.E.D.D.d.d.d.d.d.d.e.D.D.d.d.d.d.d.d.d.e.D.E.d.d.d.d.e.D.D.d.e.E.d.D.d.d.d.d.e.D.D.a.u.u.d.d.d.d.d.d.d.d.e.D.E.D.D.d.a.u.u.d.d.d.d.e.E.d.E.D.D.d.d.e.E.d.D.e.D.D.d.e.D.E.D.E.D.D.e.E.d.D.d.d.a.v.u.D.d.d.d.e.E.d.D.e.D.D.d.d.d.e.E.e.D.E.D.D.e.D.E.D.D.d.d.d.e.E.d.E.E.e.d.D.e.D.D.d.e.E.d.E.E.e.d.E.E.e.D.D.e.D.D.d.d.v.E.d.D.e.D.V*V.u.D.d.d.d.d.d.a.s.d.u.d.d.d.d.e.D.D.d.d.d.e.D.D.d.d.d.d.e.D.D.e.D.D.e.D.D.d.d.d.e.D.E.D.D.d.d.d.e.E.D.D.e.D.E.D.D.d.d.d.d.d.e.D.E.E.d.E.D.D.e.E.d.E.E.d.E.D.E.E.d.A.v.v.d.E.E.d.D.e.E.d.D.d.e.D.E.D.D.e.D.D.e.D.D.e.D.D.e.E.e.d.E.D.D.d.d.d.d.d.e.E.d.D.e.D.D.e.d.e.D.D.e.D.E.D.D.d.d.d.d.e.D.D.e.D.D.e.D.D.e.D.D.d.a.v.u.D.d.d.e.D.E.D.D.d.d.e.D.D.d.d.e.D.D.d.d.d.d.d.d.d.d.d.d.d.d.d.d.d.e.D.D.e.E.d.E.D.D.d.d.e.E.d.E.E.e.d.E.D.D.d.e.D.E.E.d.D.d.d.d.e.E.d.E.D.D.d.e.e.d.d.d.d.d.d.d.e.D.E.D.E.D.D.d.e.E.e.E.e.d.D.e.D.E.D.D.e.E.e.e.d.E.E.d.E.E.d.E.E.D.E.D.E.E.d.D.d.d.d.e.D.D.e.D.D.d.d.e.D.D.e.D.D.d.e.E.e.d.D.d.d.d.d.d.d.d.d.d.e.D.D.d.e.D.D.e.E.d.D.d.d.e.E.d.E.E.d.E.D.E.D.D.d.e.D.D.d.d.d.d.d.d.d.e.D.D.d.d.e.E.e.d.E.E.d.D.d.d.d.e.D.D.d.e.D.D.d.e.D.E.D.E.D.D.d.d.d.e.A.v.u.E.d.d.e.D.D.d.d.e.D.D.d.d.d.d.e.D.D.e.D.D.e.D.E.D.D.d.d.d.d.d.e.D.E.D.E.E.d.D.e.E.D.E.D.E.D.E.D.D.d.e.D.D.d.d.d.d.d.d.d.d.e.D.E.E.e.e.D.D.a.r.D.v.D.E.E.d.E.D.E.D.D.e.D.D.d.d.e.D.E.E.d.D.d.e.D.D.d.e.D.E.D.E.D.E.D.D.d.e.D.D.e.E.d.E.D.E.E.D.E.E.d.d.e.D.D.e.D.D.e.E.e.e.d.E.D.D.d.e.E.D.E.e.d.E.D.D.d.d.e.E.d.D.d.d.d.d.d.d.d.e.D.E.D.D.e.E.d.D.d.d.e.E.e.e.E.d.D.d.d.d.d.d.d.d.d.d.e.E.e.d.E.D.D.d.d.e.D.E.E.e.d.D.e.D.D.d.e.E.d.D.d.e.D.D.d.d.d.d.e.D.D.d.d.e.D.E.D.D.d.e.D.D.d.e.D.E.D.D.d.d.e.D.D.e.E.d.D.d.d.d.e.E.d.E.E.d.D.e.D.E.E.e.d.E.E.e.d.E.D.D.d.e.E.E.E.d.D.d.d.d.d.d.d.e.D.D.e.E.a.u.v.E.d.D.e.E.E.D.D.d.e.E.d.D.d.d.e.E.d.D.d.d.e.E.e.d.D.d.d.d.d.d.d.d.e.E.e.d.D.e.E.e.e.d.D.e.E.a.v.v.e.e.d.D.e.D.D.d.d.d.d.d.e.D.D.e.E.D.D.e.E.e.e.d.D.d.d.d.d.d.d.d.d.e.D.E.D.D.d.d.e.E.D.E.E.d.D.d.d.d.e.E.e.d.D.d.d.d.d.e.E.e.d.E.D.D.e.E.d.E.D.E.E.d.D.e.D.D.d.d.d.e.D.D.d.d.d.d.d.d.d.e.D.A.v.v.e.e.e.d.D.d.d.d.e.D.E.D.E.D.D.d.d.e.D.D.d.e.E.e.d.D.d.d.d.d.d.d.d.e.E.d.E.D.D.d.e.D.D.d.d.e.D.D.d.e.E.d.D.d.d.d.d.e.D.D.d.e.D.D.d.e.D.E.D.D.d.d.e.u,u.d.e.D.E.D.D.e.D.D.d.d.d.d.d.d.d.d.d.d.d.e.D.E.E.d.D.e.E.d.D.e.D.D.e.E.D.E.E.d.E.D.E.D.D.e.E.d.E.D.D.e.D.D.d.d.e.D.D.d.e.E.d.D.d.d.d.d.d.D.A.v.v.e.D.d.d.d.d.d.d.e.D.D.e.D.E.E.d.E.E.d.E.D.D.e.D.E.E.d.D.e.D.D.e.E.d.V*V.v.E.D.e.E.e.E.e.e.E.E.d.e.E.d.e.d.E.d.d.e.D.E.D.D.d.e.D.E.D.D.e.E.d.E.d.e.D.E.E.d.D.d.e.a.v.u.D.d.d.d.d.d.d.d.e.E.D.d.d.d.e.e.D.D.d.e.D.D.d.e.e.d.e.d.e.e.d.d.e.E.E.d.e.E.e.e.E.E.D.E.E.d.D.d.d.e.D.E.e.D.E.D.D.e.D.D.d.d.e.D.E.E.d.D.e.b.u.v.D.E.d.d.e.D.E.D.E.E.d.D.d.a.u.v.D.D.e.E.e.d.E.E.E.E.e.E.E.d.E.D.D.e.E.D.d.e.E.D.e.D.D.e.D.D.d.d.d.d.d.d.e.E.D.d.e.D.E.E.D.D.d.d.d.d.d.a.v.u.E.D.D.d.d.e.e.e.d.d.d.d.e.E.d.E.e.D.D.d.d.e.d.d.d.d.d.d.e.e.d.d.d.d.d.d.e.D.D.d.d.e.d.e.e.D.D.d.d.e.d.e.D.D.d.d.d.d.d.d.d.e.d.d.d.e.D.D.d.d.d.d.e.E.d.e.E.e.d.D.d.d.e.e.d.e.E.e.d.E.d.d.d.d.e.E.d.E.D.D.e.E.D.d.d.e.d.e.d.e.d.e.d.e.E.e.E.d.e.E.E.e.e.e.d.E.e.D.E.d.a.v.u.E.D.D.e.E.e.d.D.e.D.D.a.u.u.d.d.d.d.e.D.D.e.D.D.d.e.D.E.E.d.D.d.d.d.d.e.E.d.E.E.d.E.D.D.e.D.D.d.d.d.d.d.e.D.D.e.d.d.d.d.e.D.E.E.e.a.v.u.e.D.E.E.d.D.e.D.D.d.d.e.d.e.A.v.u.D.d.d.d.d.d.e.d.d.e.d.d.d.e.E.e.D.e.E.d.E.e.e.e.D.D.e.D.D.e.E.D.e.D.E.D.D.e.D.D.e.D.D.d.e.E.E.E.D.d.e.E.d.D.d.e.E.D.e.D.D.e.e.E.e.e.d.E.D.A.r.u.u.d.d.d.e.d.d.d.d.d.e.E.d.E.d.d.d.d.e.e.E.D.E.D.E.D.E.D.E.D.D.d.d.d.d.e.D.D.e.e.e.d.e.e.E.e.d.E.e.d.d.d.e.E.E.d.u.u.e.D.D.e.D.E.D.D.e.E.e.E.a.v.v.d.d.e.D.E.e.e.E.d.D.e.E.d.E.E.d.E.D.E.d.d.e.D.E.d.e.d.d.d.e.D.D.e.d.d.e.D.E.e.D.D.e.D.E.E.d.E.D.D.d.e.e.e.E.e.E.e.d.e.e.E.e.D.E.e.D.D.d.a.v.v.D.D.d.d.d.d.d.e.d.d.d.e.E.D.d.e.e.e.e.e.e.e.d.d.d.e.d.d.d.a.u.v.d.d.d.d.d.e.E.E.e.D.D.e.E.E.d.d.e.e.e.d.d.e.e.e.E.e.D.d.e.d.d.e.D.E.E.E.E.D.a.u.v.e.D.E.E.D.d.d.d.d.d.e.d.e.d.d.d.d.e.d.d.d.d.d.e.d.e.D.E.D.E.D.E.E.d.E.E.D.e.d.d.e.d.e.e.D.E.E.d.D.e.e.E.E.d.a.u.u.d.d.e.e.d.e.d.d.d.d.d.a.v.u.e.D.D.e.E.d.D.e.e.d.e.D.D.d.e.a.v.u.e.E.e.e.e.e.e.e.e.d.e.e.e.e.e.d.e.D.E.e.D.D.e.e.e.e.E.d.D.e.e.e.d.e.e.d.e.E.e.E.d.e.e.E.E.D.E.E.D.e.E.a.r.d.v.D.E.E.E.e.d.E.d.e.e.E.D.d.e.D.E.D.D.e.E.D.e.d.e.e.e.e.e.E.E.e.e.D.e.E.e.E.e.e.e.d.E.e.d.e.d.d.e.e.d.e.D.D.d.d.e.d.e.e.e.d.e.E.E.d.e.D.D.a.r.e.u.e.E.E.e.d.d.e.E.D.e.D.D.d.e.D.D.d.d.d.d.d.e.D.D.e.E.E.d.d.d.d.e.e.d.e.D.D.d.e.E.e.D.D.d.e.d.d.e.e.d.d.d.d.d.d.d.d.d.e.D.E.e.E.D.e.E.E.E.D.d.e.D.D.d.d.d.d.d.d.e.d.d.d.d.e.E.d.V*U.u.E.D.E.D.E.D.E.E.e.e.e.D.e.d.e.d.d.d.d.d.d.e.d.d.d.e.E.E.D.E.E.D.e.D.E.E.e.d.D.e.E.D.e.E.E.E.d.E.d.d.d.e.e.D.D.e.e.a.v.u.D.d.e.D.E.D.E.E.e.d.D.e.d.e.d.d.e.d.e.e.E.D.e.e.D.E.d.e.D.D.d.e.D.D.d.d.d.d.e.d.e.D.E.d.e.E.d.E.e.e.D.D.d.e.E.E.d.d.e.E.E.E.D.d.d.e.e.e.D.D.a.u.u.e.D.E.d.e.E.D.d.d.e.E.D.e.e.d.e.D.D.d.d.d.d.d.e.E.d.D.d.e.E.D.d.d.e.e.e.d.e.d.d.e.D.D.d.e.d.e.E.E.d.e.E.d.e.E.D.E.D.D.e.d.d.e.E.e.E.e.d.e.D.E.E.D.E.E.d.e.E.E.d.d.e.E.E.e.d.e.E.E.e.e.e.a.v.u.d.e.E.E.E.e.e.e.e.e.d.E.E.D.D.e.d.e.E.d.e.E.e.E.e.d.e.E.d.e.D.D.e.e.e.e.E.e.E.d.E.d.d.e.E.D.A.v.v.e.E.E.d.e.D.E.d.d.e.d.d.d.d.e.e.e.d.E.D.E.d.e.E.e.E.E.E.e.d.e.E.E.E.D.E.d.e.e.e.E.e.e.E.E.E.E.e.E.E.e.e.e.e.E.e.E.E.E.e.e.e.e.d.e.D.D.e.a.s.v.v.E.e.e.E.E.E.E.E.e.E.e.e.D.E.e.E.D.e.e.e.e.E.E.d.D.d.e.a.v.u.E.E.E.e.E.D.e.d.e.d.e.E.E.E.d.D.d.e.E.D.e.d.d.d.e.D.D.e.D.E.e.E.E.E.d.E.E.A.u.u.e.D.E.E.e.e.e.e.e.d.E.E.D.e.D.E.D.D.d.d.e.E.e.E.e.e.d.e.e.e.D.E.D.D.d.d.e.E.D.e.E.E.e.D.D.d.e.d.d.e.e.E.e.d.D.d.e.D.E.e.d.e.D.E.e.D.E.d.a.r.D.v.E.E.E.d.E.D.E.D.D.d.e.E.E.D.e.D.D.e.D.A.u.v.d.D.d.e.d.d.d.e.d.d.e.e.D.E.D.D.e.e.D.D.e.D.D.e.d.d.e.D.D.e.d.d.d.d.d.e.d.d.d.e.E.e.d.E.d.e.d.a.v.u.e.D.D.d.e.d.d.e.d.e.d.d.d.e.E.d.E.E.e.E.e.d.E.D.D.e.e.d.d.e.D.E.e.e.E.E.E.D.d.d.d.d.e.E.D.d.d.d.d.d.d.d.d.e.D.E.D.D.d.e.D.E.E.D.D.e.d.e.A.r.u.v.d.d.e.E.d.E.d.d.e.D.E.e.E.E.e.D.e.D.E.d.e.E.d.D.d.d.e.E.D.D.d.e.d.e.E.E.e.d.e.D.D.d.e.E.e.e.d.E.E.E.E.e.E.D.E.E.e.E.E.E.e.E.E.D.d.e.e.A.v.u.D.e.E.e.D.a.v.v.D.E.E.d.D.e.D.D.d.e.d.e.d.e.E.E.e.e.D.E.d.d.d.e.e.E.E.E.D.d.d.e.E.e.e.E.D.D.d.d.e.E.d.D.d.d.d.d.e.D.E.D.E.d.d.d.e.D.D.d.d.a.r.e.u.D.d.e.E.D.d.e.D.D.e.E.d.E.E.e.e.E.d.e.D.D.E.D.E.D.E.E.E.D.e.E.e.E.d.e.E.e.e.E.D.E.D.A.v.u.E.D.E.E.E.D.D.e.D.E.D.E.E.D.E.e.e.D.D.e.D.A.u.u.e.d.e.D.D.d.e.E.E.d.e.D.E.E.d.E.D.E.D.E.d.e.D.E.d.d.e.E.d.D.d.d.d.e.D.E.d.e.E.E.e.e.D.E.E.e.e.D.d.d.d.d.d.e.E.D.d.e.E.e.d.E.E.e.D.A.u.u.d.a.v.v.d.E.d.d.d.e.e.e.D.D.d.e.d.d.d.d.e.d.E.E.E.e.E.E.E.d.D.e.d.d.e.E.D.e.D.D.d.d.d.d.d.e.D.E.d.d.d.e.D.D.d.d.d.d.d.e.d.d.d.e.E.D.e.E.E.D.e.e.E.D.e.a.v.v.E.d.D.d.e.D.V*U.v.D.D.e.E.e.e.E.e.e.E.E.e.E.d.E.a.v.v.D.e.E.E.D.e.E.D.E.D.E.D.E.e.D.E.e.E.E.E.e.D.e.E.e.D.E.e.d.E.E.e.e.D.E.E.e.e.e.a.v.v.e.e.E.E.E.e.E.e.E.e.E.d.E.D.E.d.e.E.E.d.E.E.E.e.E.E.D.E.E.e.d.E.E.D.E.e.e.E.e.E.e.d.E.E.E.d.E.E.E.D.E.E.D.e.e.e.D.E.E.E.D.E.E.E.E.E.E.b.v.v.e.d.E.E.A.v.v.E.d.E.d.E.E.D.E.E.e.E.e.D.E.E.e.D.e.E.D.a.v.v.E.e.e.e.E.D.D.d.e.D.E.E.e.d.E.E.e.e.E.E.E.E.e.e.d.e.E.v.v.E.e.d.e.E.e.e.E.d.E.D.E.E.d.E.D.e.E.E.e.e.e.d.E.E.e.e.e.E.e.D.D.e.D.E.E.A.v.v.E.E.E.e.e.E.E.E.E.e.e.d.e.E.e.e.E.e.D.E.E.E.E.E.e.e.d.D.e.E.E.D.E.e.D.E.E.e.e.e.e.e.d.d.e.E.d.E.D.E.D.E.E.E.E.e.d.E.E.d.E.e.E.e.e.e.e.D.E.e.E.E.e.E.E.D.e.d.e.E.d.D.e.E.d.E.E.e.e.a.u.v.D.A.u.u.e.E.e.e.e.d.E.D.E.E.A.v.v.e.e.D.D.e.e.e.D.E.E.D.D.e.E.e.e.d.E.E.E.d.D.e.E.E.D.E.D.D.e.E.d.E.e.E.d.D.d.e.E.E.E.e.E.d.D.e.E.e.d.E.e.E.E.E.D.E.E.E.d.E.E.e.d.D.e.E.a.v.v.E.d.e.E.e.E.E.E.D.E.E.E.E.e.d.e.e.E.E.e.e.D.D.e.E.E.e.e.e.e.d.e.e.e.e.D.e.E.d.E.E.e.e.e.e.D.d.d.e.E.e.e.E.A.v.u.e.E.d.D.e.d.d.e.E.e.D.E.u,v.e.e.e.e.e.E.E.d.e.E.E.D.e.E.e.e.e.e.d.E.D.E.D.E.D.E.e.D.E.E.e.D.e.e.E.E.e.e.e.e.D.D.e.D.E.D.D.e.e.e.E.D.d.d.e.A.u.v.E.E.E.E.e.e.E.e.E.a.v.u.E.d.d.e.E.E.E.e.d.d.d.e.E.E.E.E.e.E.e.D.E.D.d.d.e.e.E.e.E.A.v.u.E.E.d.E.E.d.E.d.d.e.E.e.e.E.D.E.E.e.e.e.d.E.E.E.E.E.E.d.E.E.e.D.E.D.D.a.v.v.d.E.E.d.e.E.D.e.D.E.E.e.E.E.E.A.v.v.E.D.D.e.e.d.e.e.E.d.E.e.e.e.e.e.e.d.E.e.d.d.e.d.e.E.e.E.E.e.e.d.E.e.A.v.v.E.E.e.E.A.v.u.D.e.A.v.v.E.D.E.e.e.d.E.E.E.e.e.E.E.D.E.E.E.E.E.e.e.e.d.D.e.E.D.D.e.E.e.E.E.d.d.e.E.D.D.d.e.D.D.e.E.E.D.E.e.d.e.E.D.D.e.d.e.E.e.e.E.e.d.E.D.D.d.e.E.E.e.E.D.E.E.D.E.D.E.E.E.E.d.E.E.e.e.D.E.E.e.e.d.d.e.e.e.d.D.e.e.e.e.e.D.E.d.e.e.E.E.e.e.d.E.E.d.D.e.E.d.E.E.e.E.d.E.D.E.e.D.D.e.D.E.E.e.d.D.e.a.v.v.d.E.E.d.E.e.E.E.e.e.E.E.E.D.E.E.e.e.E.E.e.E.D.E.E.E.e.D.E.d.e.D.E.E.e.E.E.E.E.D.e.E.E.D.D.e.E.D.E.D.E.E.d.E.E.d.D.e.E.e.E.E.E.E.E.E.u,v.E.e.e.e.E.E.E.E.e.E.E.E.D.v.D.D.e.D.E.E.E.e.E.E.e.E.E.e.E.e.e.E.e.D.E.D.E.A.v.v.E.a.v.v.E.E.e.e.E.E.D.e.E.e.d.E.e.E.E.E.D.D.e.E.A.u.v.D.A.v.u.e.E.E.E.A.v.v.e.E.e.E.E.E.d.D.d.d.e.E.e.d.E.E.e.e.e.a.v.v.e.D.d.V*V.U.E.e.E.E.D.D.e.D.E.e.v.v.e.e.E.d.E.A.v.v.e.e.e.e.e.E.D.D.e.E.E.e.E.D.E.D.E.d.D.e.D.E.e.E.e.e.e.e.D.E.E.E.e.E.E.e.e.E.E.E.E.E.D.e.E.A.v.v.D.E.d.e.E.e.e.e.e.D.d.e.e.e.e.e.e.E.E.D.e.d.e.E.u,u.d.e.E.D.E.E.E.e.E.E.e.a.v.v.E.e.E.e.E.E.E.E.E.e.e.E.d.e.E.E.E.E.d.E.E.e.E.e.D.D.e.e.E.e.e.E.E.d.D.e.E.E.d.E.E.e.e.E.E.E.D.E.e.E.A.v.v.e.d.E.e.E.e.E.E.e.d.E.D.e.E.E.E.E.E.E.e.e.e.E.E.e.E.E.d.E.e.E.E.d.D.d.d.e.E.e.E.e.e.e.e.D.E.E.E.E.d.D.e.E.e.E.E.E.e.E.e.e.e.e.E.D.E.e.A.v.v.e.E.E.E.e.E.E.E.E.e.e.e.E.e.e.E.e.e.e.e.E.E.e.E.e.E.e.e.e.E.e.E.e.E.E.E.e.e.E.E.e.e.E.E.E.D.E.e.E.D.E.E.E.E.e.e.E.E.D.D.e.A.u.v.v,v.e.D.E.E.e.e.e.e.E.E.E.e.e.d.E.E.E.E.e.D.E.e.e.D.E.E.e.E.D.e.E.D.E.E.d.E.E.E.E.E.E.E.E.E.e.E.e.E.E.e.e.e.E.E.D.E.E.E.e.e.e.e.E.A.u.v.B.v.u.e.D.E.D.E.E.e.e.E.E.e.E.e.D.e.D.E.D.D.e.a.v.u.E.E.e.d.E.D.E.E.e.e.e.D.e.e.E.E.E.E.E.E.e.e.d.D.e.e.e.e.d.E.E.e.E.E.e.e.e.d.E.E.E.E.e.e.A.v.v.D.E.E.e.E.E.E.E.a.u.v.E.E.e.e.a.u.v.E.E.e.E.E.e.e.e.E.e.E.D.E.E.e.E.d.E.E.E.e.e.e.e.d.D.e.D.E.E.E.e.D.E.e.e.e.D.d.d.d.e.E.e.e.e.E.e.e.e.E.E.e.D.E.E.e.d.e.E.e.e.e.E.D.D.e.E.E.E.e.e.e.e.e.e.e.e.A.v.v.E.D.e.A.v.v.E.e.E.D.A.v.v.E.e.d.e.E.D.D.e.E.E.e.e.E.E.D.E.E.E.e.E.e.a.v.u.e.E.E.E.E.e.e.d.E.E.e.d.e.E.E.e.D.e.E.e.d.E.E.E.E.E.E.e.e.E.e.E.e.e.E.E.e.e.E.e.D.E.E.D.D.e.E.E.e.e.e.E.e.d.E.E.E.E.D.E.D.E.E.E.e.E.v,u.D.e.E.e.E.e.E.e.e.e.e.e.e.e.E.e.E.E.E.e.E.e.E.D.E.D.E.E.e.E.D.E.E.E.e.d.E.E.E.e.E.e.D.E.D.E.E.e.D.E.e.E.e.E.D.E.E.E.E.e.E.e.e.a.v.v.d.E.E.e.E.E.E.E.E.E.a.v.v.E.e.e.E.e.e.E.E.E.e.E.E.e.e.E.E.E.e.E.E.E.e.e.E.e.E.e.e.e.e.E.e.e.E.E.E.E.e.E.e.e.e.e.e.E.e.e.e.E.D.E.E.e.v,v.e.E.E.E.D.D.a.v.v.e.D.E.E.e.E.E.D.E.E.e.e.e.d.E.E.E.e.e.E.E.e.D.E.E.d.A.v.v.e.E.E.E.e.E.E.e.D.E.E.E.E.e.D.E.E.e.E.e.e.e.e.e.A.v.u.E.E.D.a.u.u.e.E.E.A.v.u.E.E.e.e.E.d.E.E.E.e.e.e.e.e.E.e.E.e.e.E.E.E.e.d.D.e.E.e.D.E.A.v.v.E.e.d.E.E.E.E.e.E.E.e.e.d.E.E.e.e.e.e.E.v,v.E.e.E.E.E.e.E.E.E.e.E.E.E.e.D.E.E.E.E.E.E.e.e.E.E.E.E.e.e.e.E.E.e.e.d.E.E.e.E.e.D.E.E.e.E.E.D.E.E.e.e.e.E.e.E.e.e.e.e.e.E.E.e.e.v,v.E.e.e.E.E.E.e.e.e.e.E.e.E.E.e.E.e.e.E.e.d.E.E.e.e.E.E.V*V.V.E.E.E.e.d.E.E.E.E.E.E.E.e.E.D.E.E.e.E.e.E.E.D.E.d.E.E.E.D.D.e.E.E.E.e.A.r.v.v.e.E.D.E.E.e.e.E.E.E.D.e.E.e.e.e.A.v.v.E.E.E.E.E.e.E.D.E.e.e.e.e.e.E.e.e.e.e.d.E.D.E.E.e.E.E.E.e.A.v.v.d.E.D.E.e.e.e.e.e.E.E.e.a.v.v.A.v.v.E.e.E.e.e.e.e.e.e.E.v.e.e.D.E.E.e.A.v.u.E.D.E.D.E.E.E.E.v.E.E.E.E.e.E.E.D.E.E.e.v.E.E.v.e.e.E.E.D.E.E.e.E.D.E.E.D.E.E.u,v.E.E.e.e.e.e.E.E.D.E.E.A.v.u.E.E.e.E.E.E.E.D.e.E.E.e.E.E.E.e.e.d.E.e.E.D.E.E.v.E.E.E.e.e.e.E.E.E.E.E.E.E.e.e.E.e.d.E.d.e.e.E.v,v.e.E.E.E.E.e.E.e.e.E.e.E.e.e.e.e.E.e.e.E.d.E.e.E.e.e.E.E.E.e.E.E.E.E.E.d.E.E.d.E.E.e.E.E.e.E.e.e.E.e.E.v.E.d.E.e.d.E.e.v.E.E.E.v,u.D.e.d.e.E.E.v.E.u.v.E.E.E.D.E.e.E.E.D.E.E.v.E.E.D.E.E.a.v.v.e.e.E.e.e.E.v.E.v.e.e.e.E.e.e.e.e.E.v.E.E.e.e.D.e.E.E.e.e.v,v.E.d.D.e.E.d.E.E.d.D.e.E.e.e.E.v.E.v.v.e.e.d.E.E.e.E.d.D.e.E.e.E.v.E.v.E.E.E.e.e.e.D.e.E.e.e.v.E.E.u.E.D.E.E.D.d.e.e.E.e.v,u.v.e.e.E.D.d.e.E.E.D.e.D.E.E.e.E.E.e.E.E.e.e.E.E.e.e.E.E.e.E.E.e.e.E.e.e.E.E.e.D.E.D.D.e.E.e.e.E.D.E.e.e.e.E.d.E.E.E.E.E.e.E.E.e.a.u.v.E.e.D.E.E.D.e.e.e.E.E.E.d.E.v.E.E.e.D.E.e.E.D.e.e.e.E.e.E.e.D.E.E.d.E.D.D.e.E.e.d.E.E.E.e.e.E.E.e.E.E.E.E.A.v.v.E.E.E.E.E.e.E.E.v,v.E.E.e.E.e.E.E.E.e.E.E.E.E.E.e.E.e.D.E.e.e.E.E.e.D.E.E.e.E.E.e.E.E.e.D.e.E.E.e.E.e.E.e.e.E.e.E.e.E.e.E.E.E.E.e.e.E.E.E.a.v.v.u,v.E.e.e.e.E.E.e.e.e.E.E.E.e.e.e.e.E.E.E.E.e.e.E.e.E.E.D.E.E.D.e.E.e.E.E.E.e.E.e.E.e.E.E.E.e.A.v.u.E.E.E.e.e.e.e.E.e.E.e.d.e.A.u.v.E.e.e.E.E.E.E.E.D.E.e.E.E.E.v.E.E.e.e.e.E.E.d.E.d.e.e.e.d.e.E.e.E.E.E.E.E.e.E.D.E.E.E.E.E.e.d.E.E.E.E.r.v.v.d.D.e.E.e.e.D.D.e.A.v.u,v.E.e.E.e.E.e.e.E.e.d.d.d.e.v.v.v.E.d.e.E.E.E.e.a.u.v.E.E.E.E.D.e.e.e.e.E.E.D.e.e.e.E.E.D.E.a.v.E.E.E.E.E.d.E.E.E.E.E.E.E.E.b.v.v.E.E.D.D.e.E.e.e.E.v.e.v.d.D.d.d.e.E.E.d.E.E.v.E.E.v.D.e.e.E.D.E.D.E.E.v.v.v.D.e.E.D.d.d.d.e.E.v.E.E.e.E.D.D.d.d.d.d.e.E.A.v.u.v.E.d.D.d.d.e.D.D.d.e.E.v.E.E.v.D.D.d.d.e.E.d.D.d.e.D.D.d.d.d.d.u.u.d.e.D.E.E.E.E.e.E.e.e.D.D.e.E.e.E.D.E.D.D.e.e.d.D.e.E.d.E.E.e.A.r.d.v.D.E.D.E.E.e.E.e.d.D.e.D.E.E.E.E.E.D.D.e.E.e.e.v.E.E.E.e.d.E.D.E.E.v.E.D.D.d.d.e.E.e.e.e.v.E.v.v.E.d.E.E.d.E.V*V.v.A.v.v.e.e.e.e.E.a.v,v.v.e.e.E.e.e.E.e.E.v.E.v.e.E.e.e.e.E.e.E.E.e.E.v.E.E.v.e.E.E.E.E.e.E.E.E.E.E.E.e.e.e.e.e.e.e.E.E.E.v.E.e.E.E.e.E.v.r.E.v.E.E.E.E.E.E.e.E.v.v.E.v.E.e.E.E.e.e.e.E.E.e.e.v.v.v.v.e.e.e.E.E.E.E.e.e.v.e.v.E.E.E.e.e.e.e.e.e.v.v.E.v.e.e.e.E.e.E.v,v.v.v.e.E.E.E.e.E.E.v.e.v.e.e.E.e.e.e.e.E.v.E.E.v.E.e.E.e.e.e.E.E.E.E.v.e.E.e.e.e.E.e.e.v.E.E.v.E.E.E.e.E.v.A.A.e.v.E.e.E.E.e.e.E.v.E.v.e.e.E.e.e.e.E.e.E.v.E.E.v.E.e.E.E.E.E.E.e.E.E.v.E.e.v.e.e.e.E.E.E.E.E.E.E.E.v.e.e.E.E.e.e.E.e.v,v.v.E.e.e.E.e.e.e.E.E.e.E.E.E.v.E.v.E.E.e.E.E.E.E.v.E.v.e.E.e.e.e.e.e.e.E.v.E.v.E.e.E.e.E.e.v.v.E.E.E.E.E.v.E.E.A.r.v.v.E.e.e.e.e.v.v.v.v.v.v.E.e.e.e.e.E.E.E.v.v.v.E.e.e.E.e.E.E.E.E.E.e.e.v.E.e.v.e.e.E.E.E.e.e.E.e.e.e.e.e.e.e.e.r.v.v.v.E.E.E.E.E.e.E.e.e.E.E.v.e.E.v.E.E.E.E.v.e.e.e.e.e.E.E.E.v.e.v.E.e.e.E.e.E.E.v.E.v.E.e.e.E.E.e.e.e.E.v.E.v.E.e.e.b.v.v.E.E.v.E.E.v.e.e.e.e.e.e.E.E.e.E.e.e.E.E.E.E.e.E.E.e.e.E.E.e.e.e.e.e.E.E.e.E.E.e.e.e.e.e.e.e.E.E.E.E.e.e.e.v.E.v.v.e.E.a.r.v.v.e.e.e.E.E.e.E.E.E.e.E.e.E.E.e.E.e.e.e.e.E.E.e.E.E.E.e.E.e.e.E.E.E.E.e.E.e.E.E.E.e.e.e.E.E.E.E.e.e.e.E.E.e.E.E.E.E.E.e.e.a.r.E.v.v.E.e.E.e.E.e.E.E.e.E.E.E.E.e.e.e.e.e.E.e.E.e.e.E.E.E.E.e.E.e.E.e.E.E.E.e.e.E.e.e.E.E.e.E.E.v.E.E.E.e.e.e.e.E.E.E.e.e.A.v.v.e.e.E.e.e.E.e.e.E.E.E.E.E.E.E.E.e.e.e.E.E.e.E.E.e.e.E.E.e.E.e.E.E.E.D.D.e.D.D.e.D.E.E.e.E.E.D.E.E.e.e.e.E.D.D.e.D.E.E.E.e.A.r.E.v.e.d.E.D.E.D.E.v.v.e.u.D.e.E.e.E.D.E.v.E.E.u.E.E.E.E.E.E.e.v.E.v.D.E.E.d.E.E.d.D.e.E.e.v.E.v.v.d.D.d.d.e.E.e.E.v.e.u.E.a.u.u.e.E.E.v.d.u.d.d.d.d.e.E.e.e.E.v.u.v.D.E.E.E.E.d.D.e.E.d.E.D.D.d.d.e.D.E.D.E.D.D.e.D.D.e.D.D.e.E.d.E.D.D.d.d.d.d.e.D.D.e.E.e.d.D.d.d.d.d.e.E.e.e.e.D.e.e.d.d.e.D.D.d.d.d.d.d.d.e.e.e.e.e.D.D.d.d.d.e.D.D.e.E.E.E.D.e.D.D.d.d.e.e.D.D.e.D.E.E.d.D.d.d.d.d.d.d.d.d.d.e.d.D.d.e.e.e.e.D.D.e.D.A.u.u.d.e.E.d.E.E.d.D.d.e.E.E.e.d.E.e.E.E.e.E.d.E.d.D.e.D.D.e.E.E.e.e.D.D.e.E.D.E.d.e.e.E.E.e.e.e.d.e.E.d.E.e.D.E.D.D.e.E.E.E.d.E.e.E.e.d.E.E.v,u.E.E.e.E.e.D.E.e.e.E.e.d.E.E.E.e.d.E.E.d.E.e.e.d.E.d.e.D.D.e.E.e.d.E.E.d.D.e.D.D.e.D.e.A.u.V*U.v.D.D.d.d.d.e.E.e.e.e.e.e.D.E.D.E.E.e.e.e.a.v.u.e.E.e.e.e.D.E.E.E.E.E.D.e.D.e.d.D.e.E.E.e.d.e.d.e.e.e.e.e.E.E.E.E.D.E.D.e.D.E.E.e.d.d.d.e.E.E.e.a.u.v.e.D.D.e.D.E.d.e.d.e.e.d.e.E.d.A.v.u.E.e.e.e.D.D.e.E.d.E.E.d.E.E.E.e.E.e.e.d.D.e.E.D.E.E.D.E.d.e.e.e.e.e.E.e.E.e.e.d.d.e.e.e.E.d.D.d.e.e.e.e.E.e.e.e.d.E.E.E.d.E.D.D.e.D.E.e.e.e.e.e.d.e.D.E.E.d.D.d.e.E.e.d.E.E.e.e.d.d.d.d.e.E.E.e.d.e.D.E.E.D.E.E.e.E.D.D.e.d.d.d.e.E.d.E.E.D.d.e.d.e.D.D.e.D.E.E.d.D.e.E.e.d.D.d.e.e.e.E.E.d.D.a.v.u.D.d.e.E.E.e.e.e.D.e.D.E.E.d.E.D.D.e.E.E.E.E.E.e.e.E.E.e.d.E.E.e.E.d.E.e.d.E.e.E.E.D.E.E.E.E.E.E.E.e.E.v.E.E.E.E.e.E.E.E.E.E.e.e.a.v.u.E.D.E.E.e.e.E.E.E.E.e.e.e.E.e.E.e.E.E.E.E.e.e.d.d.d.d.e.d.d.e.D.E.e.E.E.D.D.e.e.E.E.e.e.D.E.D.E.d.d.d.d.e.E.e.a.v.v.e.E.D.E.e.d.e.E.b.u.v.e.D.D.d.d.d.d.d.e.E.d.E.E.d.d.e.e.D.E.e.E.e.d.E.E.e.D.d.e.E.e.D.E.D.E.e.e.E.e.D.e.E.E.E.D.e.D.D.d.e.D.E.v.E.D.E.E.D.D.e.E.d.E.E.E.d.E.D.E.e.E.E.e.D.E.D.E.D.D.d.d.e.E.d.E.E.E.e.e.E.e.e.e.e.e.d.e.E.e.E.e.e.e.e.e.D.E.D.D.d.d.e.D.D.e.E.e.E.d.D.d.e.E.d.D.e.E.e.E.d.D.e.E.E.E.D.E.E.e.E.e.e.D.E.e.e.D.D.d.e.E.E.E.e.E.E.E.e.E.E.e.E.E.E.E.e.E.E.D.E.E.d.D.d.e.E.e.d.D.e.D.E.E.e.D.D.e.E.d.D.e.E.E.D.D.e.E.E.e.e.D.D.e.E.d.D.e.E.D.D.e.E.a.v.u.E.E.E.D.u.e.E.E.e.e.e.e.d.E.E.E.d.D.e.E.d.D.e.D.E.E.e.e.e.e.E.E.E.D.E.D.E.D.E.E.e.E.D.D.e.A.v.v.E.D.E.D.D.e.D.D.d.d.d.d.d.e.e.e.e.e.a.u.u.e.E.e.e.e.e.E.E.D.E.E.e.E.D.E.d.a.u.v.E.e.e.E.d.E.D.E.D.E.E.e.e.e.D.E.D.D.d.e.D.E.E.e.e.e.d.D.e.E.e.d.D.e.D.e.E.e.e.d.D.d.d.e.d.E.D.E.E.A.u.r.u.v.E.e.d.E.E.E.d.d.d.d.e.D.E.E.e.e.d.E.E.D.E.E.d.E.D.E.D.E.D.E.E.e.e.e.E.d.D.e.E.e.e.e.E.E.E.d.e.E.D.d.d.e.E.E.d.E.D.D.e.D.E.D.E.D.E.E.E.A.u.u.e.D.E.E.E.E.D.E.E.D.E.D.E.E.e.E.d.e.E.E.E.d.E.E.e.E.d.E.E.d.E.E.d.D.e.e.e.e.E.E.e.d.D.e.E.d.D.e.D.E.E.e.E.e.D.E.E.E.e.D.E.E.E.e.D.E.e.e.D.D.e.E.e.e.e.d.E.D.E.E.d.E.e.E.d.E.D.E.E.d.e.E.E.e.e.d.D.e.E.D.E.E.e.e.E.e.E.e.D.E.E.d.D.e.E.d.D.e.E.d.e.e.d.d.e.E.d.d.e.E.e.d.D.d.d.d.d.e.D.E.E.a.v.u.E.E.d.D.e.D.D.e.E.d.E.E.E.e.d.D.e.E.D.D.e.e.d.E.D.E.E.e.e.D.D.e.E.E.d.D.d.e.D.E.E.E.d.D.d.e.D.D.e.E.d.E.D.D.V*U.v.D.E.E.D.d.e.D.D.a.v.u.D.d.e.D.D.e.D.D.d.d.d.e.D.D.d.e.E.d.D.d.e.D.E.D.D.d.d.e.E.e.d.D.e.D.E.e.d.d.d.d.d.e.E.e.d.D.d.d.d.d.d.d.d.d.d.d.d.d.d.d.d.d.d.d.d.e.D.D.e.E.d.a.r.e.v.d.D.e.E.d.D.d.d.d.d.d.d.d.d.d.e.D.D.e.A.u.v.D.E.D.E.E.d.D.e.D.D.d.d.d.e.D.D.e.E.d.D.d.d.d.d.d.d.d.d.d.e.D.D.d.d.d.d.d.e.D.E.D.E.D.D.e.D.D.e.e.d.D.d.e.E.D.e.E.e.d.D.d.e.D.E.E.d.D.d.e.E.E.e.D.D.d.d.d.e.e.e.e.D.E.A.u.v.D.E.e.d.e.e.D.D.d.d.d.e.D.D.d.d.d.d.d.d.d.d.e.D.E.D.E.D.D.d.d.e.D.E.a.u.u.d.e.D.D.e.E.d.D.d.d.d.d.d.d.e.D.D.d.e.d.e.D.D.e.D.D.e.D.D.d.d.d.e.e.e.E.E.D.E.D.d.e.D.D.e.d.d.e.D.D.d.d.d.d.e.d.e.E.e.D.e.d.d.e.E.e.e.e.D.E.e.a.u.v.e.e.E.E.E.E.E.d.E.D.D.d.e.D.E.d.d.e.e.E.D.e.E.d.E.D.E.d.e.d.e.e.e.D.E.D.D.e.D.E.D.D.e.E.D.e.E.D.E.D.E.E.d.e.E.E.E.E.e.e.D.e.d.e.D.D.d.d.a.u.v.e.E.E.e.e.E.e.E.d.D.d.e.E.E.D.E.E.e.E.E.e.e.e.e.E.d.E.E.e.E.e.E.D.E.E.e.e.e.e.E.E.E.d.E.E.e.e.e.d.E.D.E.E.e.e.e.e.e.e.e.E.E.e.E.E.A.v.v.E.e.e.e.e.e.E.D.E.E.e.e.e.E.e.e.E.e.E.E.e.d.E.D.D.d.e.d.e.E.e.E.e.e.e.D.E.e.e.e.E.E.E.d.E.E.e.e.u.u.e.E.D.E.D.E.d.e.E.E.e.d.E.d.e.E.a.v.v.e.D.e.d.e.d.d.e.e.D.E.E.d.D.d.d.d.e.E.d.E.D.E.D.E.E.D.e.D.D.e.E.e.E.D.D.e.E.D.d.e.d.d.e.D.d.e.E.e.d.E.D.D.d.e.E.d.D.e.d.E.D.E.D.E.E.E.E.e.E.b.v.u.E.D.D.e.E.D.E.D.E.E.D.E.E.e.d.E.D.E.E.d.E.D.E.E.D.E.D.E.D.E.E.e.D.D.e.E.e.E.D.e.D.D.e.E.e.D.E.e.E.E.e.D.E.E.d.D.e.d.d.d.e.D.D.d.e.E.A.u.u.d.d.e.E.d.D.d.e.E.E.d.E.D.E.D.E.E.E.e.D.E.E.e.d.e.e.e.d.D.e.E.e.d.D.e.E.E.D.E.E.D.E.E.D.D.d.e.E.E.E.D.e.e.D.E.D.E.D.E.E.d.E.e.e.e.d.D.e.E.E.e.e.d.E.E.e.E.E.e.e.e.D.E.E.d.E.D.D.e.E.D.E.D.E.D.E.D.E.e.e.e.e.e.D.E.E.E.e.E.D.v.v.d.D.e.D.D.e.E.e.d.D.d.e.E.e.D.D.e.E.D.E.D.E.E.e.E.D.e.e.d.E.D.E.E.d.D.e.D.D.e.D.D.d.e.D.E.D.E.A.v.v.D.E.E.d.E.D.D.d.e.E.d.d.d.d.d.e.E.d.E.E.E.E.D.D.e.E.e.d.E.E.E.E.D.D.a.u.v.E.d.E.D.D.d.e.D.D.d.e.E.d.E.D.B.v.v.d.E.E.e.d.E.E.e.e.d.E.d.d.d.d.d.e.E.d.D.d.d.e.D.E.E.d.E.E.E.d.e.d.E.D.E.D.E.E.E.e.d.E.D.E.D.E.D.E.E.d.E.D.E.E.e.e.d.E.E.e.e.e.e.e.d.E.E.d.E.e.e.d.d.d.e.D.E.E.e.d.E.D.E.E.e.e.d.E.d.e.E.e.E.E.E.d.e.e.d.E.E.d.D.e.E.d.D.d.e.E.d.d.e.E.E.E.D.D.e.E.D.D.e.E.E.E.U*U.U.E.D.D.e.D.E.D.D.d.e.D.E.E.u,u.d.d.d.e.D.D.d.d.d.e.D.E.D.D.d.d.d.e.D.E.D.E.D.D.d.d.e.D.e.D.D.d.d.d.d.d.d.d.d.d.e.D.D.d.d.e.D.D.d.e.E.d.D.d.d.d.e.D.D.d.d.d.d.d.d.e.D.E.E.d.E.A.v.u.D.d.d.d.d.d.d.e.D.D.d.d.d.d.d.e.D.E.D.D.d.d.d.d.d.d.d.d.e.D.D.e.D.E.D.E.E.d.D.e.e.E.d.D.e.E.e.d.D.d.d.d.d.d.d.e.D.E.D.E.D.D.e.D.D.e.D.E.E.e.E.e.d.E.E.d.D.d.d.e.E.d.D.d.e.D.D.e.E.e.e.D.E.E.d.D.d.d.d.d.d.d.d.d.d.d.d.d.d.d.d.d.d.d.d.d.d.d.d.d.d.e.E.d.D.d.d.d.d.e.D.D.d.d.d.d.d.d.d.e.D.D.d.d.e.D.E.E.D.D.d.d.d.d.d.e.D.D.d.e.D.D.e.D.D.d.d.d.d.d.e.D.D.d.e.D.D.e.D.D.d.d.d.d.d.d.d.d.d.d.d.d.d.e.D.E.D.E.D.D.d.d.d.d.d.e.D.E.D.E.D.E.D.E.D.E.E.d.D.a.r.d.u.d.d.d.d.d.d.d.d.e.D.E.D.E.D.D.d.d.d.d.d.d.d.d.e.E.e.e.d.D.e.D.D.d.d.d.e.D.E.D.D.e.D.E.D.D.d.d.e.D.E.D.D.d.d.d.e.D.E.E.D.D.d.d.d.d.d.e.D.D.d.d.a.u.v.E.d.D.e.D.E.D.D.d.d.e.D.D.d.d.d.e.D.E.D.D.e.D.D.d.d.e.D.D.d.d.d.d.d.d.d.d.d.e.D.D.d.d.d.d.d.d.d.d.d.e.E.D.D.d.d.e.D.D.d.e.D.E.D.D.e.E.d.E.D.D.e.E.d.E.D.E.D.D.e.D.D.d.d.d.d.e.D.D.a.u.u.e.D.D.d.d.d.d.d.d.d.e.D.D.d.d.d.e.D.D.d.e.D.D.d.d.d.e.E.D.D.d.e.D.D.d.d.d.d.e.E.e.e.e.D.E.D.D.d.e.E.d.E.u.v.D.D.d.d.d.d.e.D.E.D.E.D.D.d.d.d.e.D.E.E.e.e.e.D.E.E.e.E.D.D.e.E.e.E.E.D.E.E.D.E.E.d.E.D.E.E.e.D.E.E.d.D.d.d.d.e.D.D.e.D.D.d.d.d.d.d.d.d.d.d.e.E.D.a.u.u.e.D.D.d.e.D.D.d.d.d.d.d.d.d.d.d.d.d.d.d.e.E.d.D.d.d.d.e.E.d.E.D.D.e.D.D.d.d.d.d.d.d.d.e.D.D.d.d.d.a.v.v.D.D.d.d.e.D.D.d.d.d.d.d.d.d.d.d.d.a.r.u.u.d.e.E.D.D.d.e.E.D.D.d.d.d.d.d.d.d.d.d.d.d.d.e.D.D.e.D.D.e.D.D.e.D.D.d.d.d.d.d.d.e.D.D.e.d.d.e.E.d.D.d.d.d.e.E.d.D.d.d.d.d.d.d.d.d.d.e.D.E.A.r.d.u.d.d.d.d.d.a.u.u.d.d.e.D.D.d.d.d.d.d.d.d.d.d.d.d.d.d.D.D.d.d.d.d.d.d.d.d.d.d.d.d.e.D.D.d.d.d.d.d.e.d.d.d.d.d.d.d.d.d.d.d.d.d.d.d.e.D.D.e.D.E.D.D.e.D.D.d.d.d.d.d.a.v.u.D.d.d.d.e.D.D.d.d.d.d.d.d.d.d.e.D.D.d.d.d.e.E.d.D.d.d.d.d.d.d.d.e.D.D.e.D.D.e.D.D.d.d.d.d.d.d.d.d.d.e.D.D.d.d.d.d.e.D.D.e.d.d.a.v.u.D.d.e.D.D.d.d.e.d.d.d.d.d.d.d.d.d.d.d.d.d.d.d.d.d.d.d.e.D.D.d.d.d.d.d.d.d.d.d.d.d.d.d.d.d.d.d.e.D.D.d.d.d.d.d.d.d.d.d.e.D.D.e.D.E.D.E.D.D.d.d.d.a.u.u.d.d.d.d.d.e.E.d.D.d.d.d.d.d.e.D.D.d.d.e.D.V*U.u.D.d.d.d.d.d.d.d.e.D.D.d.d.d.d.d.d.d.d.d.d.d.d.d.d.d.d.d.d.d.d.e.D.D.e.D.D.d.e.D.E.E.e.e.d.D.e.D.D.e.A.v.v.d.D.d.d.d.d.d.d.d.d.d.d.d.d.d.d.d.d.d.d.d.d.d.d.d.d.d.d.d.d.d.d.d.d.d.d.e.D.D.e.D.E.D.E.D.D.d.d.d.e.D.D.a.u.u.e.D.E.D.D.d.d.d.d.d.d.d.d.e.E.d.D.d.d.d.d.d.d.d.d.d.d.d.d.e.D.D.d.d.e.D.D.d.d.d.d.d.d.d.d.d.d.d.d.e.E.d.D.d.d.d.e.D.D.d.d.d.d.d.d.d.d.d.e.D.D.d.d.e.D.D.d.d.e.D.D.d.d.d.d.d.d.d.d.d.d.d.d.d.a.u.u.d.d.d.e.D.E.D.D.d.d.d.d.d.e.D.D.d.d.d.d.d.d.e.D.D.d.d.d.d.d.d.d.d.d.d.d.d.d.d.d.d.d.d.d.d.d.d.d.d.d.d.d.d.e.D.D.d.d.d.d.d.d.d.d.d.d.d.e.D.D.d.d.a.s.u.u.d.d.d.d.d.d.d.d.e.D.D.d.d.e.D.D.d.d.d.d.d.d.d.d.d.d.d.d.d.d.d.e.D.D.d.d.d.d.d.d.d.d.d.e.D.D.d.d.d.d.d.d.d.d.d.d.d.d.d.d.d.d.d.d.d.d.d.e.D.D.d.e.E.D.E.E.d.D.d.e.D.D.d.d.d.d.d.d.d.e.E.d.D.d.d.d.d.d.d.d.d.d.d.d.d.d.d.e.D.D.d.d.d.d.d.d.d.d.d.d.d.d.d.d.d.d.d.a.v.u.D.e.D.D.e.D.D.d.d.e.D.D.d.d.a.u.v.E.d.E.D.E.D.E.D.D.d.d.d.d.d.d.d.e.D.E.D.D.d.d.e.D.E.D.D.e.D.E.D.E.D.A.u.v.D.D.e.D.D.e.D.D.d.e.D.D.d.e.E.d.E.D.E.D.D.d.d.d.d.e.D.D.d.e.D.D.d.d.d.d.d.e.E.D.D.d.d.d.d.d.a.u.u.d.d.d.d.d.d.e.E.D.D.e.E.d.D.e.D.D.d.d.d.d.e.D.D.e.D.D.d.d.e.D.D.d.d.d.e.D.D.d.d.d.d.d.d.d.d.d.d.d.e.D.D.e.D.D.d.d.d.d.e.D.E.d.d.d.e.E.d.D.d.d.e.D.D.d.e.E.d.E.D.D.e.E.E.d.D.d.d.e.D.D.e.D.D.d.d.d.d.d.d.d.a.u.u.d.d.d.d.d.d.d.d.d.d.d.d.d.d.d.d.d.e.D.D.d.d.d.d.d.d.d.d.d.d.d.d.e.E.E.d.E.E.d.d.e.D.E.D.D.d.d.e.D.D.d.d.d.d.d.d.d.d.d.d.d.e.D.D.d.d.d.d.d.d.d.d.d.d.d.d.d.d.d.d.d.d.d.d.d.d.d.d.d.d.d.d.d.d.d.d.d.d.d.d.d.d.d.d.e.D.D.d.d.e.e.e.d.D.d.d.d.d.d.d.d.d.d.d.d.d.d.d.d.d.d.d.d.d.d.d.d.d.d.a.u.u.d.d.d.d.d.d.d.d.d.d.d.d.d.d.d.d.d.d.d.d.d.e.D.D.d.d.d.d.d.d.d.d.d.d.d.d.d.d.e.D.D.d.d.d.d.d.e.D.D.d.d.d.d.d.e.D.A.u.u.d.d.d.d.d.d.d.d.d.d.d.d.d.d.d.d.d.d.d.d.d.d.d.e.D.D.d.d.e.D.D.d.d.a.u.u.d.d.d.d.d.d.d.d.d.d.d.d.d.d.d.d.d.d.d.e.D.D.d.d.e.E.d.D.D.d.d.d.e.D.D.d.d.d.d.d.d.d.d.d.d.d.d.d.d.d.d.d.d.d.d.d.d.d.d.d.d.d.d.d.d.d.d.d.d.d.d.d.d.d.d.d.d.d.d.d.d.d.d.d.d.d.d.d.d.d.d.d.d.d.d.d.d.d.d.d.d.d.d.d.d.d.d.d.d.d.d.d.d.d.d.d.d.d.d.d.d.d.d.d.d.d.d.d.d.d.d.d.d.d.d.d.d.d.d.d.d.d.d.d.U*U.U.D.d.d.d.d.d.d.d.d.d.d.d.d.d.d.d.d.d.d.d.d.d.d.d.d.d.d.d.d.d.d.d.d.d.d.d.d.d.d.d.d.d.d.d.d.d.d.d.d.d.d.d.d.d.d.d.d.d.d.d.d.d.d.d.d.d.d.d.d.d.d.d.d.d.d.d.d.d.d.d.d.d.d.d.d.d.e.D.D.d.e.D.D.d.d.e.D.D.d.d.d.d.d.d.e.D.D.d.d.d.d.d.d.d.e.D.D.d.e.E.d.D.e.D.E.D.D.d.d.d.d.d.d.d.d.e.D.D.e.D.D.e.E.e.d.D.e.D.E.D.D.d.e.E.d.D.d.d.d.e.E.d.E.D.D.e.D.E.D.D.d.d.d.d.d.d.d.d.d.d.d.e.D.E.D.D.e.D.D.d.e.E.d.D.d.d.d.e.E.D.D.d.d.d.d.d.d.d.d.d.d.d.d.e.D.E.D.D.d.d.d.d.d.d.d.d.d.e.D.D.d.d.d.d.d.d.d.d.e.D.D.d.d.d.e.D.D.d.e.E.D.D.d.d.d.d.d.d.d.d.d.d.d.d.d.d.d.d.d.d.d.d.e.D.D.d.e.D.E.E.e.d.E.D.E.E.E.e.e.d.E.E.e.e.e.d.D.e.E.e.e.d.E.E.E.e.e.D.E.E.e.e.e.d.E.E.e.e.e.d.E.E.e.e.e.d.E.E.e.a.v.u.E.E.d.E.E.d.E.E.e.E.e.d.E.E.E.e.e.d.D.e.E.v.v.d.D.e.E.d.E.D.E.D.D.d.d.d.e.E.e.v.v.D.E.E.e.e.E.A.v.v.e.e.e.D.E.E.e.e.E.d.E.E.E.d.D.d.a.v.u.D.d.d.d.d.d.d.d.d.d.d.d.d.d.d.d.d.d.d.d.d.d.d.d.d.d.d.d.d.d.d.d.d.d.d.d.d.d.d.d.d.d.d.d.d.d.d.d.d.d.d.d.d.d.d.d.d.d.d.d.d.d.d.d.d.d.d.d.d.d.d.d.d.d.e.e.d.D.d.d.d.d.d.d.d.d.d.d.d.d.d.d.d.d.d.d.d.d.d.d.d.d.d.d.d.d.d.d.d.d.d.d.d.d.d.d.d.d.d.d.d.d.d.d.d.d.d.d.d.d.d.d.d.d.d.d.d.d.d.d.d.d.d.d.d.d.d.d.d.d.d.e.e.d.D.d.d.d.d.d.d.d.d.d.d.d.d.d.d.d.d.d.d.d.d.d.d.d.d.d.d.d.d.d.d.d.d.d.d.d.d.d.d.d.d.d.d.d.d.d.d.d.d.d.d.d.d.d.d.d.d.d.d.d.d.d.d.d.d.d.d.d.d.d.d.d.d.e.e.e.d.D.d.d.d.d.d.d.d.d.d.d.d.d.d.d.d.d.d.d.d.d.d.d.d.d.d.d.d.d.d.d.d.d.d.d.d.d.d.d.d.d.d.d.d.d.d.d.d.d.d.d.e.D.D.d.e.D.D.d.d.a.u.u.d.d.d.d.d.d.d.d.d.d.a.v.u.D.d.d.d.d.e.D.D.d.d.d.d.d.d.d.d.d.d.d.d.d.e.D.D.d.d.d.d.d.d.d.d.d.d.d.e.D.D.d.d.d.d.d.d.d.d.d.d.d.d.d.d.d.d.d.d.d.d.d.d.d.d.d.d.d.d.d.d.d.d.d.d.d.d.d.d.d.d.d.d.d.d.d.d.d.d.d.d.d.d.d.d.d.d.d.d.d.d.d.d.d.d.d.d.d.d.e.d.d.d.d.d.d.d.d.d.d.d.d.d.d.d.d.d.d.d.d.d.d.d.d.d.d.d.d.d.d.d.d.d.d.d.d.d.d.d.d.d.D.D.e.e.d.D.d.d.d.d.d.d.d.d.d.d.d.d.d.d.d.d.d.d.d.d.d.d.d.d.d.d.d.d.d.d.d.d.d.d.d.d.d.d.d.d.d.d.d.d.d.d.d.d.d.d.d.d.d.d.d.d.d.d.d.d.d.d.d.d.d.d.d.d.d.d.d.d.a.v.u.d.d.d.d.d.d.d.d.d.d.d.d.d.d.d.d.d.d.d.d.d.d.d.d.d.d.d.d.d.d.d.d.d.d.d.d.d.d.d.d.d.d.d.d.d.d.d.d.d.d.d.d.d.d.d.d.d.d.d.d.d.d.U*U.V.e.d.E.E.d.E.D.D.e.E.E.e.E.D.E.A.r.d.v.D.E.D.D.d.d.d.d.e.E.d.D.d.d.e.D.E.E.d.D.d.e.D.E.A.v.v.D.E.D.D.d.d.e.D.D.d.e.D.E.D.D.d.d.e.E.e.D.D.e.E.e.d.E.D.E.D.E.D.E.D.E.E.e.e.d.D.a.r.e.v.e.d.E.D.D.e.E.d.E.E.e.D.E.D.D.e.E.a.u.u.d.e.D.E.D.D.d.e.D.D.e.D.E.E.E.d.E.D.E.D.E.E.E.d.E.D.D.e.E.d.D.d.e.E.e.d.E.E.E.d.D.d.e.E.e.d.D.e.B.v.v.E.e.d.E.E.D.D.d.d.e.D.D.e.D.D.e.E.E.d.E.D.E.D.D.d.d.d.d.d.e.E.d.D.e.D.E.D.E.A.v.v.e.d.E.D.D.e.D.E.D.D.d.d.e.D.e.D.E.D.E.E.E.d.D.e.D.E.A.v.v.e.E.E.e.d.E.D.E.D.E.D.E.E.E.e.D.D.d.e.E.d.D.d.e.D.D.d.d.d.e.D.D.d.e.D.E.D.D.d.e.D.D.e.D.E.D.D.e.D.D.d.d.d.e.D.E.E.E.D.E.D.E.D.D.d.d.e.D.E.D.D.e.D.D.d.d.d.d.e.E.e.e.D.D.e.E.d.D.d.d.e.D.D.e.D.D.d.d.d.d.d.d.d.d.d.d.d.e.D.D.d.d.d.e.E.d.D.d.d.d.d.e.D.E.D.E.D.E.E.e.d.E.E.E.e.e.d.E.E.e.e.e.d.A.u.v.A.v.u.E.E.e.e.e.e.E.e.e.e.d.D.d.e.E.e.e.d.D.d.e.E.d.D.d.d.d.e.D.D.d.d.d.d.d.d.d.d.e.D.D.d.d.d.d.d.d.d.e.D.D.d.d.d.d.d.d.d.d.d.d.d.d.d.d.d.d.e.E.d.E.D.D.d.d.d.d.d.e.D.D.d.e.D.D.d.d.d.d.d.d.d.d.d.d.d.d.d.d.d.d.d.d.d.d.d.d.d.d.d.d.d.d.d.d.d.d.d.d.d.d.d.d.d.d.d.d.d.d.d.d.d.d.d.d.d.d.d.d.d.d.d.d.d.d.d.a.v.u.D.d.d.d.d.d.d.d.d.d.d.d.d.d.d.d.d.d.d.d.d.d.d.d.d.d.d.d.d.d.d.e.E.e.d.D.d.d.d.d.d.d.d.d.d.d.d.d.d.d.d.d.d.d.d.d.d.d.d.d.d.d.d.d.d.d.d.d.d.d.d.d.d.d.a.u.u.d.d.d.d.d.d.d.d.d.d.d.d.d.d.d.a.u.u.d.d.d.d.d.d.d.d.d.d.d.d.d.d.d.d.d.d.d.d.d.d.d.d.d.d.d.d.d.d.d.d.d.d.d.d.d.d.d.d.d.d.d.d.d.d.d.d.d.d.d.d.d.d.e.e.d.D.d.d.d.d.d.d.d.d.d.d.d.d.d.d.d.d.d.d.d.d.d.d.d.d.d.d.d.d.d.d.d.d.d.d.d.d.d.d.d.d.d.d.d.d.d.d.d.d.D.D.d.d.d.d.d.d.d.d.d.d.d.d.d.d.d.d.d.d.d.d.d.d.d.e.D.D.d.d.d.a.u.u.d.d.d.d.d.d.d.d.d.d.d.d.d.d.d.d.d.d.d.d.d.d.e.D.D.d.d.d.d.d.d.d.d.d.d.d.d.d.d.d.d.d.d.d.d.d.d.d.d.d.d.d.d.d.d.d.d.d.d.d.d.d.d.a.u.u.d.e.e.d.D.d.d.d.d.d.d.d.d.d.d.d.d.d.d.d.a.u.u.d.d.d.d.d.d.d.d.d.d.d.d.d.d.d.d.d.d.d.d.d.d.d.d.d.d.d.d.d.d.d.d.d.d.d.d.d.d.d.d.d.d.d.d.d.d.d.d.d.d.d.d.d.d.d.e.d.d.d.e.D.D.d.d.d.d.d.d.d.d.d.d.d.d.d.d.d.d.d.d.d.d.d.d.d.d.d.d.d.d.d.d.d.d.d.d.d.d.d.d.d.d.d.d.d.d.d.d.d.d.d.d.d.d.d.d.d.d.d.d.d.d.d.d.d.d.d.d.d.d.d.d.d.e.d.a.v.u.d.d.d.d.d.d.d.d.U*U.U.D.d.d.d.d.d.d.d.d.d.d.d.d.d.d.d.d.d.d.d.d.d.d.d.d.d.d.d.d.d.d.d.d.d.d.d.d.d.d.d.d.d.d.d.d.d.d.d.d.d.d.d.d.d.d.d.d.e.e.d.D.d.d.d.d.d.d.d.d.d.d.d.d.d.d.d.d.d.d.d.d.d.d.d.d.d.d.d.d.d.d.d.d.d.d.d.d.d.d.d.d.d.d.d.d.d.d.d.d.d.d.d.d.d.d.d.d.d.d.d.d.d.d.d.d.d.d.d.d.d.d.d.d.d.e.e.d.D.d.d.d.d.d.d.d.d.d.d.d.d.d.d.d.d.d.d.d.d.d.d.d.d.d.d.d.v.u.D.d.d.d.d.d.e.D.D.d.d.d.d.d.d.d.e.D.D.d.d.d.d.d.d.d.d.d.d.d.d.e.E.D.D.d.d.d.d.d.d.d.d.d.e.D.D.d.d.d.e.D.E.D.E.D.D.d.d.d.d.d.d.d.d.d.e.D.D.d.d.d.e.E.E.D.D.d.e.D.D.d.e.D.D.d.d.d.d.d.d.d.d.d.d.d.d.d.d.d.d.d.d.d.d.d.d.e.D.D.d.d.d.d.d.d.d.d.e.E.d.D.d.d.a.u.u.d.d.d.d.d.d.d.d.d.d.d.d.d.e.D.D.d.d.d.d.d.d.d.d.d.d.d.d.d.d.d.d.d.d.d.d.d.d.d.d.d.d.d.d.d.d.d.d.e.D.E.E.D.E.D.D.d.d.d.d.d.d.d.d.d.d.d.e.E.d.D.d.d.d.d.d.d.d.d.d.d.d.d.d.d.d.d.d.d.d.d.d.d.d.d.d.d.d.d.d.d.d.d.d.d.d.d.a.u.u.d.d.d.d.d.d.d.d.d.d.d.d.d.d.d.d.d.d.d.d.d.d.d.d.d.d.a.u.u.d.d.d.a.v.u.d.d.d.d.d.d.d.d.d.d.d.d.d.d.d.d.d.d.d.d.d.d.d.d.d.d.d.d.d.d.d.d.d.d.d.d.d.d.d.d.d.d.d.d.d.d.d.d.d.d.d.d.d.d.d.d.d.d.d.d.d.d.d.d.d.d.d.d.d.d.d.d.d.d.e.e.d.D.d.d.d.d.d.d.d.d.d.d.d.d.d.d.d.d.d.d.d.d.d.d.d.d.d.d.d.d.d.d.d.d.d.d.d.d.d.d.d.d.d.d.d.d.d.d.d.d.d.d.d.d.d.d.d.d.d.d.d.d.d.d.d.d.d.d.d.d.d.d.d.d.d.a.u.u.d.a.u.u.d.d.d.d.d.d.d.d.d.d.d.d.d.d.d.d.d.d.d.d.d.d.d.d.d.d.d.d.d.d.d.d.d.d.d.d.d.d.d.d.d.d.d.d.d.d.d.d.d.d.d.d.d.d.d.d.d.d.d.d.a.u.u.d.d.d.d.d.d.e.A.u.u.d.d.d.d.d.d.d.d.d.d.d.d.d.d.d.d.d.d.d.d.d.d.d.d.d.d.d.d.d.d.d.a.u.u.d.d.d.d.d.d.d.d.d.d.d.d.d.d.d.d.d.d.d.d.d.d.d.d.d.d.d.d.d.d.d.d.d.d.d.d.d.e.e.d.D.d.d.d.d.d.d.d.d.d.d.d.d.d.d.d.d.d.d.d.d.d.d.d.d.d.d.d.d.d.d.d.d.d.d.d.d.d.d.d.d.d.d.d.d.d.d.d.d.d.d.d.d.d.d.d.d.d.d.d.d.d.d.d.d.d.d.d.d.d.d.d.d.d.d.d.d.d.d.d.d.d.d.d.d.d.d.d.d.d.d.d.d.d.d.d.d.d.d.d.d.d.d.d.d.d.d.d.d.d.d.d.d.d.d.d.d.d.d.d.d.d.d.d.d.d.d.d.d.d.d.d.d.d.d.d.d.d.d.d.d.d.d.d.d.d.d.d.d.d.d.d.a.u.u.d.d.d.d.d.d.d.d.d.d.d.d.d.d.d.d.d.d.d.d.d.d.d.d.d.d.d.d.d.d.d.d.d.d.d.d.d.d.d.d.d.d.d.d.d.d.d.d.d.d.d.d.d.d.a.u.u.d.d.d.d.d.d.d.d.d.d.d.d.d.d.d.d.e.d.d.d.d.d.d.d.d.d.d.d.d.d.d.d.d.d.d.d.d.d.d.d.d.d.U*U.U.D.d.d.d.d.d.d.d.d.d.d.d.d.d.d.d.d.d.d.d.d.d.d.d.d.d.d.d.d.d.d.d.d.d.d.d.d.d.d.d.d.d.d.d.d.d.d.d.d.d.d.d.d.e.D.D.d.d.d.d.d.d.d.d.d.d.d.d.d.d.d.d.d.d.d.d.d.d.d.d.d.d.d.d.d.d.d.d.d.d.d.d.d.d.d.d.d.d.d.d.d.d.d.d.d.d.d.d.d.d.d.d.d.d.d.d.d.d.d.d.d.d.d.d.d.d.d.d.d.d.e.d.D.d.d.d.d.d.d.d.d.d.d.d.d.d.d.d.d.d.d.d.d.d.d.d.d.d.d.d.d.d.d.d.d.d.d.d.d.d.d.d.d.d.d.d.d.d.d.d.d.d.d.d.d.d.d.d.d.d.d.d.d.d.d.d.d.d.d.d.d.d.d.d.d.d.d.d.a.u.u.d.d.d.d.d.d.d.d.d.d.d.d.d.d.d.d.d.d.d.d.d.d.d.d.d.d.d.d.d.d.d.d.d.e.D.D.d.d.d.d.d.d.d.d.d.d.d.d.d.d.d.d.d.d.d.d.d.d.d.d.d.d.d.d.d.d.d.d.d.d.d.d.a.v.u.D.d.d.d.d.d.d.d.d.d.d.d.d.d.d.d.d.a.u.u.d.d.d.d.d.d.d.d.d.d.d.d.d.d.d.d.d.d.d.d.d.d.d.d.d.d.d.d.d.d.d.d.d.d.d.d.d.d.d.d.d.d.d.d.d.d.d.d.d.d.d.d.d.d.d.d.d.d.d.d.d.d.d.d.d.d.d.d.d.d.d.d.u,u.d.d.d.d.d.d.e.D.D.d.d.d.d.d.d.d.d.d.d.d.d.d.d.d.e.D.D.d.d.d.d.d.d.d.d.d.d.d.d.d.d.d.d.d.d.d.d.d.d.d.d.d.d.a.u.u.d.d.d.d.d.d.d.d.d.d.d.d.d.d.d.d.d.d.d.d.d.d.d.d.d.d.d.d.d.d.d.d.d.d.d.d.d.d.d.d.d.d.d.d.d.d.d.d.d.d.d.d.e.D.D.d.d.d.d.d.d.d.d.d.d.d.d.d.d.d.d.d.d.a.u.u.d.d.d.d.d.d.d.d.d.d.d.d.d.d.d.d.d.d.d.d.d.d.d.d.d.d.d.d.d.d.d.d.d.d.d.d.d.d.d.d.d.d.d.d.d.d.d.d.d.d.d.d.d.d.d.d.d.d.d.d.d.d.d.d.d.d.d.d.d.d.d.d.d.e.E.d.D.d.d.d.d.d.d.d.d.d.d.d.d.d.d.d.d.d.d.d.d.d.d.d.d.d.d.d.a.u.u.d.d.d.d.d.d.d.d.d.d.d.d.d.d.d.d.d.d.d.d.d.d.d.d.d.d.d.d.d.d.d.d.d.d.d.d.d.d.d.d.d.d.d.d.d.d.d.d.d.d.d.d.d.d.d.d.d.d.d.d.d.d.d.d.d.d.d.d.d.d.d.d.d.d.d.d.d.d.d.d.d.d.d.d.d.d.d.d.d.d.d.d.d.d.d.d.d.d.d.d.d.d.d.d.d.d.d.d.d.d.d.d.d.d.d.d.d.d.d.e.e.e.d.D.d.d.d.d.d.d.d.d.d.d.d.d.d.d.d.d.d.d.d.d.d.d.d.d.d.d.d.d.d.d.d.d.d.d.d.d.d.d.d.d.d.d.d.d.d.d.d.d.e.D.D.d.e.E.d.E.D.E.D.E.E.e.d.E.E.e.e.E.d.E.E.a.r.e.u.E.E.e.e.e.d.E.E.e.e.e.d.E.E.E.e.e.d.E.E.E.e.e.d.E.E.E.E.e.d.E.E.E.e.e.d.E.E.e.e.E.d.E.E.e.e.E.D.E.E.e.e.e.d.E.E.e.e.e.d.E.E.E.e.e.d.A.v.v.E.e.d.E.E.e.e.e.d.E.E.e.E.e.d.E.E.e.e.E.d.E.E.e.e.e.D.E.E.e.E.e.d.E.E.e.e.e.d.E.E.E.D.E.D.E.E.e.e.e.d.E.D.E.E.e.d.D.e.E.d.E.D.E.E.d.D.d.d.e.A.v.v.e.D.D.e.E.E.d.D.e.D.E.D.D.d.d.e.D.D.e.D.D.d.e.D.D.d.d.d.e.E.d.D.e.E.e.e.d.D.e.U*U.V.e.e.d.E.E.e.e.e.D.E.E.e.e.e.d.E.E.e.e.E.d.E.E.e.e.E.d.E.E.E.E.e.D.E.E.e.E.e.D.E.E.E.e.e.d.E.E.e.e.e.d.E.E.e.e.E.d.E.E.e.d.E.D.E.E.E.e.e.d.E.D.E.E.e.d.D.e.E.d.E.D.E.E.d.D.d.d.e.D.E.E.E.D.D.e.E.e.d.D.e.D.E.D.D.d.d.e.D.D.e.D.D.d.e.D.D.d.d.d.e.E.D.D.e.E.e.e.d.D.e.D.A.u.u.d.d.d.d.d.d.d.d.d.d.d.d.d.d.d.d.d.d.d.d.d.d.d.d.d.d.d.d.d.d.d.d.d.d.d.d.d.d.d.d.d.d.d.d.d.d.d.d.d.d.d.d.d.d.d.d.d.d.d.d.d.d.d.d.d.d.d.d.d.d.d.d.d.d.d.e.E.e.d.E.E.E.e.e.d.E.D.D.d.d.d.d.d.d.d.d.d.d.d.d.d.d.d.d.d.d.d.d.d.d.d.d.e.E.D.E.E.e.a.r.d.v.D.D.d.d.d.d.d.d.d.d.d.d.d.d.d.d.d.d.d.d.d.d.d.d.d.d.d.d.d.d.e.E.e.e.d.E.E.e.e.d.D.d.d.d.d.d.d.d.d.d.d.d.d.d.d.d.d.d.d.d.d.d.d.d.d.d.d.d.d.d.d.d.d.d.d.d.d.d.d.d.d.d.d.d.d.d.d.d.d.d.d.d.d.d.d.d.d.d.d.d.d.d.d.d.d.d.d.d.d.d.d.d.d.d.d.d.d.d.d.d.d.d.d.d.d.d.d.d.d.d.d.d.d.d.d.d.d.d.d.d.d.d.d.d.d.d.d.d.d.e.e.d.D.d.d.d.d.d.d.d.d.d.d.d.d.d.d.d.d.d.d.d.d.d.d.d.d.d.d.d.d.d.d.d.d.d.d.d.d.d.d.d.d.d.d.d.d.d.d.d.d.d.d.d.d.d.d.d.d.d.d.d.d.d.d.d.d.d.d.d.d.d.d.d.d.d.e.D.D.d.d.d.d.d.d.d.d.d.d.d.d.d.d.d.d.d.d.d.d.d.d.d.d.u.u.d.d.d.d.d.d.d.d.d.d.d.d.d.d.d.d.d.d.d.d.d.d.d.d.d.d.d.d.d.d.d.d.d.d.d.d.d.d.d.d.d.d.d.d.d.d.d.a.r.d.u.d.d.d.d.d.d.d.d.d.d.d.d.d.d.d.d.d.d.d.d.d.d.d.d.d.d.d.d.d.d.d.d.d.d.d.d.d.a.u.u.d.d.d.d.d.d.d.d.d.d.d.d.d.d.d.d.d.d.d.d.d.d.d.d.d.d.d.d.d.d.d.d.a.v.u.d.d.d.d.d.d.d.d.d.d.d.d.d.d.d.d.d.d.d.d.d.d.d.d.d.d.d.d.d.d.d.d.d.d.d.d.d.d.d.d.d.d.d.d.d.d.d.d.d.d.d.d.d.d.d.d.d.d.d.d.d.d.d.d.d.d.d.d.d.d.d.d.d.d.e.d.d.d.d.d.d.a.u.u.d.d.d.d.d.d.d.d.d.d.d.d.d.d.d.d.d.d.d.d.d.d.d.d.d.d.d.d.d.d.d.d.d.d.d.d.d.d.d.d.d.a.u.u.d.d.d.d.d.d.d.d.d.d.d.d.d.d.d.d.d.d.d.d.e.e.d.D.d.d.d.d.d.d.d.d.d.d.d.d.d.d.d.d.d.d.d.d.d.d.d.d.d.d.d.d.d.d.d.d.d.d.d.d.d.d.d.d.d.d.d.d.d.d.d.d.d.d.d.d.d.d.d.d.d.d.d.d.d.d.d.d.d.d.d.d.d.d.d.d.d.d.d.d.d.d.a.u.u.d.d.d.d.d.d.d.d.d.d.d.d.d.d.d.d.d.d.d.d.d.d.d.d.a.u.u.d.d.d.d.d.d.d.d.d.d.d.d.d.d.d.d.d.d.d.d.d.d.d.d.d.d.d.d.d.d.d.d.d.d.d.d.d.d.d.d.d.d.a.u.u.d.d.d.d.d.d.d.d.d.d.d.d.d.d.d.d.d.d.d.d.d.d.d.d.d.d.d.d.d.d.d.d.d.d.d.d.d.d.d.d.d.d.d.d.d.d.d.d.d.d.d.d.d.d.d.d.d.U*U.V.e.E.e.D.E.E.e.e.e.d.E.E.e.a.v.D.E.E.e.e.d.D.e.E.e.e.E.d.E.E.e.e.e.D.E.E.e.e.e.D.E.E.e.e.e.d.E.E.e.e.e.d.E.E.e.e.e.d.E.D.E.E.E.d.D.e.E.e.e.d.E.E.E.e.e.D.E.E.e.D.E.D.E.E.a.v.v.D.E.E.e.e.e.d.E.E.e.e.e.d.E.E.e.e.d.D.e.E.e.E.e.d.E.v.v.e.d.E.E.e.d.E.E.e.e.e.d.E.E.e.e.e.D.E.E.e.e.d.D.e.E.d.E.E.d.E.D.D.e.D.D.e.E.d.E.E.e.d.D.e.D.E.D.E.D.D.d.d.d.e.E.e.e.e.D.D.e.E.E.d.D.d.d.e.D.E.D.D.e.E.e.d.D.e.E.e.d.E.D.E.E.e.e.e.d.D.d.e.E.e.D.E.D.E.D.E.D.D.d.e.E.e.d.D.d.d.d.e.D.E.E.e.d.D.d.e.D.E.D.E.D.E.D.D.d.e.D.D.e.D.D.d.d.d.d.e.D.E.D.D.e.E.e.d.D.d.d.d.e.D.D.e.D.D.e.D.D.e.E.e.e.d.D.e.D.D.d.d.d.d.e.D.E.E.u.u.d.d.d.d.d.e.D.A.v.u.D.e.D.D.d.d.d.d.d.d.d.e.D.D.e.E.e.e.D.D.e.D.D.d.d.e.E.d.E.E.D.E.D.D.d.e.D.D.e.E.d.D.d.d.d.d.d.d.d.d.d.d.d.d.d.d.d.d.d.d.d.d.d.d.d.d.d.d.d.d.d.a.v.u.D.d.d.d.d.d.d.d.d.d.d.d.d.d.d.d.d.d.d.d.d.d.d.d.d.d.d.d.d.d.d.d.d.d.d.d.d.d.d.d.d.d.d.d.d.d.d.d.d.d.d.d.d.d.d.d.d.d.d.d.d.d.d.d.d.d.d.d.d.d.d.d.d.d.e.E.d.D.d.d.d.d.d.d.d.d.d.d.d.d.d.d.d.d.d.d.d.d.d.d.d.d.d.d.d.d.d.d.d.d.d.d.d.d.d.d.d.d.d.d.d.d.d.d.d.d.d.d.d.d.d.d.d.d.d.d.d.d.d.d.d.d.d.d.d.d.d.d.d.d.e.a.v.u.D.d.d.d.d.d.d.d.d.d.d.d.d.d.d.d.d.d.d.d.d.d.d.d.d.d.d.d.d.d.d.d.d.d.d.d.d.d.d.d.d.d.d.d.d.d.d.d.d.d.d.d.d.d.d.d.d.d.d.d.d.d.d.d.d.d.d.d.d.d.d.d.d.d.d.d.d.d.d.d.d.d.d.d.d.d.d.d.d.d.d.d.d.d.e.E.D.E.E.e.e.E.D.E.E.E.e.e.d.E.E.E.e.e.d.E.E.e.e.E.d.E.E.e.e.E.d.E.E.e.E.E.d.E.E.e.E.e.d.E.E.e.E.e.d.E.E.e.e.E.d.E.E.e.e.e.d.E.E.e.e.E.D.E.E.E.E.e.d.E.E.e.e.e.d.E.E.E.e.e.d.E.E.e.d.E.D.D.d.d.d.d.d.d.d.d.d.d.d.d.d.d.d.d.d.e.D.D.d.d.d.d.d.d.d.d.d.d.d.d.d.d.d.d.d.d.d.d.d.d.d.d.d.d.d.d.d.d.d.d.d.d.d.d.d.d.d.d.d.d.d.d.d.d.d.d.d.d.d.d.d.d.d.d.d.d.d.d.d.d.d.d.d.d.d.d.d.e.D.D.d.d.d.d.d.d.d.e.D.D.d.d.d.d.d.d.d.d.d.d.e.D.D.d.d.d.d.d.d.d.d.d.d.d.d.d.d.d.d.d.d.d.d.d.d.d.d.d.d.d.d.d.d.d.d.d.d.d.d.d.d.d.d.d.d.d.d.d.d.d.d.d.d.d.e.D.D.d.d.d.d.d.d.d.d.d.d.d.d.d.d.d.d.d.a.u.u.d.d.d.d.d.d.d.d.d.e.D.D.d.d.d.e.D.E.D.D.d.d.d.e.E.d.E.D.E.D.D.d.e.E.E.d.D.d.d.e.D.D.d.d.d.d.d.d.d.d.d.e.D.D.d.d.d.e.E.d.E.D.E.E.E.e.d.D.d.d.e.E.A.u.v.E.e.e.d.D.d.d.d.d.e.D.D.U*U.U.D.d.d.d.d.d.d.d.d.d.d.d.d.d.d.d.d.d.d.d.d.d.d.d.d.d.d.d.d.d.d.d.d.d.d.d.d.d.d.d.d.d.d.d.d.d.d.d.d.d.d.d.d.d.d.d.d.d.d.d.d.e.E.d.D.d.d.d.d.a.u.u.d.d.d.d.d.d.d.d.d.d.d.d.d.d.d.d.d.d.d.d.d.d.d.d.d.d.d.d.d.d.d.d.d.d.d.d.d.d.d.d.d.d.d.d.d.d.d.d.d.d.d.d.d.d.d.d.d.d.d.d.d.d.d.d.d.e.E.d.D.d.d.d.d.d.d.d.d.d.d.d.d.d.d.d.a.u.u.d.d.d.d.d.d.d.d.d.d.d.d.d.d.d.d.d.d.d.d.d.d.d.d.d.d.d.d.d.d.d.d.d.d.d.d.d.d.d.d.d.d.d.d.d.d.d.d.d.d.d.d.d.d.d.a.u.u.d.d.d.d.d.d.d.d.d.d.d.d.d.d.d.d.d.d.d.d.d.d.d.d.d.d.d.d.d.d.d.d.d.d.d.d.d.d.d.d.d.d.d.d.d.d.d.d.d.d.d.d.d.d.d.d.d.d.d.d.d.d.d.d.d.d.d.d.d.d.d.d.d.a.u.u.d.d.d.d.d.d.d.d.d.d.d.d.d.d.d.d.d.d.d.d.d.d.d.d.d.d.d.d.d.d.d.d.d.d.d.d.d.d.d.d.d.d.d.d.d.d.d.d.d.d.d.d.d.d.d.d.d.d.d.d.d.d.d.d.d.d.d.d.d.d.d.d.d.d.e.d.d.d.d.d.e.D.D.d.d.d.d.d.d.d.d.d.d.d.d.d.d.d.d.d.d.d.d.d.d.d.d.d.d.d.d.d.d.d.d.d.d.d.d.d.d.d.d.d.d.d.d.d.d.d.d.d.d.d.d.d.d.d.d.d.d.d.d.d.d.d.d.d.d.d.d.e.D.D.d.d.d.d.d.d.d.d.a.u.u.d.d.d.d.d.d.d.d.d.d.d.d.d.d.d.d.d.d.d.d.d.d.d.d.d.d.d.d.d.d.d.d.d.d.d.d.d.a.u.u.d.d.d.d.d.d.d.d.d.d.d.d.d.d.d.d.d.d.d.d.d.d.d.d.d.d.d.d.d.d.d.d.d.d.d.d.d.d.d.d.d.d.d.d.d.d.d.d.d.d.d.d.d.d.d.d.d.d.d.d.d.d.d.d.d.d.d.d.d.d.d.d.d.d.d.d.d.d.d.d.d.d.d.d.d.d.d.d.d.d.d.d.d.d.d.d.d.d.d.a.u.u.d.d.d.d.d.d.d.d.d.d.d.d.d.d.d.d.d.d.d.d.d.d.d.d.d.d.d.d.d.d.d.d.d.d.d.d.d.d.d.d.d.d.d.d.d.d.d.d.d.d.d.d.d.d.d.d.d.d.d.d.d.d.d.d.d.d.d.d.d.d.d.d.d.d.d.d.d.d.d.d.d.d.d.d.d.d.d.d.d.d.d.d.d.d.d.d.d.d.d.d.d.d.d.d.d.d.d.d.d.d.d.d.d.d.d.d.d.d.d.d.d.d.d.d.d.d.d.d.d.u.u.d.d.d.d.d.d.d.d.d.d.d.d.d.d.d.d.a.u.v.d.D.d.d.d.d.d.d.d.d.d.d.d.d.d.d.d.d.d.d.d.d.d.d.d.d.d.d.d.d.d.d.d.d.d.d.d.d.d.d.d.d.d.d.d.d.d.d.d.d.d.d.d.d.d.d.d.d.d.d.d.d.d.d.d.d.d.d.d.d.d.d.d.d.d.d.a.u.u.d.d.d.d.d.d.d.d.d.d.d.d.d.d.d.d.d.d.d.d.d.d.d.d.d.d.d.d.d.d.d.d.d.d.d.d.d.d.a.u.u.d.d.d.d.d.d.d.d.d.d.d.d.d.d.d.d.d.d.d.d.d.d.d.d.d.d.d.d.d.d.d.d.d.d.d.d.d.d.d.d.d.d.d.d.d.d.d.d.d.d.d.d.d.d.d.d.d.d.d.d.d.d.d.d.d.d.d.d.d.d.d.d.d.d.d.d.d.d.d.d.d.d.d.d.d.d.d.d.d.d.d.d.d.d.d.d.d.d.d.d.d.d.d.d.d.d.d.d.d.d.e.D.d.d.d.d.d.d.d.d.d.d.d.d.d.d.d.d.d.U*U.V.d.D.d.d.d.d.d.d.d.d.d.d.d.d.d.d.d.d.d.d.d.d.d.d.d.d.d.d.d.d.d.d.d.d.d.d.d.d.d.d.d.d.d.d.d.d.d.d.d.d.d.d.d.d.d.d.d.d.e.e.d.D.d.d.d.d.d.d.d.d.d.d.d.d.d.d.d.d.d.d.d.d.d.d.d.d.d.d.d.d.d.d.d.d.d.d.d.d.d.d.d.d.d.d.d.d.d.d.d.d.d.d.d.d.d.d.d.d.d.d.d.d.d.d.d.d.d.d.d.d.d.d.d.d.d.e.E.d.D.d.d.d.d.d.d.d.d.d.d.d.d.d.d.d.d.d.d.d.d.d.d.d.d.d.d.d.d.d.d.d.d.d.d.d.d.d.d.d.d.d.d.d.d.d.d.d.d.d.d.d.d.d.d.d.d.d.d.d.d.d.d.d.d.d.d.d.d.d.d.d.d.d.a.u.u.d.d.d.d.d.d.d.d.d.d.d.d.d.d.d.d.d.d.d.d.d.d.d.d.d.d.d.d.d.d.d.d.d.d.d.d.d.d.d.d.d.d.d.d.d.d.d.d.d.d.d.d.d.d.d.d.d.d.d.d.d.d.a.u.u.d.d.d.d.d.d.d.d.d.e.D.D.d.d.d.d.d.d.d.d.d.d.d.d.d.d.d.d.d.d.d.d.d.d.d.d.d.d.d.d.d.d.d.d.d.d.d.d.d.d.d.d.d.d.d.d.d.d.d.d.d.d.d.d.d.d.d.d.d.d.d.d.d.d.d.d.d.d.d.d.d.a.u.u.d.e.E.d.D.d.d.d.d.d.d.d.d.d.d.d.d.d.d.d.d.d.d.d.d.d.d.d.d.d.d.d.d.d.d.d.d.d.d.d.d.d.d.d.d.d.d.d.d.d.d.d.d.d.d.d.d.d.d.d.d.d.d.d.d.d.d.d.d.d.d.d.d.d.d.d.d.d.d.e.D.D.d.d.d.d.d.d.d.d.d.d.d.d.d.d.d.d.d.d.d.d.d.d.d.d.d.d.d.d.d.d.d.d.d.d.d.d.d.d.d.d.d.d.d.d.d.d.d.d.d.d.d.d.d.d.d.d.d.d.d.d.d.d.d.d.d.d.d.d.d.d.d.d.d.e.d.d.d.d.d.d.d.d.d.d.d.d.d.d.d.d.d.d.d.d.d.d.d.d.d.d.d.d.d.d.d.d.d.d.d.d.d.d.d.d.d.d.d.d.d.d.d.d.d.d.d.d.d.d.d.d.d.d.d.d.d.d.d.d.d.d.d.d.d.d.d.d.d.d.d.d.d.e.D.D.d.d.d.d.d.d.d.d.d.d.d.d.d.d.d.d.d.d.d.d.d.d.d.d.d.d.d.d.d.d.d.d.d.d.d.d.d.d.d.d.d.d.d.d.d.d.d.d.d.d.d.d.d.d.d.d.d.d.d.d.d.d.d.d.d.d.d.d.d.d.d.d.d.d.e.D.D.d.d.d.d.d.d.d.d.d.d.d.d.d.d.d.d.d.d.d.d.d.d.d.d.d.d.d.d.d.d.d.d.d.d.d.d.d.d.d.d.d.u.u.d.d.d.d.d.d.d.d.d.d.d.d.d.d.d.d.d.d.d.d.d.d.d.d.d.d.d.d.d.e.D.A.u.u.d.d.d.d.d.d.d.d.d.d.d.d.d.d.d.d.d.d.d.d.d.d.d.d.d.d.d.d.d.d.d.d.d.d.d.d.d.d.d.d.d.d.d.d.d.d.d.d.d.d.d.d.d.d.d.d.d.d.a.u.u.d.d.d.d.d.d.d.d.d.d.e.e.d.D.d.d.d.d.d.d.d.d.d.d.d.d.d.d.d.d.d.d.d.d.d.d.d.d.d.e.D.E.D.D.e.E.e.e.d.D.d.d.e.E.d.E.D.E.E.d.D.e.D.E.E.D.D.d.e.D.E.E.d.D.e.E.e.e.d.D.e.D.E.E.d.D.e.D.D.e.D.E.D.E.D.E.D.E.D.D.d.d.d.e.D.D.d.d.d.e.D.D.d.e.D.E.D.E.E.D.D.d.d.e.E.e.d.E.E.d.D.d.d.e.D.E.D.E.D.E.E.e.d.D.d.e.D.E.E.e.D.E.D.D.d.e.D.D.b.v.u.E.D.D.d.d.e.D.D.e.D.D.d.d.d.d.d.d.d.d.d.e.D.E.U*U.U.D.a.u.u.d.d.d.d.d.d.d.d.d.d.d.d.d.d.d.d.d.d.d.d.d.d.d.d.d.d.d.d.d.d.d.d.d.d.d.d.d.a.v.u.D.d.d.d.d.d.d.d.d.d.d.d.d.d.d.d.d.d.d.d.d.d.d.d.d.d.d.d.d.d.d.d.d.d.d.d.d.d.d.d.d.d.d.d.d.d.d.d.d.d.d.d.d.d.d.d.d.d.d.d.d.d.d.d.d.d.d.d.d.d.d.d.d.d.e.d.D.d.d.d.d.d.d.d.d.d.d.d.d.d.d.d.d.d.d.d.d.d.d.d.d.d.d.d.d.d.d.d.d.d.d.d.d.d.d.d.d.d.d.d.d.d.d.d.d.d.d.d.d.d.d.d.d.d.d.d.d.d.d.d.d.d.d.d.d.d.d.d.d.d.d.d.e.D.D.d.d.d.d.d.d.d.d.d.d.d.d.d.d.d.d.d.d.d.d.d.d.d.d.d.d.d.d.d.d.d.d.d.d.d.d.d.d.d.d.d.d.d.d.d.d.d.d.d.d.d.d.d.d.a.u.u.d.d.d.d.d.d.d.d.d.d.d.d.d.d.d.e.d.d.d.d.d.d.d.d.d.d.d.d.d.d.d.d.d.d.d.d.d.d.d.d.d.d.d.d.d.d.d.d.d.d.d.d.d.d.d.d.d.d.d.d.d.d.d.d.d.d.d.d.d.a.u.u.d.d.d.d.d.d.d.d.d.d.d.d.d.d.d.d.d.d.d.e.a.u.u.d.d.d.d.d.d.d.d.d.d.d.d.d.d.d.d.d.d.d.d.d.d.d.d.d.d.d.d.d.e.E.E.d.D.d.e.E.e.d.D.d.d.e.D.D.d.d.e.E.e.d.D.d.e.D.D.e.E.d.E.E.e.e.d.D.d.d.e.E.e.D.E.E.d.D.e.D.E.E.e.d.D.d.e.D.D.e.E.d.E.E.e.e.E.D.E.E.e.e.e.d.E.E.d.D.e.D.E.D.D.d.d.d.d.d.d.d.d.d.d.d.d.d.d.d.d.d.d.d.d.d.d.d.d.d.d.d.d.d.d.d.d.d.d.d.d.e.E.d.D.d.D.D.d.d.d.d.d.d.d.d.d.d.d.d.d.d.d.d.d.d.d.d.d.d.d.d.d.d.d.d.d.d.d.d.d.d.d.d.d.a.u.u.d.d.d.d.d.d.d.d.d.d.d.d.d.d.d.d.d.d.d.d.d.d.d.d.d.d.d.d.a.u.u.d.d.d.d.d.d.d.d.d.d.d.d.d.d.d.d.d.d.d.d.d.d.d.d.d.d.d.d.d.d.d.d.d.d.d.d.d.d.e.D.E.D.D.d.d.d.d.e.D.D.d.d.d.d.d.d.d.d.d.d.d.d.d.e.E.d.D.d.d.d.d.d.d.d.d.e.D.D.d.d.d.d.d.d.d.d.d.d.d.d.d.d.d.d.d.d.d.d.d.d.d.d.d.d.d.d.d.d.d.d.d.d.d.d.d.d.d.d.d.d.d.d.d.d.d.d.d.d.d.d.d.d.d.d.d.d.d.d.d.d.d.d.d.d.d.d.d.d.d.d.d.d.e.D.D.d.d.d.d.d.d.d.d.d.d.d.d.d.d.d.d.d.d.d.d.d.d.d.d.d.d.d.d.d.d.d.d.d.d.d.d.d.d.d.d.d.d.d.d.d.d.d.d.d.d.d.d.d.d.d.d.d.d.d.d.d.d.d.d.d.d.d.d.d.d.d.d.d.d.e.D.D.d.d.d.d.d.d.d.d.d.d.d.d.d.d.d.d.d.d.d.d.d.d.d.d.d.d.d.d.d.d.d.d.d.d.d.d.d.d.d.d.d.d.d.d.d.d.d.d.d.d.d.d.d.d.d.d.d.d.d.d.d.e.D.E.E.e.D.E.D.E.E.d.E.E.D.E.D.E.E.d.D.d.e.D.E.E.d.E.E.d.D.e.D.D.e.D.E.D.D.e.E.d.D.e.D.E.D.D.d.d.d.d.d.d.d.d.d.d.d.d.d.d.d.d.d.d.d.d.d.d.d.d.d.d.d.d.d.d.d.d.d.d.d.d.d.d.d.d.d.d.d.d.d.d.d.d.d.d.d.d.d.d.d.d.d.d.d.d.d.d.d.d.d.d.d.d.d.d.d.d.d.d.d.d.d.d.d.d.d.d.a.u.U*U.U.D.d.d.d.d.d.d.d.d.d.d.d.d.d.d.d.d.d.d.d.d.d.d.d.d.d.d.d.d.d.d.d.d.d.a.v.u.D.d.d.d.d.d.d.d.d.d.d.d.d.d.d.d.d.d.d.d.d.d.d.d.d.d.d.d.d.d.d.d.d.d.d.d.d.d.d.d.d.d.d.d.d.d.d.d.d.d.d.d.d.d.d.d.d.d.d.d.d.d.d.d.d.d.d.d.d.d.d.d.d.d.e.a.u.u.d.d.d.d.d.d.d.d.d.d.d.d.d.d.d.d.d.d.d.d.d.d.d.d.d.d.d.d.d.d.d.d.d.d.d.d.d.d.d.d.d.d.d.d.d.d.d.d.d.d.d.d.d.d.d.d.d.d.d.d.d.d.d.d.d.d.d.d.d.d.d.d.d.d.d.d.d.d.d.d.d.d.d.d.d.d.d.d.d.d.d.d.d.d.d.d.d.d.d.d.d.d.d.d.d.d.d.d.d.d.d.d.d.d.d.d.d.d.d.d.d.d.d.d.d.d.d.d.d.d.d.d.d.d.d.d.d.d.d.d.d.d.d.d.d.d.d.d.d.a.r.d.u.d.d.d.d.d.d.d.d.d.d.d.d.d.d.d.d.d.d.d.d.d.d.d.d.d.d.d.d.d.d.d.d.d.d.d.d.d.d.d.d.d.d.d.a.u.u.d.d.d.d.d.d.d.d.d.d.d.d.d.d.d.d.U,U.d.e.e.d.d.d.d.d.d.d.d.d.d.d.d.d.d.d.d.d.d.d.d.d.d.d.d.d.d.d.d.d.d.d.d.d.d.d.d.d.d.d.d.d.d.d.d.d.d.d.d.d.d.d.d.d.d.d.d.d.d.d.d.d.d.d.d.d.d.d.d.d.d.d.d.d.d.d.d.e.D.D.d.d.d.d.d.d.d.d.d.d.d.d.d.a.u.u.d.d.d.d.d.d.d.d.d.d.d.d.d.d.d.d.d.d.d.d.d.d.d.d.d.d.d.d.d.d.d.d.d.d.d.d.d.d.d.d.d.d.d.d.d.d.d.d.d.d.d.d.d.d.d.d.d.d.e.D.d.d.d.a.u.u.d.d.d.d.d.d.d.d.d.d.d.d.d.d.d.d.d.d.d.d.d.d.d.d.d.d.d.d.d.d.d.d.d.d.d.d.d.d.d.d.d.d.d.d.d.d.d.d.d.d.d.d.d.d.d.d.d.d.d.d.d.d.d.d.d.d.d.d.d.e.d.D.d.d.d.d.d.d.d.d.d.d.d.d.d.d.d.d.d.d.d.d.d.d.d.d.d.d.d.d.d.d.d.d.d.d.d.d.d.d.d.d.d.d.d.d.d.d.d.d.d.d.d.d.d.d.d.d.d.d.d.d.d.d.d.d.d.d.d.d.d.d.d.d.a.u.u.d.d.d.d.d.d.d.d.d.d.d.d.d.d.d.d.d.d.d.d.d.d.d.d.d.d.d.d.d.d.d.d.d.d.d.d.d.d.d.d.d.d.d.d.d.d.d.d.d.d.d.d.d.d.d.d.d.d.d.d.d.d.d.d.d.d.d.d.d.d.d.d.d.d.e.D.D.e.D.E.E.d.D.d.d.d.e.D.E.D.D.e.D.D.d.d.d.d.d.d.d.d.d.d.d.d.d.d.d.d.d.d.d.d.d.d.d.d.d.d.d.d.d.d.d.d.d.d.d.d.d.d.d.d.d.d.d.d.d.d.d.d.d.d.d.d.d.d.d.d.d.d.e.D.D.d.d.d.d.d.d.d.d.d.d.d.d.d.d.d.d.d.d.d.d.d.d.d.d.d.d.d.d.d.d.d.d.d.d.d.d.d.d.d.d.d.d.d.d.d.d.d.d.d.d.d.d.d.d.d.d.d.d.d.d.d.d.d.d.d.d.d.d.d.d.d.d.d.e.d.d.d.d.d.d.d.d.d.d.d.d.d.d.d.d.d.d.d.d.d.d.d.d.d.d.d.d.d.d.d.d.d.a.u.u.d.d.d.d.d.d.d.d.d.d.d.d.d.d.d.d.d.d.d.d.d.d.d.d.d.d.d.d.d.d.d.d.d.d.d.d.d.d.d.d.e.D.D.d.d.d.d.d.d.d.d.d.d.d.d.d.d.d.d.d.d.d.d.d.d.d.d.d.d.d.d.d.d.d.d.d.d.d.d.d.d.d.d.d.d.d.d.d.d.d.d.U*U.U.D.d.d.d.d.d.d.d.d.d.d.d.d.d.d.d.d.d.d.d.d.d.d.d.d.d.d.e.e.d.D.d.e.D.D.d.d.d.d.d.d.d.d.d.d.d.d.d.d.d.d.d.d.d.d.d.d.d.d.d.d.d.d.d.d.d.d.d.d.d.d.d.d.d.d.d.d.d.d.d.d.d.d.d.d.d.d.d.d.d.d.d.d.d.d.d.d.d.d.d.d.d.d.d.d.e.e.d.d.d.d.d.d.d.d.d.d.d.d.d.d.d.d.d.d.d.d.d.d.d.d.d.d.d.d.d.d.d.d.d.d.d.d.d.d.d.d.d.d.d.d.d.d.d.d.d.d.d.d.d.d.a.u.u.d.d.d.d.d.d.d.d.d.d.d.d.d.d.d.d.d.d.e.d.D.d.d.d.d.d.d.d.d.d.d.d.d.d.d.d.d.d.d.d.d.d.d.d.d.d.d.d.d.d.d.d.d.d.d.d.d.d.d.d.d.d.d.d.d.d.d.d.d.d.d.d.d.d.d.d.d.d.d.d.d.d.d.d.d.d.d.d.d.d.d.d.d.d.d.e.D.D.d.d.d.d.d.d.d.d.d.d.d.d.d.d.d.d.d.d.d.d.d.d.d.d.d.d.d.d.d.d.d.d.d.d.d.d.d.d.d.d.d.d.d.d.d.d.d.d.d.d.d.d.d.d.d.d.d.d.d.d.d.d.d.d.d.d.d.d.d.d.d.d.d.e.E.a.u.u.d.d.d.d.d.d.d.d.d.d.d.a.u.u.d.d.d.d.d.d.d.d.d.d.d.d.e.D.D.d.d.d.d.d.d.d.d.d.d.d.d.d.d.d.d.d.d.d.d.d.d.d.d.d.d.d.d.d.d.d.d.d.d.d.d.d.d.d.d.d.d.d.e.D.D.d.d.d.d.d.d.d.d.d.d.d.d.d.d.d.d.d.d.d.d.d.d.d.d.d.d.d.d.d.d.d.d.d.d.d.d.d.d.e.E.e.e.e.d.E.E.e.e.e.d.D.d.d.d.d.d.d.d.d.d.d.d.d.d.d.d.d.d.d.d.d.d.e.d.d.d.d.d.d.d.d.d.d.d.d.d.d.d.d.d.d.d.d.d.d.d.d.d.d.d.d.d.d.d.d.d.d.d.d.d.d.d.d.d.d.d.d.d.d.d.d.d.d.d.d.d.d.d.d.d.d.d.d.d.d.d.d.d.d.d.d.d.d.d.d.d.d.d.d.d.a.u.u.d.d.d.d.d.d.d.d.d.d.d.d.d.d.d.d.d.d.d.d.d.d.d.d.d.d.d.d.d.d.d.D.D.d.d.d.d.d.d.d.d.d.d.d.d.d.d.d.d.d.d.d.d.d.d.d.d.d.d.d.d.d.d.d.d.d.d.d.d.d.d.e.a.u.u.d.d.d.d.d.d.d.e.D.E.D.D.d.e.D.D.d.d.d.d.d.d.d.d.d.d.d.d.d.d.d.d.d.d.d.d.d.d.d.d.d.d.d.d.d.d.d.d.d.d.d.d.d.d.d.d.d.d.d.d.d.d.d.d.d.d.d.d.d.d.d.d.a.u.r.u.u.d.d.d.d.d.d.d.d.d.d.d.d.d.d.d.d.d.d.d.d.d.d.d.d.d.d.d.d.d.d.d.d.d.d.d.d.d.d.d.d.d.d.d.d.d.d.d.d.d.d.d.d.d.d.d.d.d.d.d.d.d.d.d.d.d.d.d.d.d.d.d.a.v.u.D.d.e.u.u.d.d.d.d.d.d.d.a.u.u.d.d.d.d.d.d.d.d.d.d.d.d.d.d.d.d.d.d.d.d.d.d.d.d.d.d.d.d.d.d.d.d.d.d.d.d.d.d.d.d.d.d.d.d.d.d.d.d.d.d.d.d.d.d.d.d.d.a.v.u.D.d.d.d.d.d.d.d.d.d.d.d.d.d.d.d.d.d.d.d.d.d.d.d.d.d.d.d.d.d.d.d.d.d.d.d.d.d.d.d.d.d.d.d.d.d.d.d.d.d.d.d.d.d.d.d.d.d.d.d.d.d.d.d.d.d.d.d.d.d.d.d.d.d.d.d.d.d.d.d.d.d.d.d.d.d.d.d.d.d.d.d.d.d.d.d.d.d.d.d.d.d.d.d.d.d.d.d.d.d.d.d.d.d.d.d.d.d.d.d.d.d.d.d.d.d.d.d.d.d.U*U.U.E.D.E.D.D.d.e.D.E.D.D.d.d.d.d.d.d.d.d.e.D.D.d.d.d.d.d.d.d.d.d.d.d.e.D.D.d.d.d.d.d.d.d.d.d.d.d.d.d.d.d.d.d.d.d.d.d.d.e.D.D.d.d.d.d.e.D.D.d.d.d.d.e.D.E.E.d.D.d.d.d.d.e.D.E.D.E.E.D.D.d.d.e.A.v.u.d.d.e.D.E.E.E.e.e.e.e.e.E.E.E.e.e.e.d.D.e.E.e.e.E.D.E.E.E.E.e.D.E.E.E.e.e.D.E.E.e.E.d.D.e.E.e.e.e.D.E.E.e.E.e.d.E.E.E.e.e.D.E.E.e.e.e.d.E.a.v.v.E.D.E.E.e.e.e.d.E.E.e.e.e.D.E.E.e.e.e.d.E.E.e.E.e.d.E.E.D.E.E.d.E.E.e.e.e.d.E.E.e.e.e.D.E.E.e.e.e.d.A.v.v.E.e.d.E.E.E.e.E.D.E.E.e.a.s.d.v.E.e.e.e.d.E.D.E.E.e.D.E.E.d.E.E.D.E.E.e.E.E.d.E.E.e.e.d.D.e.E.e.E.e.D.E.E.D.E.E.D.E.E.e.e.e.D.E.E.E.E.e.d.D.e.E.e.e.d.E.E.e.d.E.D.E.D.A.v.u.D.e.E.e.e.e.e.E.d.E.E.e.d.E.E.E.E.E.d.E.E.e.e.e.d.E.E.e.e.e.d.E.E.e.E.E.d.E.E.E.E.D.D.d.d.d.d.d.d.e.E.d.D.d.d.d.d.d.d.d.d.d.d.d.e.D.E.D.E.d.e.d.d.d.e.D.E.D.D.e.D.D.d.d.d.d.d.d.e.D.D.d.e.D.D.d.d.e.D.D.d.d.d.d.e.D.D.d.d.d.e.D.D.d.d.d.d.d.e.E.d.D.d.e.E.d.D.e.D.D.d.e.E.d.E.D.D.d.d.d.d.e.E.d.E.D.D.d.d.d.d.d.e.D.D.d.d.d.d.e.D.D.d.e.D.D.d.d.d.e.D.D.d.d.d.d.d.d.d.e.D.D.d.d.e.D.E.d.d.d.d.d.d.d.d.d.d.d.d.d.d.e.E.d.D.d.d.d.e.D.D.d.d.d.d.d.d.d.d.d.e.E.D.D.d.d.d.d.d.d.a.u.u.d.d.e.E.D.D.d.d.d.e.E.d.D.e.D.D.d.e.D.D.d.e.D.D.d.e.D.E.D.D.d.d.d.d.d.d.d.e.E.e.e.d.D.d.d.d.V,U.A.u.v.D.D.d.d.d.d.d.D.D.d.d.e.D.D.d.e.D.D.d.d.d.e.D.D.d.d.d.d.d.d.e.D.D.e.D.D.d.d.e.E.d.D.d.d.d.d.d.d.d.d.d.d.e.E.d.D.e.D.D.d.e.D.D.d.d.d.e.D.D.a.v.u.D.d.d.d.d.d.d.d.e.D.D.d.d.d.d.d.d.d.d.d.e.D.D.d.a.v.u.D.d.e.D.E.D.D.d.d.d.d.d.d.d.d.d.d.d.e.D.D.d.d.d.e.D.D.d.d.e.E.D.d.d.d.d.d.e.E.d.E.D.D.d.a.v.v.D.E.E.e.d.E.E.D.D.d.e.D.D.d.d.d.d.e.E.d.E.D.D.d.d.d.e.D.D.e.D.D.d.d.e.D.D.e.E.e.d.D.d.d.d.d.d.e.E.d.D.d.d.d.d.d.d.d.d.d.d.d.d.d.e.E.D.E.D.E.E.A.u.u.d.d.d.e.D.D.d.d.e.D.D.e.D.D.d.d.d.d.d.d.d.d.d.d.d.d.e.E.D.D.e.D.D.e.D.E.E.d.D.e.D.E.D.D.d.d.e.E.D.D.d.d.e.E.d.E.D.D.d.d.d.e.D.E.E.e.e.D.E.D.E.d.e.d.d.d.d.e.D.D.d.d.d.d.d.d.d.d.d.d.d.d.e.D.D.e.E.d.E.D.D.d.d.d.e.E.D.E.D.D.d.e.E.d.E.E.d.D.d.d.e.D.D.e.D.E.D.D.d.d.d.d.d.d.d.d.d.d.e.D.D.d.e.D.D.e.A.u.u.e.D.E.D.D.e.D.D.d.d.d.d.d.d.d.e.D.D.d.d.d.e.D.E.E.d.E.D.E.E.d.D.d.d.d.d.d.d.e.U*V.U.u.d.d.d.d.d.d.e.D.D.e.D.D.d.d.d.d.d.d.d.d.d.d.e.D.A.v.u.D.d.d.d.d.d.d.d.d.d.d.d.d.e.D.E.D.D.d.d.e.D.D.d.d.e.D.E.D.D.e.D.D.d.d.d.d.d.d.e.D.D.d.d.d.d.d.d.e.E.d.E.D.D.d.d.d.d.d.d.d.d.d.d.d.d.d.d.d.e.D.D.e.B.v.u.E.D.E.E.d.D.d.d.e.D.D.e.D.D.e.D.D.d.d.d.d.e.D.D.e.D.D.d.d.d.e.D.E.D.D.d.d.d.e.D.D.d.d.e.E.d.D.e.E.d.D.e.E.E.d.D.d.d.d.d.d.e.D.D.d.d.d.d.d.a.s.E.u.D.d.U,V.D.D.d.e.D.D.e.D.E.u.u.d.d.d.e.E.D.D.d.d.e.D.D.e.E.e.e.d.E.D.D.e.D.D.d.d.d.d.d.d.d.e.D.D.e.D.E.D.E.D.D.d.d.d.a.v.v.E.d.D.d.d.e.D.D.d.d.d.d.d.d.d.e.D.D.d.d.d.d.e.E.d.D.d.e.E.d.D.d.e.D.E.D.D.d.d.d.d.d.e.D.D.d.d.e.D.E.D.D.d.e.D.D.d.d.d.d.d.d.d.d.e.D.D.d.e.D.E.A.r.D.u.d.d.d.d.d.d.d.e.D.D.d.d.d.d.d.e.D.D.e.D.D.d.e.D.E.E.d.D.d.d.e.D.D.e.D.E.E.D.E.E.d.D.d.d.e.D.D.d.e.E.d.D.d.d.d.d.d.d.d.d.d.d.d.d.d.e.E.D.D.d.e.a.u.u.d.d.e.D.D.e.D.D.d.d.d.d.d.e.D.D.d.d.d.d.d.d.d.d.d.d.d.d.d.d.e.D.D.e.D.D.d.d.d.d.d.d.d.d.d.e.D.D.d.e.D.D.d.d.d.e.E.d.E.E.d.D.d.d.d.d.d.d.d.d.d.a.u.u.d.d.d.d.e.D.D.d.d.d.e.D.D.d.d.e.D.D.d.d.d.e.D.E.D.E.D.D.d.d.d.d.d.d.d.d.d.e.D.D.d.d.e.E.D.D.d.d.d.d.d.d.d.d.d.d.d.d.d.d.d.e.D.D.d.d.d.d.d.d.d.d.e.e.e.D.D.d.d.e.D.E.D.D.e.D.D.e.D.E.D.D.d.e.D.D.d.d.d.d.e.E.D.D.e.D.D.d.d.d.e.D.E.D.D.d.e.D.E.E.d.D.d.e.D.D.d.d.e.D.D.d.d.d.d.e.D.D.d.d.d.d.e.D.D.d.a.r.d.u.d.d.e.D.D.d.d.d.d.d.d.e.D.D.d.d.d.d.d.e.D.D.d.e.D.D.d.d.d.d.e.D.D.d.d.d.d.d.d.d.d.d.d.d.d.d.e.D.D.e.E.d.D.e.D.D.d.d.d.d.e.D.E.D.D.d.d.d.d.d.d.e.D.D.d.d.d.e.D.E.D.D.d.d.d.d.d.d.e.E.d.D.e.D.D.d.d.d.e.D.E.D.D.d.d.d.e.D.D.d.d.d.e.E.e.d.D.d.d.d.d.e.E.e.d.D.d.d.d.e.E.D.D.d.e.E.d.D.d.e.D.E.D.E.D.D.a.v.v.D.D.e.D.E.D.D.d.d.e.E.e.d.E.E.d.D.d.e.D.D.d.e.E.d.D.d.d.d.d.d.e.D.A.u.u.d.d.d.d.d.d.e.D.D.d.d.d.d.d.d.d.d.d.d.d.e.D.D.d.d.d.d.e.D.D.d.d.d.d.a.u.u.d.d.d.d.e.E.d.E.E.d.E.D.D.d.e.D.D.d.d.d.d.e.D.E.D.D.e.D.D.e.D.D.d.e.D.E.D.E.D.E.D.D.e.D.D.d.d.e.D.E.E.d.E.E.d.D.d.d.d.d.d.d.d.d.e.D.D.d.d.e.d.a.u.u.e.D.D.d.d.d.d.d.d.d.e.D.E.D.D.e.D.D.d.d.d.d.d.d.e.D.D.e.E.d.E.D.D.d.d.d.d.d.d.d.d.d.d.d.d.d.e.E.e.d.D.d.d.d.e.D.D.d.d.d.e.E.d.E.D.E.D.D.d.e.e.e.d.E.E.e.d.D.d.d.d.d.d.e.D.D.d.d.d.d.'
p1
.I00
.S'From-Botnet-UDP-DNS-DGA-1'
p1
.I-1
.