ccopy_reg
_reconstructor
p1
(cpykov
Vector
p2
c__builtin__
dict
p3
(dp4
S'1'
F0.02
sS'a'
F0.46000000000000002
sS'r'
F0.02
sS'e'
F0.01
sS','
F0.48999999999999999
stRp5
.ccopy_reg
_reconstructor
p1
(cpykov
Chain
p2
c__builtin__
dict
p3
(dp4
(S'1'
S'1'
tp5
F0.5
s(S','
S'e'
tp6
F0.020408163265306124
s(S'r'
S','
tp7
F1
s(S'a'
S','
tp8
F1
s(S'e'
S','
tp9
F1
s(S','
S'r'
tp10
F0.040816326530612249
s(S'1'
S','
tp11
F0.5
s(S','
S'a'
tp12
F0.93877551020408168
stRp13
(dp14
S'_guess'
p15
g1
(cpykov
Vector
p16
g3
(dp17
S'1'
F0.02
sS'a'
F0.46000000000000002
sS'r'
F0.02
sS'e'
F0.01
sS','
F0.48999999999999999
stRp18
sb.S'11,a,a,a,a,a,a,a,a,a,a,a,a,a,a,a,a,a,a,a,a,a,a,a,a,a,a,a,a,a,a,a,a,a,a,e,r,r,a,a,a,a,a,a,a,a,a,a,a,a,a,a,a,a,a,a,e,A,A,a,a,a,a,a,a,a,a,a,a,a,a,a,a,a,a,a,a,a,a,a,a,a,a,a,a,a,a,a,a,a,a,a,a,a,a,e,A,A,a,a,a,e,r,r,a,a,a,a,a,a,a,a,a,a,a,a,a,a,a,a,a,a,a,a,a,a,a,a,a,a,a,a,a,a,a,a,a,a,a,u,r,A,a,a,a,a,a,a,a,a,u,r,A,a,a,a,a,e,A,A,a,a,a,a,v,r,A,a,a,a,a,a,a,a,a,a,a,a,a,a,a,a,a,a,a,a,a,a,a,a,a,a,a,a,a,a,a,a,a,a,a,a,a,a,a,a,a,a,a,a,a,a,a,a,a,a,a,a,a,a,a,a,a,a,e,E,A,A,a,a,a,a,a,a,a,a,a,a,a,a,a,a,a,a,a,a,u,v,a,A,a,a,a,a,a,a,a,a,a,a,a,a,a,a,a,a,a,a,a,a,a,a,a,a,a,a,a,a,a,e,r,r,a,a,a,a,u,r,A,a,a,a,a,a,a,a,a,a,a,a,a,a,a,a,a,a,a,a,a,a,a,a,e,a,a,a,a,a,a,a,a,a,a,a,a,a,a,a,a,a,a,a,a,a,a,a,a,a,a,a,a,a,a,a,a,e,A,A,a,a,a,a,a,a,a,a,a,a,a,a,a,a,a,a,a,a,a,a,a,a,a,a,a,a,a,u,r,A,a,a,a,a,a,a,a,a,a,a,a,a,a,a,a,a,a,a,a,a,a,a,a,a,a,a,a,a,a,a,a,a,a,a,a,a,a,a,a,a,a,a,a,a,a,a,a,a,a,a,a,a,a,a,a,a,a,a,a,a,a,a,a,a,a,a,a,a,a,a,a,a,a,a,a,a,a,a,a,a,a,a,a,a,a,a,a,a,a,a,a,a,a,a,a,a,a,a,a,a,a,a,a,a,a,a,a,a,a,a,a,a,a,a,a,a,a,a,a,a,a,a,a,a,a,a,a,a,a,a,a,e,A,A,a,a,a,a,a,a,a,a,a,a,a,a,a,a,a,a,a,a,a,a,a,a,a,a,a,a,a,a,a,a,a,a,a,a,a,a,a,a,a,a,a,a,a,a,a,a,e,v,r,A,a,a,a,a,a,a,a,a,a,a,a,a,a,a,a,a,a,a,a,a,a,a,a,u,r,A,a,a,a,e,a,a,a,a,a,a,a,u,r,A,a,a,a,a,a,a,a,a,a,a,a,a,a,a,a,a,a,a,a,a,a,a,a,a,a,a,a,a,a,a,a,a,a,a,a,a,a,a,a,a,a,u,r,A,a,a,a,a,a,a,a,a,a,a,a,a,a,a,a,a,a,a,a,a,a,a,a,a,a,a,a,a,a,e,A,A,a,e,a,a,a,a,a,a,a,a,a,e,a,a,a,a,a,a,a,a,a,a,a,a,a,a,a,a,a,a,a,a,a,a,a,a,a,a,a,a,a,a,a,a,a,a,a,a,a,a,a,a,a,a,a,a,a,a,a,a,a,a,a,a,a,a,a,e,A,A,a,a,a,a,a,a,a,a,a,a,a,a,a,a,a,a,a,a,a,a,a,a,a,a,a,a,a,a,e,a,a,a,a,a,a,a,a,a,a,a,a,a,a,a,a,a,a,a,a,a,a,a,a,a,a,a,a,a,a,a,a,a,a,a,a,a,a,e,a,a,a,a,a,a,a,a,a,a,a,a,a,a,a,a,a,a,a,a,a,a,a,a,a,a,a,a,a,a,a,a,a,a,a,a,a,a,a,a,a,a,a,a,e,a,a,a,a,a,a,a,a,a,a,a,a,a,a,a,a,a,a,a,a,a,a,a,a,a,a,a,a,a,a,a,a,a,a,a,a,a,a,a,a,a,a,a,a,a,u,r,A,a,a,a,a,a,a,a,a,a,a,a,a,a,a,a,a,a,a,a,a,a,a,a,a,a,a,a,a,a,a,a,a,a,a,a,a,a,a,a,a,a,a,a,a,a,a,a,a,a,a,a,a,u,r,E,a,a,a,a,a,a,a,a,a,a,a,a,a,a,a,a,a,a,a,a,a,a,a,a,a,a,a,a,a,a,a,a,a,a,a,a,a,a,a,a,a,a,a,a,a,a,a,a,a,a,a,a,a,a,a,a,a,a,a,a,a,a,a,a,a,a,a,a,a,a,a,a,a,a,a,u,r,A,a,a,a,a,e,E,A,A,a,a,a,a,a,a,a,u,r,A,u,r,A,a,a,a,a,a,a,a,a,a,a,a,a,a,a,a,a,a,a,a,a,a,a,a,a,a,a,a,a,a,a,a,a,a,a,a,a,a,a,a,a,a,a,a,a,a,e,A,A,a,a,a,a,a,u,r,A,a,a,a,a,a,a,a,a,a,a,a,a,a,a,a,a,a,a,a,a,a,a,a,a,a,a,a,a,a,a,a,a,a,a,a,e,a,a,a,u,r,A,a,a,u,r,A,e,A,A,a,a,a,a,a,a,a,a,a,a,a,a,a,a,a,a,a,a,a,a,a,a,a,a,a,a,a,a,a,a,a,a,a,a,e,A,A,a,a,a,a,a,a,a,a,a,a,a,a,a,a,a,a,a,e,U,R,E,a,a,a,a,a,a,a,a,a,a,a,a,a,e,A,A,a,a,a,a,a,u,r,A,a,a,a,a,a,a,a,a,a,a,a,a,a,a,a,a,a,a,a,a,a,a,e,a,a,a,a,a,a,a,a,a,a,a,a,a,a,u,r,A,a,a,a,a,a,a,a,a,a,a,a,a,a,a,a,a,a,a,a,e,a,a,a,a,a,a,a,a,a,a,a,a,a,a,a,a,a,a,a,a,a,a,a,a,a,a,a,a,a,a,a,a,a,a,a,a,a,a,a,a,e,a,a,a,a,a,a,a,a,a,a,e,u,r,A,a,a,a,a,a,a,a,a,a,a,a,a,a,u,r,E,A,A,a,a,a,a,a,a,a,a,a,a,a,a,a,a,a,a,a,a,a,a,a,a,a,a,a,a,a,a,a,a,a,a,a,a,a,a,a,a,a,e,R,R,A,a,a,a,a,a,a,a,a,a,a,a,a,a,a,a,a,a,a,a,a,a,a,a,a,a,a,a,a,a,a,a,a,a,a,a,a,a,a,a,a,a,a,a,a,a,a,a,a,a,a,e,A,E,u,r,A,a,a,a,a,a,a,a,v,r,A,a,a,a,a,a,a,a,a,a,a,a,a,a,a,a,a,a,a,a,a,a,a,a,a,a,a,v,r,A,a,a,a,a,a,a,a,a,a,a,a,a,a,a,a,a,a,a,a,a,a,a,a,a,a,a,a,a,a,a,a,a,e,A,A,a,a,u,r,A,a,a,a,a,e,E,A,A,a,a,a,a,a,a,a,a,a,a,a,a,a,a,a,a,a,a,a,a,a,a,u,r,A,a,a,a,a,a,a,a,e,A,A,a,a,a,a,a,a,a,a,a,a,a,a,a,a,a,a,a,a,a,a,u,r,A,a,a,a,a,a,a,a,a,a,a,a,a,a,a,a,a,a,a,a,a,a,a,a,a,a,a,a,a,a,a,a,a,a,a,e,a,a,a,a,a,a,a,a,a,a,a,a,a,a,a,a,a,a,a,a,a,u,r,A,a,a,a,a,a,a,a,a,a,a,a,a,a,a,a,a,a,a,a,a,a,a,a,a,a,a,a,a,a,a,a,e,v,R,A,a,a,a,a,a,a,a,v,V,A,A,a,a,a,a,a,a,a,a,u,r,A,a,e,a,a,a,a,a,'
p1
.F-904.18436561747774
.S'From-Botnet-TCP-Unknown-CC-1'
p1
.F1.1000000000000001
.