(dp1
S'a'
F0.00016672224074691563
sS'b'
F0.00016672224074691563
sS'E'
F0.00033344448149383126
sS'h'
F0.20740246748916305
sS'v'
F0.00033344448149383126
sS','
F0.49849949983327774
sS'.'
F0.001333777925975325
sS'y'
F0.00066688896298766251
sS'H'
F0.28992997665888631
sS'Y'
F0.00066688896298766251
sS'8'
F0.00033344448149383126
sS'e'
F0.00016672224074691563
s.ccopy_reg
_reconstructor
p1
(cstf.common.markov_chains
Matrix
p2
c__builtin__
dict
p3
(dp4
(S'H'
S','
tp5
F1
s(S'.'
S'Y'
tp6
F0.375
s(S'b'
S','
tp7
F1
s(S','
S'e'
tp8
F0.00033444816053511704
s(S'8'
S'8'
tp9
F0.5
s(S'y'
S'.'
tp10
F0.5
s(S'E'
S','
tp11
F1
s(S'y'
S','
tp12
F0.5
s(S'.'
S'H'
tp13
F0.125
s(S','
S'H'
tp14
F0.58127090301003348
s(S'h'
S','
tp15
F1
s(S','
S'v'
tp16
F0.00066889632107023408
s(S'.'
S'y'
tp17
F0.5
s(S'a'
S'.'
tp18
F1
s(S','
S'Y'
tp19
F0.00033444816053511704
s(S','
S'b'
tp20
F0.00033444816053511704
s(S','
S'E'
tp21
F0.00066889632107023408
s(S'Y'
S'.'
tp22
F0.75
s(S'e'
S','
tp23
F1
s(S'8'
S','
tp24
F0.5
s(S'Y'
S','
tp25
F0.25
s(S'v'
S'.'
tp26
F1
s(S','
S'h'
tp27
F0.41605351170568561
s(S','
S'a'
tp28
F0.00033444816053511704
stRp29
(dp30
S'itemlist'
p31
(lp32
sS'init_vector'
p33
(dp34
S'a'
F0.00016672224074691563
sS'b'
F0.00016672224074691563
sS'E'
F0.00033344448149383126
sS'h'
F0.20740246748916305
sS'v'
F0.00033344448149383126
sS','
F0.49849949983327774
sS'.'
F0.001333777925975325
sS'y'
F0.00066688896298766251
sS'H'
F0.28992997665888631
sS'Y'
F0.00066688896298766251
sS'8'
F0.00033344448149383126
sS'e'
F0.00016672224074691563
ssb.S'88,H,H,h,H,H,h,h,h,h,h,H,h,H,H,H,H,H,H,H,H,H,H,H,H,H,h,h,h,h,H,h,H,h,h,H,h,H,H,h,H,h,h,H,H,h,h,H,H,H,H,H,H,h,h,h,H,H,H,H,h,h,h,H,H,h,H,H,H,H,H,H,h,h,h,H,H,H,H,h,H,h,H,h,H,h,H,h,h,h,h,H,H,H,H,h,H,h,H,H,H,H,H,h,h,H,H,h,H,H,h,h,h,H,H,h,H,H,h,h,H,H,h,H,H,h,H,h,H,h,H,h,H,h,h,H,H,h,h,H,H,H,H,H,H,H,H,H,H,h,H,h,H,H,H,H,H,h,h,h,H,H,H,H,h,H,h,H,H,H,h,H,H,H,H,H,h,h,H,H,h,h,H,H,h,H,h,H,H,H,H,H,H,h,h,H,h,h,H,H,h,H,H,h,H,h,H,H,H,H,H,h,H,h,H,H,H,H,H,h,H,h,H,h,H,h,H,h,H,h,H,H,H,H,H,h,h,H,H,h,h,H,H,H,H,H,H,h,H,h,H,H,H,H,H,h,h,H,H,h,H,H,h,h,H,h,h,H,h,H,H,h,H,H,H,H,H,H,h,h,h,H,H,H,H,h,H,h,H,H,H,H,H,h,h,H,H,h,h,h,H,H,h,H,h,H,H,h,H,h,h,h,H,H,H,H,h,H,h,H,h,h,H,H,h,h,h,H,h,h,h,H,H,H,H,h,H,h,H,h,h,h,H,H,h,H,H,H,H,H,H,H,H,H,H,H,H,H,H,h,h,H,h,H,h,h,H,H,H,H,h,H,h,H,h,h,H,H,h,h,H,H,h,h,H,H,h,H,H,h,H,h,H,H,H,H,H,h,h,H,H,h,h,H,H,h,h,H,H,h,H,H,h,h,h,h,H,H,H,H,h,H,h,H,h,H,h,H,h,h,H,H,h,H,H,h,h,H,H,h,h,H,H,h,h,h,H,h,H,H,H,h,H,H,h,h,H,H,h,h,H,H,h,h,H,H,h,H,H,h,h,h,h,h,H,h,H,h,h,h,H,H,H,H,h,h,H,H,h,h,h,H,H,H,H,H,h,h,H,H,h,H,H,h,h,h,H,H,h,H,H,h,h,H,H,h,H,H,h,H,h,H,h,H,h,H,h,H,h,H,h,h,H,H,h,h,H,H,h,H,h,H,H,H,H,H,h,H,h,H,h,h,H,H,h,H,H,h,H,h,H,h,h,h,H,H,h,h,H,H,h,h,H,H,H,H,h,H,h,H,h,H,h,H,H,h,H,h,H,h,H,H,h,h,H,H,h,H,h,H,h,H,h,H,h,h,h,H,H,H,H,h,H,h,H,h,h,H,H,h,h,H,H,h,H,h,H,h,h,H,H,h,H,H,h,H,h,H,h,h,H,H,h,H,H,h,H,h,H,h,h,H,H,h,h,h,H,H,h,h,H,H,H,H,h,H,h,H,H,H,H,H,h,h,H,H,h,h,H,H,h,H,h,H,H,H,H,H,H,H,H,H,H,E,v.y.y,h,H,h,H,H,h,h,H,h,H,h,H,h,h,H,h,h,H,h,h,H,h,H,H,h,H,h,H,H,H,H,H,h,H,H,H,H,H,H,h,h,H,H,h,h,H,H,h,h,h,h,H,h,H,H,H,H,H,H,H,H,H,H,H,H,H,h,H,h,h,H,h,h,h,H,H,H,H,h,h,H,H,h,H,H,h,h,h,H,H,h,H,H,h,H,h,H,h,h,h,H,H,H,H,h,h,H,H,h,h,H,H,h,h,h,H,H,H,H,h,h,h,H,H,h,H,H,H,H,H,H,h,h,H,H,h,H,H,h,H,h,H,H,H,H,H,h,H,h,H,h,h,H,H,h,h,H,H,H,H,H,H,h,H,h,H,H,H,H,H,h,h,h,H,H,H,H,h,h,H,H,h,h,H,H,h,h,H,H,h,H,H,h,H,h,H,h,H,H,H,H,H,H,H,h,H,h,H,h,H,h,H,h,H,h,H,h,H,h,h,H,h,h,h,H,H,H,H,h,H,h,H,h,h,h,H,H,H,H,h,H,h,H,H,h,h,H,H,h,H,h,H,h,H,H,h,H,H,h,h,H,H,h,h,H,H,h,H,h,H,h,H,h,H,h,H,h,H,h,H,h,H,h,h,H,H,h,h,H,H,h,h,H,h,H,h,h,h,h,H,H,h,h,h,H,h,H,H,h,h,H,H,H,H,H,H,h,H,h,H,H,h,H,H,h,h,h,h,h,h,H,H,h,h,H,h,H,h,H,H,H,H,H,h,h,H,h,h,H,h,H,H,h,H,H,h,h,H,H,h,H,H,h,H,h,H,H,h,h,H,H,H,H,H,h,h,H,h,H,h,H,h,H,h,h,H,h,H,h,h,H,h,H,h,H,h,H,H,h,h,h,h,H,h,H,H,H,H,H,h,h,H,H,h,H,H,h,h,h,H,H,h,H,H,h,h,H,H,h,h,h,H,H,h,h,H,H,H,H,h,H,h,H,h,h,h,H,H,H,H,H,H,H,H,h,h,H,H,h,h,H,H,h,H,h,H,h,H,h,H,h,h,H,H,h,H,H,H,H,H,H,h,h,H,h,h,H,h,h,H,H,h,H,H,h,h,h,H,h,H,H,H,h,H,H,h,h,H,h,H,h,H,h,h,H,H,h,h,H,H,h,H,h,H,H,H,H,H,h,H,h,H,H,H,H,H,h,h,H,H,h,H,H,h,h,h,h,H,H,H,H,H,H,H,H,H,h,h,H,h,h,h,H,H,H,H,h,H,h,H,h,h,H,H,h,h,H,H,h,H,h,H,h,H,h,H,h,h,H,H,h,H,H,h,h,H,H,h,h,h,H,H,H,H,H,h,h,H,H,h,h,H,H,H,h,h,H,h,H,h,H,H,H,H,H,h,H,h,H,h,H,h,H,h,H,h,H,h,h,H,H,h,H,H,h,h,H,H,h,h,H,H,H,h,H,H,h,h,H,H,h,H,H,h,h,H,H,h,h,H,H,H,h,H,H,h,h,h,H,H,H,H,h,H,h,H,h,h,H,h,H,h,a.Y.Y,h,h,h,H,h,H,h,H,h,H,h,H,h,h,h,h,H,h,H,h,H,h,H,H,H,H,H,h,H,h,H,h,h,H,H,h,h,H,H,H,h,H,h,h,H,h,H,h,h,H,H,h,H,H,h,h,h,H,H,h,H,H,h,H,h,H,h,h,H,h,H,h,h,H,H,H,H,h,H,h,H,H,h,H,H,h,h,H,H,h,H,h,H,h,H,h,H,h,h,h,H,H,H,H,h,h,H,H,h,h,H,H,H,H,H,H,h,H,h,H,H,H,H,H,h,h,H,H,h,H,H,h,H,h,H,h,H,h,H,H,H,H,H,h,h,H,h,h,H,H,h,h,H,h,h,H,H,H,H,h,h,H,H,h,H,H,h,H,h,H,h,H,h,H,h,h,H,H,h,h,H,H,h,H,h,H,h,h,H,H,h,H,H,H,H,H,H,h,h,h,H,H,h,H,H,H,H,H,H,h,h,H,H,h,H,H,H,h,h,H,h,h,H,H,h,h,h,H,H,h,h,h,H,h,H,H,H,H,H,H,H,H,H,h,H,h,H,H,H,H,H,h,h,H,H,h,h,h,H,H,H,h,H,h,h,h,H,H,H,H,h,H,h,H,h,H,h,H,h,H,h,H,h,h,H,H,h,h,H,H,h,h,H,H,h,H,H,h,H,h,H,h,h,H,H,h,h,H,H,h,h,H,H,h,H,H,H,H,H,H,h,h,H,H,h,h,H,H,h,h,H,H,h,H,H,H,H,H,H,h,h,h,H,h,h,H,h,h,h,H,H,h,h,H,H,h,h,H,h,H,H,h,H,H,h,H,H,h,h,H,H,h,H,H,h,h,H,H,h,h,H,H,h,H,h,H,H,H,h,H,h,h,H,H,h,H,H,h,H,h,H,h,H,h,H,H,H,H,H,h,H,h,H,h,H,h,H,h,h,H,h,H,h,H,H,h,h,H,H,H,h,h,h,h,h,H,H,H,H,H,H,h,h,h,H,H,H,H,h,h,H,H,h,h,H,h,h,H,h,H,h,h,h,H,H,H,H,h,h,H,H,h,h,H,H,H,H,H,H,h,H,h,H,h,H,h,H,h,H,h,H,h,H,h,H,h,H,h,H,h,h,H,H,h,H,H,H,H,H,H,h,H,h,H,H,H,H,H,H,H,H,H,h,H,h,H,h,H,h,H,H,h,h,H,h,H,h,H,h,H,h,H,h,H,h,H,h,h,H,H,h,h,H,H,H,H,H,H,h,h,h,H,H,H,H,H,H,H,H,h,H,h,H,h,h,H,h,H,h,h,H,H,h,H,H,h,h,h,H,H,H,H,h,h,h,H,H,h,H,H,h,H,h,H,h,H,h,H,H,H,H,H,h,h,h,H,H,H,H,h,H,h,H,H,H,H,H,h,H,h,H,h,H,h,H,h,H,h,H,H,H,H,H,h,h,h,H,H,h,H,H,h,h,H,H,h,H,H,h,H,h,H,H,H,H,H,h,H,h,H,h,h,h,H,H,h,H,H,h,H,h,H,h,h,H,H,h,H,H,h,H,e,v.y.y,H,H,H,H,H,H,H,h,h,H,H,h,h,H,H,h,H,h,H,H,H,H,H,h,H,h,H,h,H,h,H,h,h,H,H,h,h,H,h,H,h,H,h,H,h,H,h,H,h,H,h,H,h,H,h,h,H,h,H,h,h,h,h,h,H,H,h,H,H,H,H,H,H,h,h,H,H,h,h,h,H,h,h,H,H,h,H,H,H,H,H,H,H,H,H,H,h,H,h,H,h,h,H,H,h,h,H,H,H,H,H,H,h,H,h,H,h,H,h,H,h,h,H,H,h,H,H,h,h,H,H,h,h,H,H,h,h,H,H,h,h,H,H,H,H,H,h,h,H,H,h,h,H,H,h,H,h,H,h,H,h,H,H,H,H,H,h,H,h,H,H,H,H,H,h,H,h,H,h,H,h,H,h,H,h,H,h,H,h,H,h,h,h,H,H,H,H,H,H,H,H,h,E,H,H,H,h,h,H,H,h,h,H,H,h,H,h,H,h,H,h,H,h,H,h,H,h,h,h,h,h,H,H,h,h,H,H,H,H,H,H,h,h,h,H,H,H,H,h,h,H,H,h,h,H,H,H,H,H,H,H,H,H,H,h,h,H,H,h,H,H,h,h,H,H,h,H,H,h,H,H,H,H,h,H,h,H,H,H,H,H,h,H,h,H,h,h,h,H,H,H,H,h,h,h,h,h,h,H,H,h,H,H,h,H,h,H,H,H,H,H,h,h,h,H,H,h,H,H,h,H,h,H,h,H,h,H,h,H,h,H,h,h,h,H,H,H,H,h,H,h,H,h,h,H,H,h,h,H,H,h,H,h,H,h,H,h,H,h,h,H,H,h,H,H,h,H,h,H,h,H,h,H,H,H,H,H,H,H,H,H,h,h,H,H,h,h,H,H,h,h,H,H,h,H,H,h,h,h,H,H,h,H,H,H,H,H,H,H,H,H,H,h,h,H,H,h,H,H,H,H,H,H,h,h,h,h,h,H,h,H,h,h,h,H,H,H,H,h,h,h,h,H,H,H,H,H,H,H,H,H,H,H,H,H,H,H,H,h,h,h,h,H,h,H,H,H,H,H,H,H,H,H,h,h,H,H,h,h,H,H,H,H,H,H,h,H,h,H,h,h,h,H,H,H,H,h,h,h,h,H,H,H,H,h,h,H,H,h,h,H,h,H,h,H,H,h,h,h,h,H,h,H,H,H,H,H,h,H,h,H,h,h,h,H,H,H,H,h,h,h,H,H,h,H,H,H,H,H,H,h,h,H,H,h,H,H,h,h,H,H,h,h,H,H,h,H,h,H,h,H,H,h,h,H,H,h,h,H,H,h,H,H,H,H,H,H,h,H,H,h,h,H,H,h,h,H,H,h,h,h,H,H,h,h,H,H,H,H,h,H,h,H,h,h,h,h,H,H,H,H,H,H,H,H,h,H,h,H,h,H,h,H,h,h,h,H,H,H,H,h,H,h,H,H,H,H,H,h,h,H,H,h,h,H,H,h,H,h,H,H,H,H,H,H,H,H,H,H,H,H,H,H,H,H,H,H,H,H,H,h,b,Y.Y.H,H,H,H,h,H,h,H,h,h,H,H,h,h,H,H,h,h,H,H,h,H,H,h,H,h,H,h,h,h,h,h,H,h,H,h,H,h,H,h,H,H,h,h,H,H,h,H,h,H,h,H,h,H,h,h,h,H,H,H,H,H,H,H,H,h,h,H,H,h,h,H,H,h,H,H,h,h,H,H,H,H,H,H,H,H,H,H,h,H,h,H,h,h,h,H,H,h,H,H,h,h,H,H,h,H,H,h,h,H,H,h,h,H,H,h,h,h,H,h,h,H,H,H,H,H,H,H,H,H,h,h,H,H,h,h,H,H,h,H,h,H,H,H,H,H,h,h,h,H,H,H,H,h,h,H,H,h,h,H,H,h,h,h,h,H,h,H,h,h,h,H,H,h,H,H,h,H,h,H,h,h,h,h,H,h,H,h,H,h,H,H,H,H,H,h,H,h,H,h,H,h,H,h,H,h,H,h,h,h,H,H,h,H,H,H,H,H,'
p1
.F-2109.3011459443201
.S'From-Botnet-TCP-Unknown-Linux.Botnet-1'
p1
.F1.1000000000000001
.