ccopy_reg
_reconstructor
p1
(cpykov
Vector
p2
c__builtin__
dict
p3
(dp4
S'Y'
F0.063186813186813184
sS'I'
F0.0027472527472527475
sS'H'
F0.074175824175824176
sS'+'
F0.043956043956043953
sS'*'
F0.016483516483516484
sS','
F0.43681318681318682
sS'i'
F0.0027472527472527475
sS'S'
F0.0027472527472527475
sS'h'
F0.15109890109890112
sS'y'
F0.19505494505494506
sS'8'
F0.0054945054945054949
sS'z'
F0.0054945054945054949
stRp5
.ccopy_reg
_reconstructor
p1
(cpykov
Chain
p2
c__builtin__
dict
p3
(dp4
(S'H'
S','
tp5
F0.92592592592592604
s(S'i'
S','
tp6
F1
s(S','
S'y'
tp7
F0.40251572327044027
s(S'8'
S'8'
tp8
F0.5
s(S'z'
S','
tp9
F1
s(S'h'
S'+'
tp10
F0.036363636363636362
s(S'+'
S'y'
tp11
F0.37500000000000006
s(S'H'
S'*'
tp12
F0.037037037037037042
s(S'y'
S','
tp13
F0.91549295774647887
s(S','
S'i'
tp14
F0.0062893081761006293
s(S','
S'h'
tp15
F0.33333333333333337
s(S'*'
S'y'
tp16
F0.16666666666666669
s(S','
S'H'
tp17
F0.15723270440251574
s(S'S'
S'*'
tp18
F1
s(S'Y'
S'+'
tp19
F0.30434782608695654
s(S'h'
S','
tp20
F0.96363636363636362
s(S'I'
S','
tp21
F1
s(S','
S'Y'
tp22
F0.081761006289308172
s(S'8'
S','
tp23
F0.5
s(S'*'
S'H'
tp24
F0.33333333333333337
s(S','
S'S'
tp25
F0.0062893081761006293
s(S','
S'z'
tp26
F0.0062893081761006293
s(S'H'
S'+'
tp27
F0.037037037037037042
s(S'+'
S'Y'
tp28
F0.43750000000000006
s(S'Y'
S','
tp29
F0.52173913043478259
s(S','
S'I'
tp30
F0.0062893081761006293
s(S'*'
S'Y'
tp31
F0.5
s(S'+'
S'z'
tp32
F0.062500000000000014
s(S'Y'
S'*'
tp33
F0.17391304347826089
s(S'y'
S'+'
tp34
F0.084507042253521125
s(S'+'
S'h'
tp35
F0.12500000000000003
stRp36
(dp37
S'_guess'
p38
g1
(cpykov
Vector
p39
g3
(dp40
S'Y'
F0.063186813186813184
sS'I'
F0.0027472527472527475
sS'H'
F0.074175824175824176
sS'+'
F0.043956043956043953
sS'*'
F0.016483516483516484
sS','
F0.43681318681318682
sS'i'
F0.0027472527472527475
sS'S'
F0.0027472527472527475
sS'h'
F0.15109890109890112
sS'y'
F0.19505494505494506
sS'8'
F0.0054945054945054949
sS'z'
F0.0054945054945054949
stRp41
sb.S'88,h,h,h,h,h,h,h,h,h,h,h,h,h,h,h,h,h,h,h,h,h,h,h,h,h,h,h,h,h,h,h,h,h,y,h,y,y,y,y,H,y,y,y,h,y,h,H,y,y,h,H,h,y,h,y,y,h,y,H,H,y,H,y,h,H,h,h,h,S*H*Y,H,H,y,h,H,Y+Y,Y*Y,y,h,H,h,Y+Y,I,y,H,y,H,Y+y+y,y,Y*H+Y,H,h,Y+Y,Y*y+y+y+Y,H,Y+Y,y,y,y,Y*Y,y,y,H,H,y+h+h+y,y,y,Y+Y,y,h,H,y,y,y,y,y,H,y,y,y,Y+z,y,y,y,y,H,H,y,y,y,i,y,Y,H,y,H,y,y,y,y+y,y,y,y,H,y,Y,y,z,y,y,y,h,h,h,y,H,y,y,h,y,'
p1
.F-302.40619917756732
.S'From-Botnet-TCP-HTTP-CC-23'
p1
.F1.1000000000000001
.