(dp1
S'C'
F0.00020848535390388824
sS'b'
F0.0011466694464713854
sS'S'
F0.0010424267695194412
sS'+'
F0.4942145314291671
sS'*'
F0.0018763681851349944
sS','
F0.00020848535390388824
sS'0'
F0.0069842593557802564
sS's'
F0.10361722089023247
sS'2'
F0.00020848535390388824
sS'B'
F0.39049306786198268
s.ccopy_reg
_reconstructor
p1
(cstf.common.markov_chains
Matrix
p2
c__builtin__
dict
p3
(dp4
(S'0'
S'S'
tp5
F0.029850746268656716
s(S's'
S'*'
tp6
F0.017102615694164991
s(S'2'
S'2'
tp7
F0.5
s(S'+'
S'0'
tp8
F0.00042185192997257963
s(S'B'
S'+'
tp9
F1
s(S'+'
S'S'
tp10
F0.00063277789495886944
s(S','
S'S'
tp11
F1
s(S'*'
S'S'
tp12
F0.055555555555555552
s(S'+'
S's'
tp13
F0.20607466779160516
s(S'S'
S'*'
tp14
F0.10000000000000001
s(S'*'
S's'
tp15
F0.94444444444444442
s(S'+'
S'C'
tp16
F0.00042185192997257963
s(S'S'
S','
tp17
F0.20000000000000001
s(S'+'
S'b'
tp18
F0.0023201856148491878
s(S'b'
S'+'
tp19
F1
s(S'C'
S'+'
tp20
F1
s(S'S'
S'S'
tp21
F0.20000000000000001
s(S'2'
S'+'
tp22
F0.5
s(S's'
S'+'
tp23
F0.98289738430583506
s(S'+'
S'B'
tp24
F0.79012866483864164
s(S'0'
S'0'
tp25
F0.97014925373134331
s(S'S'
S'+'
tp26
F0.5
stRp27
(dp28
S'itemlist'
p29
(lp30
sS'init_vector'
p31
(dp32
S'C'
F0.00020848535390388824
sS'b'
F0.0011466694464713854
sS'S'
F0.0010424267695194412
sS'+'
F0.4942145314291671
sS'*'
F0.0018763681851349944
sS','
F0.00020848535390388824
sS'0'
F0.0069842593557802564
sS's'
F0.10361722089023247
sS'2'
F0.00020848535390388824
sS'B'
F0.39049306786198268
ssb.S'22+B+B+B+B+B+B+B+B+B+B+B+B+s+B+B+B+s+B+B+B+B+B+B+B+s+B+B+B+s+B+B+B+s+B+B+B+s+B+B+B+s+B+B+B+s+B+B+B+s+B+B+B+B+B+B+B+s+B+B+B+s+B+B+B+s+B+s+B+s+B+B+B+s+B+B+B+s+B+B+B+s+B+B+B+s+B+B+B+s+B+B+B+s+B+B+B+s+B+B+B+s+B+B+B+s+B+B+B+s+B+B+B+s+B+B+B+B+B+B+B+B+B+B+B+s+B+B+B+s+B+B+B+B+B+B+B+B+B+B+B+B+B+B+B+s+B+B+B+s+B+B+B+s+B+B+B+s+B+B+B+s+B+B+B+s+B+B+B+s+B+B+B+B+B+B+B+s+B+B+B+s+B+B+B+s+B+B+B+s+B+s+B+B+B+B+B+s+B+B+B+s+B+B+B+s+B+B+B+s+B+B+B+s+B+B+B+s+B+B+B+s+B+B+B+s+B+B+B+B+B+B+B+B+B+B+B+s+B+B+B+s+B+B+B+s+B+B+B+s+B+B+B+B+B+B+B+s+B+B+B+s+B+B+B+s+B+B+B+s+B+B+B+B+B+B+B+B+B+B+B+s+B+B+B+s+B+B+B+s+B+B+B+B+B+B+B+s+B+B+B+s+B+B+B+s+B+B+B+s+B+B+B+s+B+B+B+s+B+B+B+s+B+B+B+s+B+B+B+s+B+B+B+s+B+B+B+s+B+B+B+s+B+B+B+s+B+B+B+s+B+B+B+s+B+B+B+s+B+s+B+s+B+B+B+s+B+B+B+s+B+B+B+s+B+B+B+s+B+s+B+s+B+B+B+B+B+B+B+B+B+B+B+B+B+B+B+s+B+B+B+s+B+B+B+s+B+B+B+s+B+B+B+s+B+B+B+s+B+B+B+s+B+B+B+s+B+B+B+s+B+B+B+s+B+B+B+s+B+B+B+s+B+B+B+s+B+B+B+B+B+B+B+s+B+B+B+B+B+B+B+s+B+B+B+s+B+B+B+s+B+B+B+B+B+B+B+s+B+B+B+s+B+B+B+s+B+B+B+s+B+B+B+s+B+B+B+s+B+s+B+s+B+B+B+s+B+B+B+s+B+B+B+s+B+B+B+s+B+B+B+s+B+B+B+s+B+B+B+s+B+B+B+s+B+B+B+s+B+B+B+s+B+B+B+s+B+B+B+s+B+B+B+s+B+B+B+B+B+B+B+s+B+B+B+s+B+B+B+B+B+B+B+s+B+B+B+s+B+B+B+s+B+B+B+s+B+B+B+s+B+B+B+s+B+B+B+s+B+B+B+B+B+B+B+s+B+B+B+s+B+B+B+s+B+B+B+s+B+B+B+s+B+B+B+s+B+B+B+B+B+B+B+s+B+B+B+s+B+B+B+s+B+B+B+s+B+B+B+s+B+B+B+s+B+B+B+s+B+B+B+s+B+B+B+s+B+B+B+B+B+B+B+s+B+B+B+s+B+B+B+B+B+B+B+s+B+B+B+B+B+B+B+s+B+B+B+B+B+B+B+B+B+B+B+s+B+B+B+B+B+B+B+s+B+B+B+s+B+B+B+s+B+B+B+B+B+B+B+s+B+B+B+s+B+B+B+s+B+s+B+B+B+B+B+B+B+B+B+B+B+B+B+s+B+B+B+B+B+B+B+B+B+B+B+s+B+B+B+B+B+B+B+s+B+B+B+s+B+B+B+s+B+B+B+s+B+B+B+s+B+B+B+B+B+B+B+B+b+B+B+s+B+B+B+s+B+B+b+s+B+B+B+B+B+B+B+B+B+B+B+s+B+B+B+s+B+B+B+s+B+B+B+s+B+B+B+s+B+B+B+s+B+B+B+s+B+s+B+s+B+B+B+s+B+B+B+s+B+B+B+s+B+B+B+s+B+B+B+s+B+B+B+s+B+B+B+s+B+B+B+s+B+B+B+s+B+B+B+s+B+B+B+s+B+B+B+s+B+B+B+s+B+B+B+s+B+B+B+s+B+B+B+B+B+B+B+s+B+B+B+s+B+B+B+s+B+B+B+s+B+B+B+s+B+B+B+s+B+B+B+s+B+B+B+s+B+B+B+s+B+B+B+s+B+B+B+B+B+B+B+B+B+B+B+s+B+B+B+s+B+B+B+s+B+B+B+s+B+B+B+s+B+B+B+s+B+B+B+B+B+B+B+s+B+B+B+s+B+B+B+B+B+B+B+s+B+B+B+s+B+B+B+s+B+B+B+s+B+B+B+s+B+B+B+s+B+B+B+s+B+B+B+s+B+B+B+s+B+B+B+s+B+B+B+s+B+B+B+s+B+B+B+s+B+B+B+s+B+B+B+s+B+B+B+s+B+B+B+s+B+B+B+s+B+B+B+s+B+B+B+s+B+B+B+s+B+B+B+s+B+B+B+s+B+B+B+s+B+B+B+s+B+B+B+s+B+B+B+s+B+B+B+B+B+B+B+s+B+B+B+s+B+B+B+B+B+B+B+s+B+B+B+s+B+B+B+s+B+B+B+s+B+B+B+B+B+B+B+s+B+B+B+s+B+B+B+s+B+B+B+s+B+B+B+s+B+B+B+s+B+B+B+s+B+B+B+s+B+B+B+s+B+B+B+s+B+B+B+s+B+B+B+s+B+B+B+s+B+B+B+s+B+B+B+s+B+B+B+s+B+B+B+s+B+B+B+s+B+B+B+s+B+B+B+s+B+B+B+s+B+B+B+s+B+B+B+s+B+B+B+s+B+B+B+s+B+B+B+s+B+B+B+s+B+B+B+s+B+B+B+B+B+B+B+s+B+B+B+s+B+B+B+s+B+B+B+s+B+B+B+s+B+B+B+s+B+B+B+s+B+B+B+s+B+B+B+s+B+B+B+s+B+B+B+B+B+B+B+s+B+B+B+s+B+B+B+s+B+B+B+s+B+B+B+s+B+B+B+s+B+B+B+B+B+B+B+s+B+B+B+s+B+B+B+s+B+B+B+s+B+B+B+s+B+B+B+s+B+B+B+s+B+B+B+s+B+B+B+B+B+B+B+s+B+B+B+s+B+B+B+B+B+B+B+s+B+B+B+s+B+B+B+B+B+B+B+s+B+B+B+s+B+B+B+s+B+B+B+s+B+B+B+s+B+B+B+s+B+B+B+s+B+B+B+s+B+B+B+s+B+B+B+s+B+B+B+s+B+B+B+s+B+B+B+s+B+B+B+s+B+B+B+s+B+B+B+s+B+B+B+s+B+B+B+B+B+B+B+s+B+B+B+B+B+s+B+B+B+B+B+B+B+B+B+s+B+B+B+s+B+s+B+s+B+B+B+s+B+B+B+B+B+B+B+s+B+B+B+B+B+B+B+s+B+B+B+s+B+B+B+s+B+B+B+s+B+B+B+s+B+B+B+s+B+B+B+s+B+B+B+s+B+B+B+B+B+B+B+s+B+B+B+B+B+B+B+s+B+B+B+s+s+b+B+s+B+B+B+s+B+B+B+s+B+B+B+B+B+s+B+s+s+S,S+B+s+s*s+s*s+s*s+s*s+s*s+0000000000000000000SS+s+B+B+B+s+B+B+B+s+B+B+B+s+B+B+B+s+B+B+B+s+B+B+B+s+B+B+B+s+B+s+B+s+B+B+B+s+B+B+B+s+B+B+B+s+B+B+B+s+B+B+B+s+B+B+B+s+B+B+B+s+B+B+B+s+B+B+B+s+B+B+B+s+B+B+B+s+B+B+B+s+B+B+B+B+B+B+B+s+B+B+B+s+B+B+B+s+B+B+B+s+B+B+B+s+B+B+B+b+B+B+B+s+B+B+B+s+B+B+B+s+B+B+B+s+B+B+B+s+B+B+B+s+B+B+B+s+B+B+B+s+B+B+B+s+B+B+B+s+B+B+B+s+B+B+B+s+B+B+B+s+B+B+B+B+B+B+B+s+B+B+B+B+B+B+B+B+B+B+B+s+B+B+B+s+B+B+B+s+B+B+B+s+B+B+B+B+B+B+B+s+B+B+B+B+B+B+B+s+B+B+B+s+B+B+B+b+C+B+B+s+s+B+B+B+B+s+B+s+B+B+B+s+B+B+B+s+B+C+B+s+B+B+B+s+B+B+B+s+B+B+B+B+B+B+B+s+B+B+B+B+B+B+B+B+B+B+B+B+B+B+B+B+B+B+B+s+B+B+B+s+B+B+B+B+B+B+B+s+B+B+B+s+B+B+B+s+B+B+B+s+B+B+B+s+B+s+B+s+B+B+B+s+B+B+B+s+B+B+B+s+B+B+B+s+B+B+B+s+B+B+B+s+B+B+B+B+B+B+B+s+B+B+B+s+B+B+B+s+B+B+B+s+B+B+B+s+B+B+B+s+B+B+B+s+B+B+s+s+B+B+B+s+B+B+B+s+B+B+B+B+B+B+B+s+B+B+B+B+B+B+B+s+B+B+B+B+B+B+B+s+B+B+B+s+B+B+B+s+B+B+B+s+B+B+B+s+B+B+B+s+B+B+B+B+B+B+B+B+B+B+B+s+B+B+B+s+B+B+B+s+B+B+B+B+B+B+B+B+B+B+B+B+B+B+B+B+B+B+B+s+B+B+B+B+B+B+B+s+B+B+B+s+B+B+B+s+B+B+B+s+B+B+B+s+B+B+B+s+B+B+B+B+B+B+B+s+B+B+B+s+B+B+B+s+B+B+B+s+B+B+B+s+B+B+B+s+B+B+B+s+B+B+B+s+B+B+B+s+B+B+B+s+B+B+B+s+B+B+B+s+B+B+B+s+B+B+B+s+B+B+B+s+B+B+B+s+B+B+B+s+B+B+B+s+B+B+B+s+B+B+B+s+B+B+B+B+B+B+B+B+B+B+B+s+B+B+B+s+B+B+B+s+B+B+B+s+B+B+B+s+B+B+B+s+B+B+B+s+B+B+B+s+B+B+B+s+B+B+B+s+B+B+B+s+B+B+B+s+B+B+B+s+B+B+B+s+B+B+B+B+B+B+B+s+B+B+B+s+B+B+B+s+B+B+B+s+B+B+B+s+B+B+B+s+B+B+B+s+B+B+B+s+B+B+B+s+B+B+B+s+B+B+B+s+B+B+B+s+B+B+B+s+B+B+B+s+B+B+B+s+B+B+B+s+B+B+B+s+B+B+B+s+B+B+B+s+B+s+B+s+B+B+B+B+B+B+B+s+B+B+B+B+B+B+B+s+B+B+B+B+B+B+B+s+B+B+B+s+B+B+B+s+B+B+B+B+B+B+B+s+B+B+B+s+B+B+B+s+B+B+B+s+B+B+B+s+B+B+B+s+B+B+B+B+B+B+B+B+B+B+B+s+B+B+B+s+B+B+B+s+B+B+B+s+B+B+B+s+B+B+B+s+B+B+B+s+B+B+B+s+B+B+B+s+B+B+B+s+B+B+B+s+B+B+B+s+B+B+B+s+B+B+B+s+B+B+B+s+B+B+B+s+B+B+B+s+B+B+B+s+B+B+B+s+B+B+B+s+B+B+B+s+B+B+B+s+B+B+B+s+B+B+B+s+B+B+B+B+B+B+B+s+B+B+B+s+B+B+B+s+B+B+B+s+B+B+B+s+B+B+B+s+B+B+B+s+B+B+B+s+B+B+B+s+B+B+B+s+B+B+B+s+B+B+B+s+B+B+B+s+B+B+B+B+B+B+B+s+B+B+B+s+B+B+B+s+B+B+B+s+B+B+B+s+B+B+B+s+B+B+B+B+B+B+B+s+B+B+B+s+B+B+B+s+B+B+B+s+B+B+B+s+B+B+B+s+B+B+B+s+B+B+B+s+B+B+B+s+B+B+B+s+B+B+B+s+B+B+B+s+B+B+B+B+B+B+B+B+B+B+B+s+B+B+B+B+B+B+B+s+B+B+B+B+B+B+B+s+B+B+B+B+B+B+B+s+B+B+B+s+B+B+B+B+B+B+B+B+B+B+B+s+B+B+B+s+B+B+B+s+B+B+B+s+B+B+B+s+B+B+B+B+B+B+B+s+B+B+B+s+B+B+B+s+B+B+B+s+B+B+B+s+B+B+B+B+B+B+B+B+B+B+B+s+B+B+B+s+B+B+B+s+B+B+B+s+B+B+B+s+B+B+B+s+B+B+B+s+B+B+B+s+B+B+B+s+B+B+B+s+B+B+B+s+B+B+B+s+B+B+B+s+B+B+B+s+B+B+B+s+B+B+B+s+B+B+B+s+B+B+B+s+B+B+B+s+B+B+B+s+B+B+B+s+B+B+B+s+B+B+B+s+B+B+B+s+B+B+B+s+B+B+B+s+B+B+B+s+B+B+B+s+B+B+B+s+B+B+B+s+B+B+B+B+B+B+B+s+B+B+B+s+B+B+B+s+B+B+B+s+B+B+B+s+B+B+B+s+B+B+B+s+B+B+B+B+B+B+B+s+B+s+B+s+B+B+B+s+B+B+B+s+B+B+B+s+B+B+B+s+B+B+B+s+B+B+B+s+B+B+B+s+B+B+B+s+B+B+B+s+B+B+B+s+B+B+B+s+B+B+B+s+B+B+B+s+B+B+B+s+B+B+B+s+B+B+B+s+B+B+B+s+B+B+B+s+B+B+B+s+B+B+B+s+B+B+B+s+B+B+B+s+B+B+B+s+B+B+B+s+B+B+B+s+B+B+B+s+B+B+B+s+B+B+B+s+B+B+B+s+B+B+B+s+B+B+B+B+B+B+B+s+B+B+B+s+B+B+B+s+B+B+B+s+B+B+B+s+B+B+B+s+B+B+B+s+B+B+B+s+B+B+B+s+B+B+B+s+B+B+B+s+B+B+B+s+B+B+B+s+B+B+B+B+b+B+B+B+B+B+B+s+B+B+B+s+B+B+B+s+B+B+B+s+B+B+B+s+B+B+B+s+B+B+B+B+B+B+B+s+B+B+B+B+B+B+B+s+B+B+B+s+B+B+B+s+B+B+B+s+B+B+B+B+B+B+B+s+B+B+B+s+B+B+B+s+B+B+B+s+B+B+B+s+B+B+B+s+B+B+B+s+B+B+B+s+B+B+B+s+B+B+B+s+B+B+B+s+B+B+B+s+s+b+B+s+B+B+S,S+s+s*s+000000000000000000000000000000000000000000000000SS+s+B+B+B+B+B+B+B+B+B+B+B+b+B+B+B+s+B+B+B+s+B+B+B+s+B+B+B+B+B+B+B+B+B+B+B+B+B+B+B+s+B+B+B+B+B+B+B+B+B+B+B+s+B+B+B+s+B+B+B+s+B+B+B+s+B+B+B+B+B+B+B+B+B+B+B+B+B+B+B+B+B+B+B+s+B+B+B+s+B+B+B+B+B+B+B+B+B+B+B+s+B+B+B+s+B+B+B+s+B+B+B+s+B+B+B+B+B+B+B+s+B+B+B+s+B+B+B+s+B+B+B+s+B+B+B+B+B+B+B+s+B+B+B+s+B+B+B+B+B+B+B+B+B+B+B+s+B+B+B+s+B+B+B+s+B+B+B+s+B+B+B+B+B+B+B+B+B+B+B+B+B+B+B+s+B+B+B+B+B+B+B+B+B+B+B+B+B+B+B+s+B+B+B+s+B+B+B+s+B+B+B+B+B+B+B+s+B+B+B+B+B+B+B+s+B+B+B+s+B+B+B+s+B+B+B+s+B+B+B+B+B+s+B+s+B+s+B+s+B+B+B+B+B+B+B+s+B+B+B+B+B+B+B+s+B+B+B+s+B+B+B+s+B+B+B+B+B+B+B+s+B+B+B+s+B+B+B+s+B+B+B+s+B+B+B+s+B+B+B+s+B+B+B+s+B+B+B+B+B+B+B+s+B+B+B+s+B+B+B+s+B+B+B+s+B+B+B+B+B+B+B+s+B+B+B+s+B+B+B+B+B+B+B+s+B+B+B+s+B+B+B+B+B+B+B+s+B+B+B+s+s+B+B+s+B+B+B+B+B+B+B+s+B+B+B+B+B+B+B+s+B+B+B+s+B+B+B+s+B+B+B+s+B+B+B+B+B+B+B+s+B+B+B+s+B+B+B+s+B+B+B+B+B+B+B+s+B+B+B+B+B+B+B+B+B+B+B+B+B+B+B+s+B+B+B+B+B+B+B+B+B+B+B+s+B+B+B+s+B+B+B+B+B+B+B+s+B+B+B+s+B+B+B+B+B+B+B+B+B+B+B+B+B+B+B+B+B+B+B+s+B+B+B+s+B+B+B+s+B+B+B+s+B+B+B+s+B+B+B+s+B+B+B+s+B+B+B+s+B+B+B+s+B+B+B+B+B+B+B+B+B+B+B+B+B+B+B+s+B+B+B+s+B+B+B+B+B+B+B+s+B+B+B+s+B+B+B+B+B+B+B+s+B+B+B+B+B+B+B+s+B+B+B+s+B+B+B+s+B+B+B+s+B+B+B+s+B+B+B+s+B+B+B+s+B+B+B+B+B+B+B+s+B+B+B+s+B+B+B+s+B+B+B+s+B+B+B+B+B+B+B+B+B+B+B+s+B+B+B+B+B+B+B+B+B+B+B+B+B+s+B+s+B+s+s+B+B+s+B+s+s+B+B+s+B+b+s+s+s+B+b+s*s+s*s+s+s+B+s*s+b+s*s+B+s*s+B+B+s*s+s+B+s+s*s+s*s+s+s+s+B+B+B+s+B+B+B+s+B+B+B+B+B+B+B+s+B+B+B+B+B+B+B+B+B+B+B+s+B+B+B+s+B+B+B+s+B+B+B+s+B+B+B+B+B+B+B+s+B+B+B+s+B+B+B+s+B+B+B+s+B+B+B+s+B+B+B+s+B+B+B+s+B+B+B+s+B+B+B+s+B+B+B+B+B+B+B+s+B+B+B+B+B+B+B+B+B+B+B+s+B+B+B+s+B+B+B+s+B+B+B+s+B+B+B+s+B+B+B+s+B+B+B+s+B+B+B+s+B+B+B+s+B+B+B+s+B+B+B+s+B+B+B+B+B+B+B+s+B+B+B+s+B+B+B+B+B+B+B+B+B+s+B+s+B+B+B+s+B+B+B+s+B+B+B+s+B+B+B+s+B+B+B+s+B+B+B+B+B+B+B+s+B+B+B+B+B+B+B+s+B+B+B+s+B+B+B+s+B+B+B+s+B+B+B+B+B+B+B+s+B+B+B+s+B+B+B+B+B+B+B+s+B+B+B+s+B+B+B+s+B+B+B+s+B+B+B+s+B+B+B+B+B+B+B+s+B+B+B+s+B+B+B+B+B+B+B+s+B+B+B+s+B+B+B+s+B+B+B+s+B+B+B+B+B+B+B+B+B+B+B+s+B+B+B+s+B+B+B+B+B+B+B+B+B+B+B+B+B+B+B+s+B+B+B+B+B+B+B+s+B+B+B+B+B+B+B+B+B+B+B+s+s+B+B+B+B+B+B+s+B+B+B+s+B+B+B+s+B+B+B+s+B+B+B+B+B+B+B+s+B+B+B+s+B+B+B+B+B+B+B+B+B+B+B+B+B+B+B+s+B+B+B+s+B+B+B+s+B+B+B+s+B+B+B+s+B+B+B+s+B+B+B+B+B+B+B+B+B+B+B+B+B+s+s+B+B+B+s+s+B+B+B+s+B+B+B+B+B+B+B+B+B+B+B+s+B+B+B+s+B+B+B+s+B+s+B+s+B+B+B+s+B+B+B+s+B+B+B+s+B+B+B+s+B+B+B+B+B+B+B+s+B+B+B+B+B+B+B+s+B+B+B+s+B+B+B+s+B+B+B+s+B+B+B+B+B+B+B+s+B+B+B+s+B+B+B+s+B+B+B+s+B+B+B+s+B+B+B+B+B+B+B+s+B+B+B+s+B+B+B+s+B+B+B+B+B+B+B+s+B+B+B+s+B+B+B+s+B+B+B+s+B+B+B+s+B+B+B+B+B+B+B+B+B+B+B+B+B+B+B+B+B+B+B+B+B+B+B+s+B+B+B+B+B+B+B+s+B+B+B+s+B+B+B+s+B+B+B+s+B+B+B+s+B+B+B+s+B+B+B+s+B+B+B+B+B+B+B+s+B+B+B+s+B+B+B+B+B+B+B+s+B+B+B+B+B+B+B+s+B+B+B+B+B+B+B+B+B+B+B+s+B+B+B+B+B+B+B+s+B+B+B+B+B+B+B+B+B+B+B+B+B+B+B+B+B+B+B+B+B+B+B+B+B+B+B+B+B+B+B+s+B+B+B+s+B+B+B+s+B+B+B+B+B+B+B+s+B+B+B+s+B+B+B+s+B+B+B+s+B+B+B+B+B+B+B+s+B+B+B+s+B+B+B+B+B+B+B+s+B+B+B+s+B+B+B+s+B+B+B+s+B+B+B+B+B+B+B+s+B+B+B+B+B+B+B+s+B+B+B+B+B+B+B+s+B+B+B+B+B+s+B+B+B+B+B+s+B+B+B+s+B+B+B+B+B+B+B+B+B+B+B+B+B+B+B+s+B+B+B+B+B+B+B+s+B+B+B+s+B+B+B+B+B+B+B+s+B+B+B+s+B+B+B+B+B+B+B+B+B+B+B+s+B+B+B+s+B+B+B+s+B+B+B+s+B+B+B+s+B+B+B+s+B+B+B+B+B+B+B+B+B+B+B+B+B+B+B+s+B+B+B+B+B+B+B+s+S*S+s*s+s*s+s*s+s+s+'
p1
.F-2657.9664930676436
.S'From-Botnet-TCP-HTTP-CC.Miuref.Attempt-4'
p1
.F1.1000000000000001
.