ccopy_reg
_reconstructor
p1
(cpykov
Vector
p2
c__builtin__
dict
p3
(dp4
S'Y'
F0.45454545454545453
sS'8'
F0.090909090909090912
sS'+'
F0.22727272727272727
sS'.'
F0.22727272727272727
stRp5
.ccopy_reg
_reconstructor
p1
(cpykov
Chain
p2
c__builtin__
dict
p3
(dp4
(S'+'
S'Y'
tp5
F1
s(S'.'
S'Y'
tp6
F1
s(S'8'
S'.'
tp7
F0.5
s(S'8'
S'8'
tp8
F0.5
s(S'Y'
S'.'
tp9
F0.44444444444444448
s(S'Y'
S'+'
tp10
F0.55555555555555558
stRp11
(dp12
S'_guess'
p13
g1
(cpykov
Vector
p14
g3
(dp15
S'Y'
F0.45000000000000001
sS'8'
F0.10000000000000001
sS'+'
F0.20000000000000001
sS'.'
F0.25
stRp16
sb.S'88.Y+Y.Y+Y.Y+Y.Y+Y.Y+Y.Y+Y.Y+Y.Y+Y.Y+Y.Y+Y.Y*Y.Y+Y.Y+Y.Y+Y.Y+Y.Y*Y.Y*Y.Y*Y.Y*Y.Y*Y.Y*Y.Y*Y.Y*Y.Z*Z,z,z,i,z,H,z,y,z,Y*Y.Y*Y.Y*Y.Y*Y.Y*Y.Y*Z.Y*Y.Y*Z.Y*Y.Y,Z.Y*Y.Y*Y.Y*Y.Y*Y.Y*Y.Y*Y.Y*Z.Y*Y.Y*Y.Y*Y.Y*Y.00000000000000000000000000000000000000000000000000000000000000000000000000000000000000000000000000000000000000000YY.y.y.y.v.0000000000YY.Y.Y.Y*Y.Y*Y.Y*Y.Y*Y.Y*Y.Y*Y.Y*Y.Y*Y.Y*Y.Y*Y.Y*Y.Y*Y.Y*Y.Y*Y.Y*Y.Y*Y.Y*Y.Y*Y.Y*Y.Y*Y.Y*Y.Y*Y.Y*Y.Y*Y.Y*Y.Y*Y.Y*Y.Y*Y.Y*Y.Y*Y.Y*Y.Y*Y.Y*Y.Y*Y.Y*Y.Y*Y.Y*Y.Y*Y.Y*Y.Y*Y.Y*Y.Y*Y.Y*Y.Y*Y.Y*Y.y.s.0000000000000000000000ZZ,I,I,z,F,Z+Z,z,z,z,z,I,I,z,z,I,i,z,z,Y*Y.Y*Y.Y*Y.Y*Y.Y*Y.Y*Y.Y*Y.y.y.Y*Y.Y*Y.V*Y.Y*Z.Y*Z.00000YZ.Y,Z.Y+Z.Y,Z.Y*Y.Y*Y.Y*Y.Y*Y.Y*Y.Y*Y.Y*Y.Y*Y.Y*Y.Y*Y.Y*Y.Y*Y.Y*Y.Y*Y.Y*Y.Y*Y.Y*Y.Y*Y.Y*Y.Y*Y.Y*Y.Y*Y.Y*Z.Y*Y.y.y.Y*Y.Y*Z.0000000000000YY.y.y.'
p1
.F-472.16723303153071
.S'From-Botnet-TCP-HTTP-CC.Dridex-7'
p1
.cnumpy.core.multiarray
scalar
p1
(cnumpy
dtype
p2
(S'f8'
I0
I1
tRp3
(I3
S'<'
NNNI-1
I-1
I0
tbS'\x9a\x99\x99\x99\x99\x99\xf1?'
tRp4
.