(dp1
S'Z'
F0.12284482758620689
sS'B'
F0.0021551724137931034
sS'e'
F0.0021551724137931034
sS'I'
F0.060344827586206899
sS'+'
F0.41379310344827586
sS'V'
F0.0043103448275862068
sS','
F0.021551724137931036
sS'.'
F0.0625
sS'i'
F0.21551724137931033
sS'v'
F0.0021551724137931034
sS'9'
F0.0043103448275862068
sS'z'
F0.088362068965517238
s.ccopy_reg
_reconstructor
p1
(cstf.common.markov_chains
Matrix
p2
c__builtin__
dict
p3
(dp4
(S'+'
S'I'
tp5
F0.140625
s(S'Z'
S','
tp6
F0.017543859649122806
s(S'i'
S','
tp7
F0.01
s(S'+'
S'e'
tp8
F0.005208333333333333
s(S','
S'B'
tp9
F0.10000000000000001
s(S'B'
S'+'
tp10
F1
s(S'I'
S'+'
tp11
F0.9285714285714286
s(S'9'
S'.'
tp12
F0.5
s(S','
S'Z'
tp13
F0.20000000000000001
s(S'Z'
S'+'
tp14
F0.49122807017543857
s(S'9'
S'9'
tp15
F0.5
s(S'+'
S'Z'
tp16
F0.14583333333333334
s(S','
S'i'
tp17
F0.10000000000000001
s(S'+'
S'v'
tp18
F0.005208333333333333
s(S'z'
S','
tp19
F0.12195121951219512
s(S'.'
S'V'
tp20
F0.068965517241379309
s(S'+'
S'i'
tp21
F0.515625
s(S'.'
S'Z'
tp22
F0.93103448275862066
s(S'I'
S','
tp23
F0.071428571428571425
s(S'V'
S'+'
tp24
F1
s(S'Z'
S'.'
tp25
F0.49122807017543857
s(S'i'
S'+'
tp26
F0.98999999999999999
s(S'e'
S'+'
tp27
F1
s(S','
S'z'
tp28
F0.5
s(S'z'
S'+'
tp29
F0.87804878048780488
s(S'+'
S'z'
tp30
F0.1875
s(S','
S'I'
tp31
F0.10000000000000001
s(S'v'
S','
tp32
F1
stRp33
(dp34
S'itemlist'
p35
(lp36
sS'init_vector'
p37
(dp38
S'Z'
F0.12284482758620689
sS'B'
F0.0021551724137931034
sS'e'
F0.0021551724137931034
sS'I'
F0.060344827586206899
sS'+'
F0.41379310344827586
sS'V'
F0.0043103448275862068
sS','
F0.021551724137931036
sS'.'
F0.0625
sS'i'
F0.21551724137931033
sS'v'
F0.0021551724137931034
sS'9'
F0.0043103448275862068
sS'z'
F0.088362068965517238
ssb.S'99.Z+z+z+I+i+i+Z.Z+i+I+I+i+Z.Z+i+i+i+z+z+I+i+z+z+i+i+i+Z.Z+i+i+z+z+I+i+i+Z.Z+z+i+i+i+Z.Z+z+i+i+i+Z.V+z,z+I+z+z+i+i+I+I+z+z+i+i+i+Z.Z+e+z,z+z+i+i+i+Z.Z+i+i+i+i+Z.Z+i+i+z+I+z+I+I+i+Z,Z+i+i+i+i+Z.Z+i+i+i+i+Z.Z+i+i+z+z+i+i+I+Z.Z+I+i+I+I+Z.Z+z+z+I+i+i+Z.Z+i+i+z+z+i+i+i+Z.Z+I+i+i+i+Z.Z+i+i+i+i+Z.Z+z+z+i+i+i+Z.Z+i+i+i+i+Z.Z+i+i+i+i+Z.Z+i+i+I+z+Z.Z+i+i+i+i+Z.Z+i+i+i+i+Z.Z+i+i+i+z+z+i+i+i+Z.V+v,i,z+i+i+z+z+I+I+i+Z.Z+z+i+z,z+z,I,Z.Z+z,z+I+i+I+I+Z.Z+i+i+I+i+Z.Z+i+I+I+I,B+'
p1
.F-337.34072196446311
.S'From-Botnet-TCP-HTTP-CC.BitcoinMiner-1'
p1
.F1.1000000000000001
.