ccopy_reg
_reconstructor
p1
(cpykov
Vector
p2
c__builtin__
dict
p3
(dp4
S'y'
F0.09375
sS'h'
F0.375
sS','
F0.48958333333333331
sS'H'
F0.020833333333333332
sS'8'
F0.020833333333333332
stRp5
.ccopy_reg
_reconstructor
p1
(cpykov
Chain
p2
c__builtin__
dict
p3
(dp4
(S'h'
S','
tp5
F1
s(S','
S'y'
tp6
F0.19148936170212766
s(S'H'
S','
tp7
F1
s(S'8'
S'8'
tp8
F0.5
s(S'8'
S','
tp9
F0.5
s(S'y'
S','
tp10
F1
s(S','
S'H'
tp11
F0.042553191489361701
s(S','
S'h'
tp12
F0.76595744680851063
stRp13
(dp14
S'_guess'
p15
g1
(cpykov
Vector
p16
g3
(dp17
S'y'
F0.09375
sS'h'
F0.375
sS','
F0.48958333333333331
sS'H'
F0.020833333333333332
sS'8'
F0.020833333333333332
stRp18
sb.S'88,h,h,h,h,h,h,h,h,h,h,h,h,h,h,h,h,h,h,h,h,h,h,h,h,h,h,h,h,h,h,h,h,h,y,h,y,y,y,y,H,y,y,y,h,y,h,H,y,y,h,H,h,y,h,y,y,h,y,H,H,y,H,y,h,H,h,h,h,S*H*Y,H,H,y,h,H,Y+Y,Y*Y,y,h,H,h,Y+Y,I,y,H,y,H,Y+y+y,y,Y*H+Y,H,h,Y+Y,Y*y+y+y+Y,H,Y+Y,y,y,y,Y*Y,y,y,H,H,y+h+h+y,y,y,Y+Y,y,h,H,y,y,y,y,y,H,y,y,y,Y+z,y,y,y,y,H,H,y,y,y,i,y,Y,H,y,H,y,y,y,y+y,y,y,y,H,y,Y,y,z,y,y,y,h,h,h,y,H,y,y,h,y,'
p1
.F-302.40619917756732
.S'From-Botnet-TCP-HTTP-CC-23'
p1
.cnumpy.core.multiarray
scalar
p1
(cnumpy
dtype
p2
(S'f8'
I0
I1
tRp3
(I3
S'<'
NNNI-1
I-1
I0
tbS'\x9a\x99\x99\x99\x99\x99\xf1?'
tRp4
.