ccopy_reg
_reconstructor
p1
(cpykov
Vector
p2
c__builtin__
dict
p3
(dp4
S'8'
F0.0625
sS'*'
F0.46875
sS'e'
F0.03125
sS'h'
F0.4375
stRp5
.ccopy_reg
_reconstructor
p1
(cpykov
Chain
p2
c__builtin__
dict
p3
(dp4
(S'8'
S'*'
tp5
F0.5
s(S'*'
S'e'
tp6
F0.066666666666666666
s(S'*'
S'h'
tp7
F0.93333333333333335
s(S'8'
S'8'
tp8
F0.5
s(S'e'
S'*'
tp9
F1
s(S'h'
S'*'
tp10
F1
stRp11
(dp12
S'_guess'
p13
g1
(cpykov
Vector
p14
g3
(dp15
S'8'
F0.0625
sS'*'
F0.46875
sS'e'
F0.03125
sS'h'
F0.4375
stRp16
sb.S'88*h*h*h*h*h*h*h*h*h*h*h*h*h*h*e*'
p1
.F-5.0602447630394209
.S'From-Botnet-TCP-Unknown-CC-10'
p1
.cnumpy.core.multiarray
scalar
p1
(cnumpy
dtype
p2
(S'f8'
I0
I1
tRp3
(I3
S'<'
NNNI-1
I-1
I0
tbS'\x9a\x99\x99\x99\x99\x99\xf1?'
tRp4
.