(dp1
S'a'
F0.44660194174757284
sS'A'
F0.019131924614505996
sS'e'
F0.010850942318675044
sS'v'
F0.0019988577955454027
sS','
F0.49971444888635064
sS'1'
F0.00057110222729868647
sS'r'
F0.0099942889777270127
sS'u'
F0.0074243289548829245
sS'V'
F0.00028555111364934324
sS'E'
F0.0019988577955454027
sS'R'
F0.0011422044545973729
sS'U'
F0.00028555111364934324
s.ccopy_reg
_reconstructor
p1
(cstf.common.markov_chains
Matrix
p2
c__builtin__
dict
p3
(dp4
(S'u'
S','
tp5
F1
s(S'1'
S'1'
tp6
F0.5
s(S','
S'R'
tp7
F0.0022857142857142859
s(S','
S'e'
tp8
F0.021714285714285714
s(S','
S'r'
tp9
F0.02
s(S'A'
S','
tp10
F1
s(S'E'
S','
tp11
F1
s(S','
S'V'
tp12
F0.00057142857142857147
s(S'r'
S','
tp13
F1
s(S','
S'U'
tp14
F0.00057142857142857147
s(S'V'
S','
tp15
F1
s(S','
S'A'
tp16
F0.038285714285714284
s(S'U'
S','
tp17
F1
s(S','
S'v'
tp18
F0.0040000000000000001
s(S','
S'E'
tp19
F0.0040000000000000001
s(S'a'
S','
tp20
F1
s(S'e'
S','
tp21
F1
s(S'R'
S','
tp22
F1
s(S','
S'u'
tp23
F0.014857142857142857
s(S'v'
S','
tp24
F1
s(S'1'
S','
tp25
F0.5
s(S','
S'a'
tp26
F0.89371428571428568
stRp27
(dp28
S'itemlist'
p29
(lp30
sS'init_vector'
p31
(dp32
S'a'
F0.44660194174757284
sS'A'
F0.019131924614505996
sS'e'
F0.010850942318675044
sS'v'
F0.0019988577955454027
sS','
F0.49971444888635064
sS'1'
F0.00057110222729868647
sS'r'
F0.0099942889777270127
sS'u'
F0.0074243289548829245
sS'V'
F0.00028555111364934324
sS'E'
F0.0019988577955454027
sS'R'
F0.0011422044545973729
sS'U'
F0.00028555111364934324
ssb.S'11,a,a,a,a,a,a,a,a,a,a,a,a,a,a,a,a,a,a,a,a,a,a,a,a,a,a,a,a,a,a,a,a,a,a,e,r,r,a,a,a,a,a,a,a,a,a,a,a,a,a,a,a,a,a,a,e,A,A,a,a,a,a,a,a,a,a,a,a,a,a,a,a,a,a,a,a,a,a,a,a,a,a,a,a,a,a,a,a,a,a,a,a,a,a,e,A,A,a,a,a,e,r,r,a,a,a,a,a,a,a,a,a,a,a,a,a,a,a,a,a,a,a,a,a,a,a,a,a,a,a,a,a,a,a,a,a,a,a,u,r,A,a,a,a,a,a,a,a,a,u,r,A,a,a,a,a,e,A,A,a,a,a,a,v,r,A,a,a,a,a,a,a,a,a,a,a,a,a,a,a,a,a,a,a,a,a,a,a,a,a,a,a,a,a,a,a,a,a,a,a,a,a,a,a,a,a,a,a,a,a,a,a,a,a,a,a,a,a,a,a,a,a,a,e,E,A,A,a,a,a,a,a,a,a,a,a,a,a,a,a,a,a,a,a,a,u,v,a,A,a,a,a,a,a,a,a,a,a,a,a,a,a,a,a,a,a,a,a,a,a,a,a,a,a,a,a,a,a,e,r,r,a,a,a,a,u,r,A,a,a,a,a,a,a,a,a,a,a,a,a,a,a,a,a,a,a,a,a,a,a,a,e,a,a,a,a,a,a,a,a,a,a,a,a,a,a,a,a,a,a,a,a,a,a,a,a,a,a,a,a,a,a,a,a,e,A,A,a,a,a,a,a,a,a,a,a,a,a,a,a,a,a,a,a,a,a,a,a,a,a,a,a,a,a,u,r,A,a,a,a,a,a,a,a,a,a,a,a,a,a,a,a,a,a,a,a,a,a,a,a,a,a,a,a,a,a,a,a,a,a,a,a,a,a,a,a,a,a,a,a,a,a,a,a,a,a,a,a,a,a,a,a,a,a,a,a,a,a,a,a,a,a,a,a,a,a,a,a,a,a,a,a,a,a,a,a,a,a,a,a,a,a,a,a,a,a,a,a,a,a,a,a,a,a,a,a,a,a,a,a,a,a,a,a,a,a,a,a,a,a,a,a,a,a,a,a,a,a,a,a,a,a,a,a,a,a,a,a,e,A,A,a,a,a,a,a,a,a,a,a,a,a,a,a,a,a,a,a,a,a,a,a,a,a,a,a,a,a,a,a,a,a,a,a,a,a,a,a,a,a,a,a,a,a,a,a,a,e,v,r,A,a,a,a,a,a,a,a,a,a,a,a,a,a,a,a,a,a,a,a,a,a,a,a,u,r,A,a,a,a,e,a,a,a,a,a,a,a,u,r,A,a,a,a,a,a,a,a,a,a,a,a,a,a,a,a,a,a,a,a,a,a,a,a,a,a,a,a,a,a,a,a,a,a,a,a,a,a,a,a,a,a,u,r,A,a,a,a,a,a,a,a,a,a,a,a,a,a,a,a,a,a,a,a,a,a,a,a,a,a,a,a,a,a,e,A,A,a,e,a,a,a,a,a,a,a,a,a,e,a,a,a,a,a,a,a,a,a,a,a,a,a,a,a,a,a,a,a,a,a,a,a,a,a,a,a,a,a,a,a,a,a,a,a,a,a,a,a,a,a,a,a,a,a,a,a,a,a,a,a,a,a,a,a,e,A,A,a,a,a,a,a,a,a,a,a,a,a,a,a,a,a,a,a,a,a,a,a,a,a,a,a,a,a,a,e,a,a,a,a,a,a,a,a,a,a,a,a,a,a,a,a,a,a,a,a,a,a,a,a,a,a,a,a,a,a,a,a,a,a,a,a,a,a,e,a,a,a,a,a,a,a,a,a,a,a,a,a,a,a,a,a,a,a,a,a,a,a,a,a,a,a,a,a,a,a,a,a,a,a,a,a,a,a,a,a,a,a,a,e,a,a,a,a,a,a,a,a,a,a,a,a,a,a,a,a,a,a,a,a,a,a,a,a,a,a,a,a,a,a,a,a,a,a,a,a,a,a,a,a,a,a,a,a,a,u,r,A,a,a,a,a,a,a,a,a,a,a,a,a,a,a,a,a,a,a,a,a,a,a,a,a,a,a,a,a,a,a,a,a,a,a,a,a,a,a,a,a,a,a,a,a,a,a,a,a,a,a,a,a,u,r,E,a,a,a,a,a,a,a,a,a,a,a,a,a,a,a,a,a,a,a,a,a,a,a,a,a,a,a,a,a,a,a,a,a,a,a,a,a,a,a,a,a,a,a,a,a,a,a,a,a,a,a,a,a,a,a,a,a,a,a,a,a,a,a,a,a,a,a,a,a,a,a,a,a,a,a,u,r,A,a,a,a,a,e,E,A,A,a,a,a,a,a,a,a,u,r,A,u,r,A,a,a,a,a,a,a,a,a,a,a,a,a,a,a,a,a,a,a,a,a,a,a,a,a,a,a,a,a,a,a,a,a,a,a,a,a,a,a,a,a,a,a,a,a,a,e,A,A,a,a,a,a,a,u,r,A,a,a,a,a,a,a,a,a,a,a,a,a,a,a,a,a,a,a,a,a,a,a,a,a,a,a,a,a,a,a,a,a,a,a,a,e,a,a,a,u,r,A,a,a,u,r,A,e,A,A,a,a,a,a,a,a,a,a,a,a,a,a,a,a,a,a,a,a,a,a,a,a,a,a,a,a,a,a,a,a,a,a,a,a,e,A,A,a,a,a,a,a,a,a,a,a,a,a,a,a,a,a,a,a,e,U,R,E,a,a,a,a,a,a,a,a,a,a,a,a,a,e,A,A,a,a,a,a,a,u,r,A,a,a,a,a,a,a,a,a,a,a,a,a,a,a,a,a,a,a,a,a,a,a,e,a,a,a,a,a,a,a,a,a,a,a,a,a,a,u,r,A,a,a,a,a,a,a,a,a,a,a,a,a,a,a,a,a,a,a,a,e,a,a,a,a,a,a,a,a,a,a,a,a,a,a,a,a,a,a,a,a,a,a,a,a,a,a,a,a,a,a,a,a,a,a,a,a,a,a,a,a,e,a,a,a,a,a,a,a,a,a,a,e,u,r,A,a,a,a,a,a,a,a,a,a,a,a,a,a,u,r,E,A,A,a,a,a,a,a,a,a,a,a,a,a,a,a,a,a,a,a,a,a,a,a,a,a,a,a,a,a,a,a,a,a,a,a,a,a,a,a,a,a,e,R,R,A,a,a,a,a,a,a,a,a,a,a,a,a,a,a,a,a,a,a,a,a,a,a,a,a,a,a,a,a,a,a,a,a,a,a,a,a,a,a,a,a,a,a,a,a,a,a,a,a,a,a,e,A,E,u,r,A,a,a,a,a,a,a,a,v,r,A,a,a,a,a,a,a,a,a,a,a,a,a,a,a,a,a,a,a,a,a,a,a,a,a,a,a,v,r,A,a,a,a,a,a,a,a,a,a,a,a,a,a,a,a,a,a,a,a,a,a,a,a,a,a,a,a,a,a,a,a,a,e,A,A,a,a,u,r,A,a,a,a,a,e,E,A,A,a,a,a,a,a,a,a,a,a,a,a,a,a,a,a,a,a,a,a,a,a,a,u,r,A,a,a,a,a,a,a,a,e,A,A,a,a,a,a,a,a,a,a,a,a,a,a,a,a,a,a,a,a,a,a,u,r,A,a,a,a,a,a,a,a,a,a,a,a,a,a,a,a,a,a,a,a,a,a,a,a,a,a,a,a,a,a,a,a,a,a,a,e,a,a,a,a,a,a,a,a,a,a,a,a,a,a,a,a,a,a,a,a,a,u,r,A,a,a,a,a,a,a,a,a,a,a,a,a,a,a,a,a,a,a,a,a,a,a,a,a,a,a,a,a,a,a,a,e,v,R,A,a,a,a,a,a,a,a,v,V,A,A,a,a,a,a,a,a,a,a,u,r,A,a,e,a,a,a,a,a,'
p1
.F-904.18436561747762
.S'From-Botnet-TCP-Unknown-CC-1'
p1
.F1.1000000000000001
.