ccopy_reg
_reconstructor
p1
(cpykov
Vector
p2
c__builtin__
dict
p3
(dp4
S'9'
F0.1111111111111111
sS'e'
F0.055555555555555552
sS'i'
F0.055555555555555552
sS'I'
F0.1111111111111111
sS'+'
F0.38888888888888884
sS'z'
F0.22222222222222221
sS','
F0.055555555555555552
stRp5
.ccopy_reg
_reconstructor
p1
(cpykov
Chain
p2
c__builtin__
dict
p3
(dp4
(S'+'
S'I'
tp5
F0.28571428571428575
s(S'+'
S'e'
tp6
F0.14285714285714288
s(S'+'
S'i'
tp7
F0.14285714285714288
s(S'i'
S'+'
tp8
F1
s(S'e'
S'+'
tp9
F1
s(S'z'
S','
tp10
F0.25
s(S'z'
S'+'
tp11
F0.75
s(S'9'
S'9'
tp12
F0.5
s(S'+'
S'z'
tp13
F0.4285714285714286
s(S','
S'z'
tp14
F1
s(S'I'
S'+'
tp15
F1
s(S'9'
S'+'
tp16
F0.5
stRp17
(dp18
S'_guess'
p19
g1
(cpykov
Vector
p20
g3
(dp21
S'9'
F0.1111111111111111
sS'e'
F0.055555555555555552
sS'i'
F0.055555555555555552
sS'I'
F0.1111111111111111
sS'+'
F0.38888888888888884
sS'z'
F0.22222222222222221
sS','
F0.055555555555555552
stRp22
sb.S'99+I+i+I+z+z+e+z,z+I+i+i+I+I+i+I+I+i+e+z,v+z,z+I+I+I+E+z,z+I+i+i+i+I+i+I+E+z,z+I+i+z+z+e+v,v,z+v+V,v,v+z+z+I+i+i+I+I+i+i+e+z,Z+v+z,z+I+I+i+I+I+i+i+i+I+I+i+i+i,I+I+i+i+e+z,z+I+s+'
p1
.F-154.64940536252189
.S'From-Botnet-TCP-HTTP-CC.Bitcoin.Miner-2'
p1
.cnumpy.core.multiarray
scalar
p1
(cnumpy
dtype
p2
(S'f8'
I0
I1
tRp3
(I3
S'<'
NNNI-1
I-1
I0
tbS'\x9a\x99\x99\x99\x99\x99\xf1?'
tRp4
.