(dp1
S'a'
F0.024390243902439025
sS'e'
F0.073170731707317069
sS'i'
F0.024390243902439025
sS'*'
F0.17073170731707318
sS'0'
F0.46341463414634149
sS'R'
F0.024390243902439025
sS'5'
F0.04878048780487805
sS'w'
F0.024390243902439025
sS'v'
F0.024390243902439025
sS'E'
F0.04878048780487805
sS'r'
F0.073170731707317069
s.ccopy_reg
_reconstructor
p1
(cstf.common.markov_chains
Matrix
p2
c__builtin__
dict
p3
(dp4
(S'0'
S'r'
tp5
F0.15789473684210525
s(S'*'
S'e'
tp6
F0.42857142857142855
s(S'w'
S'0'
tp7
F1
s(S'5'
S'5'
tp8
F0.5
s(S'r'
S'0'
tp9
F1
s(S'0'
S'w'
tp10
F0.052631578947368418
s(S'*'
S'R'
tp11
F0.14285714285714285
s(S'e'
S'*'
tp12
F1
s(S'*'
S'E'
tp13
F0.2857142857142857
s(S'v'
S'0'
tp14
F1
s(S'*'
S'i'
tp15
F0.14285714285714285
s(S'0'
S'a'
tp16
F0.052631578947368418
s(S'R'
S'0'
tp17
F1
s(S'5'
S'*'
tp18
F0.5
s(S'0'
S'0'
tp19
F0.68421052631578949
s(S'a'
S'0'
tp20
F1
s(S'0'
S'v'
tp21
F0.052631578947368418
s(S'i'
S'*'
tp22
F1
s(S'E'
S'*'
tp23
F1
stRp24
(dp25
S'itemlist'
p26
(lp27
sS'init_vector'
p28
(dp29
S'a'
F0.024390243902439025
sS'e'
F0.073170731707317069
sS'i'
F0.024390243902439025
sS'*'
F0.17073170731707318
sS'0'
F0.46341463414634149
sS'R'
F0.024390243902439025
sS'5'
F0.04878048780487805
sS'w'
F0.024390243902439025
sS'v'
F0.024390243902439025
sS'E'
F0.04878048780487805
sS'r'
F0.073170731707317069
ssb.S'55*e*E*e*e*E*i*R0000r0r0000w00v00000r00a00'
p1
.F-32.65012115468528
.S'From-Botnet-UDP-Unknown-CC-1'
p1
.F1.1000000000000001
.